   1              		.cpu arm7tdmi
   2              		.fpu softvfp
   3              		.eabi_attribute 20, 1
   4              		.eabi_attribute 21, 1
   5              		.eabi_attribute 23, 3
   6              		.eabi_attribute 24, 1
   7              		.eabi_attribute 25, 1
   8              		.eabi_attribute 26, 1
   9              		.eabi_attribute 30, 2
  10              		.eabi_attribute 18, 4
  11              		.file	"44blib.c"
  21              	.Ltext0:
  22              		.file 1 "../common/44blib.c"
 3126              		.align	2
 3128              	Delay.clone.0:
 3129              	.LFB6:
   1:../common/44blib.c **** #include "44b.h"
   2:../common/44blib.c **** #include "44blib.h"
   3:../common/44blib.c **** #include "def.h"
   4:../common/44blib.c **** #include "option.h"
   5:../common/44blib.c **** 
   6:../common/44blib.c **** #include <stdarg.h>
   7:../common/44blib.c **** #include <string.h>
   8:../common/44blib.c **** #include <stdio.h>
   9:../common/44blib.c **** #include <ctype.h>
  10:../common/44blib.c **** 
  11:../common/44blib.c **** #define STACKSIZE    0xa00 // SVC stack size (do not use user stack)
  12:../common/44blib.c **** #define HEAPEND     (_ISR_STARTADDRESS-STACKSIZE-0x500) // = 0xc7ff000
  13:../common/44blib.c **** //SVC Stack Area:0xc(e)7ff000-0xc(e)7ffaff//
  14:../common/44blib.c **** 
  15:../common/44blib.c **** extern char Image_RW_Limit[];
  16:../common/44blib.c **** volatile unsigned char *downPt;
  17:../common/44blib.c **** unsigned int fileSize;
  18:../common/44blib.c **** void *mallocPt = Image_RW_Limit;
  19:../common/44blib.c **** 
  20:../common/44blib.c **** void (*restart)(void) = (void (*)(void))0x0;
  21:../common/44blib.c **** void (*run)(void) = (void (*)(void))DOWNLOAD_ADDRESS;
  22:../common/44blib.c **** 
  23:../common/44blib.c **** //--------------------------------SYSTEM---------------------------------//
  24:../common/44blib.c **** static int delayLoopCount = 400;
  25:../common/44blib.c **** 
  26:../common/44blib.c **** void __attribute__((optimize("O0"))) Delay(int time)
 3130              		.loc 1 26 0
 3131              		.cfi_startproc
 3132              		@ Function supports interworking.
 3133              		@ args = 0, pretend = 0, frame = 16
 3134              		@ frame_needed = 1, uses_anonymous_args = 0
 3135 0000 0DC0A0E1 		mov	ip, sp
 3136              	.LCFI0:
 3137              		.cfi_def_cfa_register 12
 3138 0004 00D82DE9 		stmfd	sp!, {fp, ip, lr, pc}
 3139 0008 04B04CE2 		sub	fp, ip, #4
 3140              		.cfi_offset 14, -8
 3141              		.cfi_offset 13, -12
 3142              		.cfi_offset 11, -16
 3143              	.LCFI1:
 3144              		.cfi_def_cfa 11, 4
 3145 000c 10D04DE2 		sub	sp, sp, #16
 3146              		.loc 1 26 0
 3147 0010 0030A0E3 		mov	r3, #0
 3148 0014 10300BE5 		str	r3, [fp, #-16]
 3149              	.LVL0:
  27:../common/44blib.c **** // time=0: adjust the Delay function by WatchDog timer
  28:../common/44blib.c **** // time>0: the number of loop time
  29:../common/44blib.c **** // 100us resolution
  30:../common/44blib.c **** // Delay(10) -> 10*100us resolution
  31:../common/44blib.c **** {
  32:../common/44blib.c **** 	int i,adjust = 0;
 3150              		.loc 1 32 0
 3151 0018 0030A0E3 		mov	r3, #0
 3152 001c 14300BE5 		str	r3, [fp, #-20]
 3153              	.LVL1:
  33:../common/44blib.c **** 	if (time == 0)
 3154              		.loc 1 33 0
 3155 0020 10301BE5 		ldr	r3, [fp, #-16]
 3156 0024 000053E3 		cmp	r3, #0
 3157 0028 2200001A 		bne	.L8
  34:../common/44blib.c **** 	{
  35:../common/44blib.c **** 		time = 200;
 3158              		.loc 1 35 0
 3159 002c C830A0E3 		mov	r3, #200
 3160              	.LVL2:
 3161 0030 10300BE5 		str	r3, [fp, #-16]
 3162              	.LVL3:
  36:../common/44blib.c **** 		adjust = 1;
 3163              		.loc 1 36 0
 3164 0034 0130A0E3 		mov	r3, #1
 3165              	.LVL4:
 3166 0038 14300BE5 		str	r3, [fp, #-20]
 3167              	.LVL5:
  37:../common/44blib.c **** 		delayLoopCount = 400;
 3168              		.loc 1 37 0
 3169 003c E0309FE5 		ldr	r3, .L9
 3170              	.LVL6:
 3171 0040 192EA0E3 		mov	r2, #400
 3172 0044 002083E5 		str	r2, [r3, #0]
  38:../common/44blib.c **** 		rWTCON = ((MCLK/1000000 - 1)<<8) | (2<<3);	// 1M/64,Watch-dog,nRESET,interrupt disable//
 3173              		.loc 1 38 0
 3174 0048 D8309FE5 		ldr	r3, .L9+4
 3175 004c D8209FE5 		ldr	r2, .L9+8
 3176 0050 002083E5 		str	r2, [r3, #0]
  39:../common/44blib.c **** 		rWTDAT = 0xffff;
 3177              		.loc 1 39 0
 3178 0054 D4309FE5 		ldr	r3, .L9+12
 3179 0058 D4209FE5 		ldr	r2, .L9+16
 3180 005c 002083E5 		str	r2, [r3, #0]
  40:../common/44blib.c **** 		rWTCNT = 0xffff;
 3181              		.loc 1 40 0
 3182 0060 D0309FE5 		ldr	r3, .L9+20
 3183 0064 C8209FE5 		ldr	r2, .L9+16
 3184 0068 002083E5 		str	r2, [r3, #0]
  41:../common/44blib.c **** 		rWTCON = ((MCLK/1000000 - 1)<<8)|(2<<3)|(1<<5); // 1M/64,Watch-dog enable,nRESET,interrupt disabl
 3185              		.loc 1 41 0
 3186 006c B4309FE5 		ldr	r3, .L9+4
 3187 0070 C4209FE5 		ldr	r2, .L9+24
 3188 0074 002083E5 		str	r2, [r3, #0]
 3189 0078 0F0000EA 		b	.L3
 3190              	.LVL7:
 3191              	.L6:
  42:../common/44blib.c **** 	}
  43:../common/44blib.c **** 	for (; time>0; time--)
  44:../common/44blib.c **** 		for (i = 0; i < delayLoopCount; i++);
 3192              		.loc 1 44 0
 3193 007c 0030A0E3 		mov	r3, #0
 3194              	.LVL8:
 3195 0080 18300BE5 		str	r3, [fp, #-24]
 3196              	.LVL9:
 3197 0084 020000EA 		b	.L4
 3198              	.LVL10:
 3199              	.L5:
 3200 0088 18301BE5 		ldr	r3, [fp, #-24]
 3201 008c 013083E2 		add	r3, r3, #1
 3202 0090 18300BE5 		str	r3, [fp, #-24]
 3203              	.LVL11:
 3204              	.L4:
 3205 0094 88309FE5 		ldr	r3, .L9
 3206 0098 003093E5 		ldr	r3, [r3, #0]
 3207 009c 18201BE5 		ldr	r2, [fp, #-24]
 3208 00a0 030052E1 		cmp	r2, r3
 3209 00a4 F7FFFFBA 		blt	.L5
  43:../common/44blib.c **** 	for (; time>0; time--)
 3210              		.loc 1 43 0
 3211 00a8 10301BE5 		ldr	r3, [fp, #-16]
 3212 00ac 013043E2 		sub	r3, r3, #1
 3213 00b0 10300BE5 		str	r3, [fp, #-16]
 3214              	.LVL12:
 3215 00b4 000000EA 		b	.L3
 3216              	.LVL13:
 3217              	.L8:
  41:../common/44blib.c **** 		rWTCON = ((MCLK/1000000 - 1)<<8)|(2<<3)|(1<<5); // 1M/64,Watch-dog enable,nRESET,interrupt disabl
 3218              		.loc 1 41 0
 3219 00b8 0000A0E1 		mov	r0, r0	@ nop
 3220              	.LVL14:
 3221              	.L3:
  43:../common/44blib.c **** 	for (; time>0; time--)
 3222              		.loc 1 43 0
 3223 00bc 10301BE5 		ldr	r3, [fp, #-16]
 3224 00c0 000053E3 		cmp	r3, #0
 3225 00c4 ECFFFFCA 		bgt	.L6
  45:../common/44blib.c **** 	if (adjust == 1)
 3226              		.loc 1 45 0
 3227 00c8 14301BE5 		ldr	r3, [fp, #-20]
 3228 00cc 010053E3 		cmp	r3, #1
 3229 00d0 1000001A 		bne	.L1
  46:../common/44blib.c **** 	{
  47:../common/44blib.c **** 		rWTCON = ((MCLK/1000000 - 1)<<8)|(2<<3);
 3230              		.loc 1 47 0
 3231 00d4 4C309FE5 		ldr	r3, .L9+4
 3232 00d8 4C209FE5 		ldr	r2, .L9+8
 3233 00dc 002083E5 		str	r2, [r3, #0]
  48:../common/44blib.c **** 		i = 0xffff - rWTCNT;   //  1count/16us?????????//
 3234              		.loc 1 48 0
 3235 00e0 50309FE5 		ldr	r3, .L9+20
 3236 00e4 003093E5 		ldr	r3, [r3, #0]
 3237 00e8 FF3C63E2 		rsb	r3, r3, #65280
 3238 00ec FF3083E2 		add	r3, r3, #255
 3239 00f0 18300BE5 		str	r3, [fp, #-24]
 3240              	.LVL15:
  49:../common/44blib.c **** 		delayLoopCount = 8000000/(i*64);	//400*100/(i*64/200)   //
 3241              		.loc 1 49 0
 3242 00f4 18301BE5 		ldr	r3, [fp, #-24]
 3243 00f8 0333A0E1 		mov	r3, r3, asl #6
 3244              	.LVL16:
 3245 00fc 3C009FE5 		ldr	r0, .L9+28
 3246 0100 0310A0E1 		mov	r1, r3
 3247 0104 FEFFFFEB 		bl	__aeabi_idiv
 3248 0108 0030A0E1 		mov	r3, r0
 3249 010c 0320A0E1 		mov	r2, r3
 3250 0110 0C309FE5 		ldr	r3, .L9
 3251 0114 002083E5 		str	r2, [r3, #0]
 3252              	.LVL17:
 3253              	.L1:
  50:../common/44blib.c **** 	}
  51:../common/44blib.c **** }
 3254              		.loc 1 51 0
 3255 0118 0CD04BE2 		sub	sp, fp, #12
 3256 011c 00689DE8 		ldmfd	sp, {fp, sp, lr}
 3257 0120 1EFF2FE1 		bx	lr
 3258              	.L10:
 3259              		.align	2
 3260              	.L9:
 3261 0124 00000000 		.word	delayLoopCount
 3262 0128 0000D301 		.word	30605312
 3263 012c 103F0000 		.word	16144
 3264 0130 0400D301 		.word	30605316
 3265 0134 FFFF0000 		.word	65535
 3266 0138 0800D301 		.word	30605320
 3267 013c 303F0000 		.word	16176
 3268 0140 00127A00 		.word	8000000
 3269              		.cfi_endproc
 3270              	.LFE6:
 3272              		.align	2
 3273              		.global	Delay
 3275              	Delay:
 3276              	.LFB0:
  31:../common/44blib.c **** {
 3277              		.loc 1 31 0
 3278              		.cfi_startproc
 3279              		@ Function supports interworking.
 3280              		@ args = 0, pretend = 0, frame = 16
 3281              		@ frame_needed = 1, uses_anonymous_args = 0
 3282              	.LVL18:
 3283 0144 0DC0A0E1 		mov	ip, sp
 3284              	.LCFI2:
 3285              		.cfi_def_cfa_register 12
 3286 0148 00D82DE9 		stmfd	sp!, {fp, ip, lr, pc}
 3287 014c 04B04CE2 		sub	fp, ip, #4
 3288              		.cfi_offset 14, -8
 3289              		.cfi_offset 13, -12
 3290              		.cfi_offset 11, -16
 3291              	.LCFI3:
 3292              		.cfi_def_cfa 11, 4
 3293 0150 10D04DE2 		sub	sp, sp, #16
 3294 0154 18000BE5 		str	r0, [fp, #-24]
  32:../common/44blib.c **** 	int i,adjust = 0;
 3295              		.loc 1 32 0
 3296 0158 0030A0E3 		mov	r3, #0
 3297 015c 14300BE5 		str	r3, [fp, #-20]
 3298              	.LVL19:
  33:../common/44blib.c **** 	if (time == 0)
 3299              		.loc 1 33 0
 3300 0160 18301BE5 		ldr	r3, [fp, #-24]
 3301              	.LVL20:
 3302 0164 000053E3 		cmp	r3, #0
 3303 0168 2200001A 		bne	.L18
  35:../common/44blib.c **** 		time = 200;
 3304              		.loc 1 35 0
 3305 016c C830A0E3 		mov	r3, #200
 3306 0170 18300BE5 		str	r3, [fp, #-24]
 3307              	.LVL21:
  36:../common/44blib.c **** 		adjust = 1;
 3308              		.loc 1 36 0
 3309 0174 0130A0E3 		mov	r3, #1
 3310              	.LVL22:
 3311 0178 14300BE5 		str	r3, [fp, #-20]
 3312              	.LVL23:
  37:../common/44blib.c **** 		delayLoopCount = 400;
 3313              		.loc 1 37 0
 3314 017c E0309FE5 		ldr	r3, .L19
 3315              	.LVL24:
 3316 0180 192EA0E3 		mov	r2, #400
 3317 0184 002083E5 		str	r2, [r3, #0]
  38:../common/44blib.c **** 		rWTCON = ((MCLK/1000000 - 1)<<8) | (2<<3);	// 1M/64,Watch-dog,nRESET,interrupt disable//
 3318              		.loc 1 38 0
 3319 0188 D8309FE5 		ldr	r3, .L19+4
 3320 018c D8209FE5 		ldr	r2, .L19+8
 3321 0190 002083E5 		str	r2, [r3, #0]
  39:../common/44blib.c **** 		rWTDAT = 0xffff;
 3322              		.loc 1 39 0
 3323 0194 D4309FE5 		ldr	r3, .L19+12
 3324 0198 D4209FE5 		ldr	r2, .L19+16
 3325 019c 002083E5 		str	r2, [r3, #0]
  40:../common/44blib.c **** 		rWTCNT = 0xffff;
 3326              		.loc 1 40 0
 3327 01a0 D0309FE5 		ldr	r3, .L19+20
 3328 01a4 C8209FE5 		ldr	r2, .L19+16
 3329 01a8 002083E5 		str	r2, [r3, #0]
  41:../common/44blib.c **** 		rWTCON = ((MCLK/1000000 - 1)<<8)|(2<<3)|(1<<5); // 1M/64,Watch-dog enable,nRESET,interrupt disabl
 3330              		.loc 1 41 0
 3331 01ac B4309FE5 		ldr	r3, .L19+4
 3332 01b0 C4209FE5 		ldr	r2, .L19+24
 3333 01b4 002083E5 		str	r2, [r3, #0]
  43:../common/44blib.c **** 	for (; time>0; time--)
 3334              		.loc 1 43 0
 3335 01b8 0F0000EA 		b	.L13
 3336              	.LVL25:
 3337              	.L16:
  44:../common/44blib.c **** 		for (i = 0; i < delayLoopCount; i++);
 3338              		.loc 1 44 0
 3339 01bc 0030A0E3 		mov	r3, #0
 3340              	.LVL26:
 3341 01c0 10300BE5 		str	r3, [fp, #-16]
 3342              	.LVL27:
 3343 01c4 020000EA 		b	.L14
 3344              	.LVL28:
 3345              	.L15:
  44:../common/44blib.c **** 		for (i = 0; i < delayLoopCount; i++);
 3346              		.loc 1 44 0 is_stmt 0 discriminator 2
 3347 01c8 10301BE5 		ldr	r3, [fp, #-16]
 3348 01cc 013083E2 		add	r3, r3, #1
 3349 01d0 10300BE5 		str	r3, [fp, #-16]
 3350              	.LVL29:
 3351              	.L14:
  44:../common/44blib.c **** 		for (i = 0; i < delayLoopCount; i++);
 3352              		.loc 1 44 0 discriminator 1
 3353 01d4 88309FE5 		ldr	r3, .L19
 3354 01d8 003093E5 		ldr	r3, [r3, #0]
 3355 01dc 10201BE5 		ldr	r2, [fp, #-16]
 3356 01e0 030052E1 		cmp	r2, r3
 3357 01e4 F7FFFFBA 		blt	.L15
  43:../common/44blib.c **** 	for (; time>0; time--)
 3358              		.loc 1 43 0 is_stmt 1
 3359 01e8 18301BE5 		ldr	r3, [fp, #-24]
 3360 01ec 013043E2 		sub	r3, r3, #1
 3361 01f0 18300BE5 		str	r3, [fp, #-24]
 3362              	.LVL30:
 3363 01f4 000000EA 		b	.L13
 3364              	.LVL31:
 3365              	.L18:
 3366 01f8 0000A0E1 		mov	r0, r0	@ nop
 3367              	.LVL32:
 3368              	.L13:
  43:../common/44blib.c **** 	for (; time>0; time--)
 3369              		.loc 1 43 0 is_stmt 0 discriminator 1
 3370 01fc 18301BE5 		ldr	r3, [fp, #-24]
 3371 0200 000053E3 		cmp	r3, #0
 3372 0204 ECFFFFCA 		bgt	.L16
  45:../common/44blib.c **** 	if (adjust == 1)
 3373              		.loc 1 45 0 is_stmt 1
 3374 0208 14301BE5 		ldr	r3, [fp, #-20]
 3375 020c 010053E3 		cmp	r3, #1
 3376 0210 1000001A 		bne	.L11
  47:../common/44blib.c **** 		rWTCON = ((MCLK/1000000 - 1)<<8)|(2<<3);
 3377              		.loc 1 47 0
 3378 0214 4C309FE5 		ldr	r3, .L19+4
 3379 0218 4C209FE5 		ldr	r2, .L19+8
 3380 021c 002083E5 		str	r2, [r3, #0]
  48:../common/44blib.c **** 		i = 0xffff - rWTCNT;   //  1count/16us?????????//
 3381              		.loc 1 48 0
 3382 0220 50309FE5 		ldr	r3, .L19+20
 3383 0224 003093E5 		ldr	r3, [r3, #0]
 3384 0228 FF3C63E2 		rsb	r3, r3, #65280
 3385 022c FF3083E2 		add	r3, r3, #255
 3386 0230 10300BE5 		str	r3, [fp, #-16]
 3387              	.LVL33:
  49:../common/44blib.c **** 		delayLoopCount = 8000000/(i*64);	//400*100/(i*64/200)   //
 3388              		.loc 1 49 0
 3389 0234 10301BE5 		ldr	r3, [fp, #-16]
 3390 0238 0333A0E1 		mov	r3, r3, asl #6
 3391              	.LVL34:
 3392 023c 3C009FE5 		ldr	r0, .L19+28
 3393 0240 0310A0E1 		mov	r1, r3
 3394 0244 FEFFFFEB 		bl	__aeabi_idiv
 3395 0248 0030A0E1 		mov	r3, r0
 3396 024c 0320A0E1 		mov	r2, r3
 3397 0250 0C309FE5 		ldr	r3, .L19
 3398 0254 002083E5 		str	r2, [r3, #0]
 3399              	.LVL35:
 3400              	.L11:
 3401              		.loc 1 51 0
 3402 0258 0CD04BE2 		sub	sp, fp, #12
 3403 025c 00689DE8 		ldmfd	sp, {fp, sp, lr}
 3404 0260 1EFF2FE1 		bx	lr
 3405              	.L20:
 3406              		.align	2
 3407              	.L19:
 3408 0264 00000000 		.word	delayLoopCount
 3409 0268 0000D301 		.word	30605312
 3410 026c 103F0000 		.word	16144
 3411 0270 0400D301 		.word	30605316
 3412 0274 FFFF0000 		.word	65535
 3413 0278 0800D301 		.word	30605320
 3414 027c 303F0000 		.word	16176
 3415 0280 00127A00 		.word	8000000
 3416              		.cfi_endproc
 3417              	.LFE0:
 3419              		.align	2
 3420              		.global	DelayMs
 3422              	DelayMs:
 3423              	.LFB1:
  52:../common/44blib.c **** 
  53:../common/44blib.c **** void DelayMs(int ms_time)
  54:../common/44blib.c **** {
 3424              		.loc 1 54 0
 3425              		.cfi_startproc
 3426              		@ Function supports interworking.
 3427              		@ args = 0, pretend = 0, frame = 0
 3428              		@ frame_needed = 0, uses_anonymous_args = 0
 3429              		@ link register save eliminated.
 3430              	.LVL36:
  55:../common/44blib.c **** 	int i;
  56:../common/44blib.c **** 
  57:../common/44blib.c **** 	for (i = 0; i < 1000*ms_time ; i++)
  58:../common/44blib.c **** 		;
  59:../common/44blib.c **** }
 3431              		.loc 1 59 0
 3432 0284 1EFF2FE1 		bx	lr
 3433              		.cfi_endproc
 3434              	.LFE1:
 3436              		.align	2
 3437              		.global	Port_Init
 3439              	Port_Init:
 3440              	.LFB2:
  60:../common/44blib.c **** 
  61:../common/44blib.c **** //------------------------PORTS------------------------------//
  62:../common/44blib.c **** void Port_Init(void)
  63:../common/44blib.c **** {
 3441              		.loc 1 63 0
 3442              		.cfi_startproc
 3443              		@ Function supports interworking.
 3444              		@ args = 0, pretend = 0, frame = 0
 3445              		@ frame_needed = 0, uses_anonymous_args = 0
 3446              		@ link register save eliminated.
  64:../common/44blib.c **** 	//CAUTION:Follow the configuration order for setting the ports.
  65:../common/44blib.c **** 	// 1) setting value
  66:../common/44blib.c **** 	// 2) setting control register
  67:../common/44blib.c **** 	// 3) configure pull-up resistor.
  68:../common/44blib.c **** 
  69:../common/44blib.c **** 	//16bit data bus configuration
  70:../common/44blib.c **** 
  71:../common/44blib.c **** 	// PORT A GROUP
  72:../common/44blib.c **** 	// BIT 	9	8	7	6	5	4	3	2	1	0
  73:../common/44blib.c **** 	// 		A24	A23	A22	A21	A20	A19	A18	A17	A16	A0
  74:../common/44blib.c **** 	//		0	1	1	1	1	1	1	1	1	1
  75:../common/44blib.c **** 	rPCONA = 0x1ff;
 3447              		.loc 1 75 0
 3448 0288 9C309FE5 		ldr	r3, .L23
 3449 028c 9C009FE5 		ldr	r0, .L23+4
  76:../common/44blib.c **** 
  77:../common/44blib.c **** 	// PORT B GROUP
  78:../common/44blib.c **** 	// BIT 	10		9		8		7		6		5		4		3		2		1		0
  79:../common/44blib.c **** 	//		/CS5	/CS4	/CS3	/CS2	/CS1	GPB5	GPB4	/SRAS	/SCAS	SCLK	SCKE
  80:../common/44blib.c **** 	//		EXT		NIC		USB		IDE		SMC		NC		NC		Sdram	Sdram	Sdram	Sdram
  81:../common/44blib.c **** 	//      1, 		1,   	1,   	1,    	1,    	0,       0,     1,    	1,    	1,   	1
  82:../common/44blib.c **** 	rPDATB = 0x7ff;
 3450              		.loc 1 82 0
 3451 0290 9CC09FE5 		ldr	ip, .L23+8
  75:../common/44blib.c **** 	rPCONA = 0x1ff;
 3452              		.loc 1 75 0
 3453 0294 000083E5 		str	r0, [r3, #0]
 3454              		.loc 1 82 0
 3455 0298 0CC083E5 		str	ip, [r3, #12]
  83:../common/44blib.c **** 	rPCONB = 0x1cf;			// P9-LED1 P10-LED2
 3456              		.loc 1 83 0
 3457 029c 94C09FE5 		ldr	ip, .L23+12
 3458 02a0 08C083E5 		str	ip, [r3, #8]
  84:../common/44blib.c **** 
  85:../common/44blib.c **** 	// PORT C GROUP
  86:../common/44blib.c **** 	// BUSWIDTH=16
  87:../common/44blib.c **** 	//  PC15	14		13		12		11		10		9		8
  88:../common/44blib.c **** 	//	I		I		RXD1	TXD1	I		I		I		I
  89:../common/44blib.c **** 	//	NC		NC		Uart1	Uart1	NC		NC		NC		NC
  90:../common/44blib.c **** 	//	00		00		11		11		00		00		00		00
  91:../common/44blib.c **** 
  92:../common/44blib.c **** 	//  PC7		6		5		4		3		2		1		0
  93:../common/44blib.c **** 	//   I		I		I		I		I		I		I		I
  94:../common/44blib.c **** 	//   NC		NC		NC		NC		IISCLK	IISDI	IISDO	IISLRCK
  95:../common/44blib.c **** 	//   00		00		00		00		11		11		11		11
  96:../common/44blib.c **** 	rPDATC = 0xff00;
 3459              		.loc 1 96 0
 3460 02a4 FFCCA0E3 		mov	ip, #65280
 3461 02a8 14C083E5 		str	ip, [r3, #20]
  97:../common/44blib.c **** 	rPCONC = 0x0ff0ffff;
 3462              		.loc 1 97 0
 3463 02ac 88C09FE5 		ldr	ip, .L23+16
 3464 02b0 10C083E5 		str	ip, [r3, #16]
  98:../common/44blib.c **** 	rPUPC  = 0x30ff;	//PULL UP RESISTOR should be enabled to I/O
 3465              		.loc 1 98 0
 3466 02b4 84C09FE5 		ldr	ip, .L23+20
 3467 02b8 18C083E5 		str	ip, [r3, #24]
  99:../common/44blib.c **** 
 100:../common/44blib.c **** 	// PORT D GROUP
 101:../common/44blib.c **** 	// PORT D GROUP(I/O OR LCD)
 102:../common/44blib.c **** 	// BIT7		6		5		4		3		2		1		0
 103:../common/44blib.c **** 	//	VF		VM		VLINE	VCLK	VD3		VD2		VD1		VD0
 104:../common/44blib.c **** 	//	00		00		00		00		00		00		00		00
 105:../common/44blib.c **** 	rPDATD= 0xff;
 106:../common/44blib.c **** 	rPCOND= 0xaaaa;
 3468              		.loc 1 106 0
 3469 02bc 80C09FE5 		ldr	ip, .L23+24
 105:../common/44blib.c **** 	rPDATD= 0xff;
 3470              		.loc 1 105 0
 3471 02c0 FF10A0E3 		mov	r1, #255
 3472 02c4 201083E5 		str	r1, [r3, #32]
 107:../common/44blib.c **** 	rPUPD = 0x0;
 3473              		.loc 1 107 0
 3474 02c8 0020A0E3 		mov	r2, #0
 106:../common/44blib.c **** 	rPCOND= 0xaaaa;
 3475              		.loc 1 106 0
 3476 02cc 1CC083E5 		str	ip, [r3, #28]
 108:../common/44blib.c **** 	// These pins must be set only after CPU's internal LCD controller is enable
 109:../common/44blib.c **** 
 110:../common/44blib.c **** 	// PORT E GROUP
 111:../common/44blib.c **** 	// Bit	8		7		6		5		4		3		2		1		0
 112:../common/44blib.c **** 	//  	CODECLK	LED4	LED5	LED6	LED7	BEEP	RXD0	TXD0	LcdDisp
 113:../common/44blib.c **** 	//  	10		01		01		01		01		01		10		10		01
 114:../common/44blib.c **** 	rPDATE	= 0x1ff;
 115:../common/44blib.c **** 	rPCONE	= 0x25529;
 3477              		.loc 1 115 0
 3478 02d0 25CA80E2 		add	ip, r0, #151552
 107:../common/44blib.c **** 	rPUPD = 0x0;
 3479              		.loc 1 107 0
 3480 02d4 242083E5 		str	r2, [r3, #36]
 114:../common/44blib.c **** 	rPDATE	= 0x1ff;
 3481              		.loc 1 114 0
 3482 02d8 2C0083E5 		str	r0, [r3, #44]
 3483              		.loc 1 115 0
 3484 02dc CA0F8CE2 		add	r0, ip, #808
 3485 02e0 02C080E2 		add	ip, r0, #2
 3486 02e4 28C083E5 		str	ip, [r3, #40]
 116:../common/44blib.c **** 	rPUPE	= 0x6;
 3487              		.loc 1 116 0
 3488 02e8 0600A0E3 		mov	r0, #6
 117:../common/44blib.c **** 
 118:../common/44blib.c **** 	// PORT F GROUP
 119:../common/44blib.c **** 	// Bit8		7		6		5		 4		3		2		1		0
 120:../common/44blib.c **** 	// IISCLK	IISDI	IISDO	IISLRCK	Input	Input	Input	IICSDA	IICSCL
 121:../common/44blib.c **** 	// 100		100		100		100		00		00		00		10		10
 122:../common/44blib.c **** 	rPDATF = 0x0;
 123:../common/44blib.c **** 	rPCONF = 0x252a;
 3489              		.loc 1 123 0
 3490 02ec 54C09FE5 		ldr	ip, .L23+28
 116:../common/44blib.c **** 	rPUPE	= 0x6;
 3491              		.loc 1 116 0
 3492 02f0 300083E5 		str	r0, [r3, #48]
 124:../common/44blib.c **** 	rPUPF  = 0x0;
 125:../common/44blib.c **** 
 126:../common/44blib.c **** 	// PORT G GROUP
 127:../common/44blib.c **** 	// BIT7		6		5		4		3		2		1		0
 128:../common/44blib.c **** 	// 	INT7	INT6	INT5	INT4	INT3	INT2	INT1	INT0
 129:../common/44blib.c **** 	//	S3		S4		S5		S6		NIC		EXT		IDE		USB
 130:../common/44blib.c **** 	//	11      11      11      11      11      11      11      11
 131:../common/44blib.c **** 	rPDATG = 0xff;
 132:../common/44blib.c **** 	rPCONG = 0xffff;
 3493              		.loc 1 132 0
 3494 02f4 FF0C81E2 		add	r0, r1, #65280
 122:../common/44blib.c **** 	rPDATF = 0x0;
 3495              		.loc 1 122 0
 3496 02f8 382083E5 		str	r2, [r3, #56]
 123:../common/44blib.c **** 	rPCONF = 0x252a;
 3497              		.loc 1 123 0
 3498 02fc 34C083E5 		str	ip, [r3, #52]
 124:../common/44blib.c **** 	rPUPF  = 0x0;
 3499              		.loc 1 124 0
 3500 0300 3C2083E5 		str	r2, [r3, #60]
 131:../common/44blib.c **** 	rPDATG = 0xff;
 3501              		.loc 1 131 0
 3502 0304 441083E5 		str	r1, [r3, #68]
 3503              		.loc 1 132 0
 3504 0308 400083E5 		str	r0, [r3, #64]
 133:../common/44blib.c **** 	rPUPG  = 0x0;		//pull-up portG enabled
 134:../common/44blib.c **** 	rSPUCR = 0x7;  		//D15-D0 pull-up disable
 135:../common/44blib.c **** 
 136:../common/44blib.c **** 	/* Non Cache area */
 137:../common/44blib.c **** 	rNCACHBE0 = ((Non_Cache_End>>12)<<16) | (Non_Cache_Start>>12);
 3505              		.loc 1 137 0
 3506 030c 38009FE5 		ldr	r0, .L23+32
 134:../common/44blib.c **** 	rSPUCR = 0x7;  		//D15-D0 pull-up disable
 3507              		.loc 1 134 0
 3508 0310 07C0A0E3 		mov	ip, #7
 3509              		.loc 1 137 0
 3510 0314 0715A0E3 		mov	r1, #29360128
 133:../common/44blib.c **** 	rPUPG  = 0x0;		//pull-up portG enabled
 3511              		.loc 1 133 0
 3512 0318 482083E5 		str	r2, [r3, #72]
 134:../common/44blib.c **** 	rSPUCR = 0x7;  		//D15-D0 pull-up disable
 3513              		.loc 1 134 0
 3514 031c 4CC083E5 		str	ip, [r3, #76]
 3515              		.loc 1 137 0
 3516 0320 040081E5 		str	r0, [r1, #4]
 138:../common/44blib.c **** 
 139:../common/44blib.c **** 	/* Low level default */
 140:../common/44blib.c **** 	rEXTINT = 0x0;
 3517              		.loc 1 140 0
 3518 0324 502083E5 		str	r2, [r3, #80]
 141:../common/44blib.c **** }
 3519              		.loc 1 141 0
 3520 0328 1EFF2FE1 		bx	lr
 3521              	.L24:
 3522              		.align	2
 3523              	.L23:
 3524 032c 0000D201 		.word	30539776
 3525 0330 FF010000 		.word	511
 3526 0334 FF070000 		.word	2047
 3527 0338 CF010000 		.word	463
 3528 033c FFFFF00F 		.word	267452415
 3529 0340 FF300000 		.word	12543
 3530 0344 AAAA0000 		.word	43690
 3531 0348 2A250000 		.word	9514
 3532 034c 002000C0 		.word	-1073733632
 3533              		.cfi_endproc
 3534              	.LFE2:
 3536              		.align	2
 3537              		.global	malloc
 3539              	malloc:
 3540              	.LFB3:
 142:../common/44blib.c **** 
 143:../common/44blib.c **** 
 144:../common/44blib.c **** //--------------------------------HEAP---------------------------------//
 145:../common/44blib.c **** void *malloc(unsigned nbyte)
 146:../common/44blib.c **** /* Very simple; Use malloc() & free() like Stack */
 147:../common/44blib.c **** // void *mallocPt=Image$$RW$$Limit;
 148:../common/44blib.c **** {
 3541              		.loc 1 148 0
 3542              		.cfi_startproc
 3543              		@ Function supports interworking.
 3544              		@ args = 0, pretend = 0, frame = 0
 3545              		@ frame_needed = 0, uses_anonymous_args = 0
 3546              		@ link register save eliminated.
 3547              	.LVL37:
 149:../common/44blib.c **** 	void *returnPt = mallocPt;
 3548              		.loc 1 149 0
 3549 0350 2C109FE5 		ldr	r1, .L27
 150:../common/44blib.c **** 
 151:../common/44blib.c **** 	mallocPt = (int *) mallocPt +nbyte/4 + ((nbyte%4)>0); //to align 4byte
 3550              		.loc 1 151 0
 3551 0354 033010E2 		ands	r3, r0, #3
 149:../common/44blib.c **** 	void *returnPt = mallocPt;
 3552              		.loc 1 149 0
 3553 0358 002091E5 		ldr	r2, [r1, #0]
 3554              	.LVL38:
 3555              		.loc 1 151 0
 3556 035c 0130A013 		movne	r3, #1
 3557 0360 20C183E0 		add	ip, r3, r0, lsr #2
 152:../common/44blib.c **** 
 153:../common/44blib.c **** 	if ((int)mallocPt > HEAPEND)
 3558              		.loc 1 153 0
 3559 0364 1C009FE5 		ldr	r0, .L27+4
 3560              	.LVL39:
 151:../common/44blib.c **** 	mallocPt = (int *) mallocPt +nbyte/4 + ((nbyte%4)>0); //to align 4byte
 3561              		.loc 1 151 0
 3562 0368 0C3182E0 		add	r3, r2, ip, asl #2
 3563              		.loc 1 153 0
 3564 036c 000053E1 		cmp	r3, r0
 151:../common/44blib.c **** 	mallocPt = (int *) mallocPt +nbyte/4 + ((nbyte%4)>0); //to align 4byte
 3565              		.loc 1 151 0
 3566 0370 003081E5 		str	r3, [r1, #0]
 154:../common/44blib.c **** 	{
 155:../common/44blib.c **** 		mallocPt = returnPt;
 3567              		.loc 1 155 0
 3568 0374 002081C5 		strgt	r2, [r1, #0]
 156:../common/44blib.c **** 		return NULL;
 3569              		.loc 1 156 0
 3570 0378 0020A0C3 		movgt	r2, #0
 157:../common/44blib.c **** 	}
 158:../common/44blib.c **** 	return returnPt;
 159:../common/44blib.c **** }
 3571              		.loc 1 159 0
 3572 037c 0200A0E1 		mov	r0, r2
 3573 0380 1EFF2FE1 		bx	lr
 3574              	.L28:
 3575              		.align	2
 3576              	.L27:
 3577 0384 04000000 		.word	.LANCHOR0
 3578 0388 00F07F0C 		.word	209711104
 3579              		.cfi_endproc
 3580              	.LFE3:
 3582              		.align	2
 3583              		.global	free
 3585              	free:
 3586              	.LFB4:
 160:../common/44blib.c **** 
 161:../common/44blib.c **** void free(void *pt)
 162:../common/44blib.c **** {
 3587              		.loc 1 162 0
 3588              		.cfi_startproc
 3589              		@ Function supports interworking.
 3590              		@ args = 0, pretend = 0, frame = 0
 3591              		@ frame_needed = 0, uses_anonymous_args = 0
 3592              		@ link register save eliminated.
 3593              	.LVL40:
 163:../common/44blib.c **** 	mallocPt = pt;
 3594              		.loc 1 163 0
 3595 038c 04309FE5 		ldr	r3, .L30
 3596 0390 000083E5 		str	r0, [r3, #0]
 164:../common/44blib.c **** }
 3597              		.loc 1 164 0
 3598 0394 1EFF2FE1 		bx	lr
 3599              	.L31:
 3600              		.align	2
 3601              	.L30:
 3602 0398 04000000 		.word	.LANCHOR0
 3603              		.cfi_endproc
 3604              	.LFE4:
 3606              		.align	2
 3607              		.global	sys_init
 3609              	sys_init:
 3610              	.LFB5:
 165:../common/44blib.c **** 
 166:../common/44blib.c **** //--------------------------------INIT---------------------------------//
 167:../common/44blib.c **** void sys_init()// Interrupt & Port
 168:../common/44blib.c **** {
 3611              		.loc 1 168 0
 3612              		.cfi_startproc
 3613              		@ Function supports interworking.
 3614              		@ args = 0, pretend = 0, frame = 0
 3615              		@ frame_needed = 1, uses_anonymous_args = 0
 3616 039c 0DC0A0E1 		mov	ip, sp
 3617              	.LCFI4:
 3618              		.cfi_def_cfa_register 12
 169:../common/44blib.c **** 	/* enable interrupt */
 170:../common/44blib.c **** 	rINTMOD = 0x0;
 171:../common/44blib.c **** 	rINTCON = 0x1;
 172:../common/44blib.c **** 	rI_ISPC = 0xffffffff;			// clear all interrupt pend
 173:../common/44blib.c **** 	rEXTINTPND = 0xf;				// clear EXTINTPND reg
 3619              		.loc 1 173 0
 3620 03a0 44009FE5 		ldr	r0, .L33
 168:../common/44blib.c **** {
 3621              		.loc 1 168 0
 3622 03a4 18D82DE9 		stmfd	sp!, {r3, r4, fp, ip, lr, pc}
 172:../common/44blib.c **** 	rI_ISPC = 0xffffffff;			// clear all interrupt pend
 3623              		.loc 1 172 0
 3624 03a8 0010E0E3 		mvn	r1, #0
 170:../common/44blib.c **** 	rINTMOD = 0x0;
 3625              		.loc 1 170 0
 3626 03ac 1E46A0E3 		mov	r4, #31457280
 3627              		.cfi_offset 14, -8
 3628              		.cfi_offset 13, -12
 3629              		.cfi_offset 11, -16
 3630              		.cfi_offset 4, -20
 3631              		.cfi_offset 3, -24
 168:../common/44blib.c **** {
 3632              		.loc 1 168 0
 3633 03b0 04B04CE2 		sub	fp, ip, #4
 3634              	.LCFI5:
 3635              		.cfi_def_cfa 11, 4
 170:../common/44blib.c **** 	rINTMOD = 0x0;
 3636              		.loc 1 170 0
 3637 03b4 00E0A0E3 		mov	lr, #0
 171:../common/44blib.c **** 	rINTCON = 0x1;
 3638              		.loc 1 171 0
 3639 03b8 01C0A0E3 		mov	ip, #1
 3640              		.loc 1 173 0
 3641 03bc 0F20A0E3 		mov	r2, #15
 170:../common/44blib.c **** 	rINTMOD = 0x0;
 3642              		.loc 1 170 0
 3643 03c0 08E084E5 		str	lr, [r4, #8]
 171:../common/44blib.c **** 	rINTCON = 0x1;
 3644              		.loc 1 171 0
 3645 03c4 00C084E5 		str	ip, [r4, #0]
 172:../common/44blib.c **** 	rI_ISPC = 0xffffffff;			// clear all interrupt pend
 3646              		.loc 1 172 0
 3647 03c8 241084E5 		str	r1, [r4, #36]
 3648              		.loc 1 173 0
 3649 03cc 542080E5 		str	r2, [r0, #84]
 174:../common/44blib.c **** 	Port_Init();					// Initial 44B0X's I/O port
 3650              		.loc 1 174 0
 3651 03d0 FEFFFFEB 		bl	Port_Init
 175:../common/44blib.c **** 	Delay(0);						// delay time
 3652              		.loc 1 175 0
 3653 03d4 09FFFFEB 		bl	Delay.clone.0
 176:../common/44blib.c **** 	rINTMSK = ~(BIT_GLOBAL);  		//enable interrupt mask vector
 3654              		.loc 1 176 0
 3655 03d8 0133E0E3 		mvn	r3, #67108864
 3656 03dc 0C3084E5 		str	r3, [r4, #12]
 177:../common/44blib.c **** }
 3657              		.loc 1 177 0
 3658 03e0 14D04BE2 		sub	sp, fp, #20
 3659 03e4 18689DE8 		ldmfd	sp, {r3, r4, fp, sp, lr}
 3660 03e8 1EFF2FE1 		bx	lr
 3661              	.L34:
 3662              		.align	2
 3663              	.L33:
 3664 03ec 0000D201 		.word	30539776
 3665              		.cfi_endproc
 3666              	.LFE5:
 3668              		.global	mallocPt
 3669              		.global	restart
 3670              		.global	run
 3671              		.comm	downPt,4,4
 3672              		.comm	fileSize,4,4
 3673              		.data
 3674              		.align	2
 3677              	delayLoopCount:
 3678 0000 90010000 		.word	400
 3679              		.align	2
 3680              		.set	.LANCHOR0,. + 0
 3683              	mallocPt:
 3684 0004 00000000 		.word	Image_RW_Limit
 3687              	run:
 3688 0008 0000000C 		.word	201326592
 3689              		.bss
 3690              		.align	2
 3693              	restart:
 3694 0000 00000000 		.space	4
 3695              		.text
 3696              	.Letext0: