   1              		.cpu arm7tdmi
   2              		.fpu softvfp
   3              		.eabi_attribute 20, 1
   4              		.eabi_attribute 21, 1
   5              		.eabi_attribute 23, 3
   6              		.eabi_attribute 24, 1
   7              		.eabi_attribute 25, 1
   8              		.eabi_attribute 26, 1
   9              		.eabi_attribute 30, 2
  10              		.eabi_attribute 18, 4
  11              		.file	"elementos_pantalla.c"
  21              	.Ltext0:
  22              		.file 1 "../elementos_pantalla.c"
 1232              		.align	2
 1233              		.global	pintar_cuadricula
 1235              	pintar_cuadricula:
 1236              	.LFB0:
   1:../elementos_pantalla.c **** /*********************************************************************************************
   2:../elementos_pantalla.c **** * File: 	elementos_pantalla.h
   3:../elementos_pantalla.c **** * Author:	Fernando Peña Bes (756012) y Pedro José Pérez García (756642)
   4:../elementos_pantalla.c **** * Descrip:	Colección de funciones y variables que permiten dibujar en el LCD las pantallas
   5:../elementos_pantalla.c **** * 			que corresponden a la ejecución del juego reversi8 en la placa.
   6:../elementos_pantalla.c **** * History:	A long time ago, in galaxy a far away...
   7:../elementos_pantalla.c **** *********************************************************************************************/
   8:../elementos_pantalla.c **** #include "lcd.h"
   9:../elementos_pantalla.c **** #include "elementos_pantalla.h"
  10:../elementos_pantalla.c **** #include "funciones_itoa.h"
  11:../elementos_pantalla.c **** #include "Bmp.h"
  12:../elementos_pantalla.c **** 
  13:../elementos_pantalla.c **** 
  14:../elementos_pantalla.c **** //Fichas
  15:../elementos_pantalla.c **** 
  16:../elementos_pantalla.c **** // Ficha blanca
  17:../elementos_pantalla.c **** const INT8U fichaBlancaMap[] = {
  18:../elementos_pantalla.c **** WHITE,WHITE,WHITE,WHITE,WHITE,WHITE,WHITE,WHITE,WHITE,BLACK,BLACK,BLACK,BLACK,BLACK,BLACK,WHITE,WHI
  19:../elementos_pantalla.c **** WHITE,WHITE,WHITE,WHITE,WHITE,WHITE,BLACK,BLACK,BLACK,WHITE,WHITE,WHITE,WHITE,WHITE,WHITE,BLACK,BLA
  20:../elementos_pantalla.c **** WHITE,WHITE,WHITE,WHITE,WHITE,BLACK,WHITE,WHITE,WHITE,WHITE,WHITE,WHITE,WHITE,WHITE,WHITE,WHITE,WHI
  21:../elementos_pantalla.c **** WHITE,WHITE,WHITE,WHITE,BLACK,WHITE,WHITE,WHITE,WHITE,WHITE,WHITE,WHITE,WHITE,WHITE,WHITE,WHITE,WHI
  22:../elementos_pantalla.c **** WHITE,WHITE,WHITE,BLACK,WHITE,WHITE,WHITE,WHITE,WHITE,WHITE,WHITE,WHITE,WHITE,WHITE,WHITE,WHITE,WHI
  23:../elementos_pantalla.c **** WHITE,WHITE,BLACK,WHITE,WHITE,WHITE,WHITE,WHITE,WHITE,WHITE,WHITE,WHITE,WHITE,WHITE,WHITE,WHITE,WHI
  24:../elementos_pantalla.c **** WHITE,BLACK,WHITE,WHITE,WHITE,WHITE,WHITE,WHITE,WHITE,WHITE,WHITE,WHITE,WHITE,WHITE,WHITE,WHITE,WHI
  25:../elementos_pantalla.c **** WHITE,BLACK,WHITE,WHITE,WHITE,WHITE,WHITE,WHITE,WHITE,WHITE,WHITE,WHITE,WHITE,WHITE,WHITE,WHITE,WHI
  26:../elementos_pantalla.c **** WHITE,BLACK,WHITE,WHITE,WHITE,WHITE,WHITE,WHITE,WHITE,WHITE,WHITE,WHITE,WHITE,WHITE,WHITE,WHITE,WHI
  27:../elementos_pantalla.c **** BLACK,WHITE,WHITE,WHITE,WHITE,WHITE,WHITE,WHITE,WHITE,WHITE,WHITE,WHITE,WHITE,WHITE,WHITE,WHITE,WHI
  28:../elementos_pantalla.c **** BLACK,WHITE,WHITE,WHITE,WHITE,WHITE,WHITE,WHITE,WHITE,WHITE,WHITE,WHITE,WHITE,WHITE,WHITE,WHITE,WHI
  29:../elementos_pantalla.c **** BLACK,WHITE,WHITE,WHITE,WHITE,WHITE,WHITE,WHITE,WHITE,WHITE,WHITE,WHITE,WHITE,WHITE,WHITE,WHITE,WHI
  30:../elementos_pantalla.c **** BLACK,WHITE,WHITE,WHITE,WHITE,WHITE,WHITE,WHITE,WHITE,WHITE,WHITE,WHITE,WHITE,WHITE,WHITE,WHITE,WHI
  31:../elementos_pantalla.c **** BLACK,WHITE,WHITE,WHITE,WHITE,WHITE,WHITE,WHITE,WHITE,WHITE,WHITE,WHITE,WHITE,WHITE,WHITE,WHITE,WHI
  32:../elementos_pantalla.c **** BLACK,WHITE,WHITE,WHITE,WHITE,WHITE,WHITE,WHITE,WHITE,WHITE,WHITE,WHITE,WHITE,WHITE,WHITE,WHITE,WHI
  33:../elementos_pantalla.c **** WHITE,BLACK,WHITE,WHITE,WHITE,WHITE,WHITE,WHITE,WHITE,WHITE,WHITE,WHITE,WHITE,WHITE,WHITE,WHITE,WHI
  34:../elementos_pantalla.c **** WHITE,BLACK,WHITE,WHITE,WHITE,WHITE,WHITE,WHITE,WHITE,WHITE,WHITE,WHITE,WHITE,WHITE,WHITE,WHITE,WHI
  35:../elementos_pantalla.c **** WHITE,BLACK,WHITE,WHITE,WHITE,WHITE,WHITE,WHITE,WHITE,WHITE,WHITE,WHITE,WHITE,WHITE,WHITE,WHITE,WHI
  36:../elementos_pantalla.c **** WHITE,WHITE,BLACK,WHITE,WHITE,WHITE,WHITE,WHITE,WHITE,WHITE,WHITE,WHITE,WHITE,WHITE,WHITE,WHITE,WHI
  37:../elementos_pantalla.c **** WHITE,WHITE,WHITE,BLACK,WHITE,WHITE,WHITE,WHITE,WHITE,WHITE,WHITE,WHITE,WHITE,WHITE,WHITE,WHITE,WHI
  38:../elementos_pantalla.c **** WHITE,WHITE,WHITE,WHITE,BLACK,WHITE,WHITE,WHITE,WHITE,WHITE,WHITE,WHITE,WHITE,WHITE,WHITE,WHITE,WHI
  39:../elementos_pantalla.c **** WHITE,WHITE,WHITE,WHITE,WHITE,BLACK,WHITE,WHITE,WHITE,WHITE,WHITE,WHITE,WHITE,WHITE,WHITE,WHITE,WHI
  40:../elementos_pantalla.c **** WHITE,WHITE,WHITE,WHITE,WHITE,WHITE,BLACK,BLACK,BLACK,WHITE,WHITE,WHITE,WHITE,WHITE,WHITE,BLACK,BLA
  41:../elementos_pantalla.c **** WHITE,WHITE,WHITE,WHITE,WHITE,WHITE,WHITE,WHITE,WHITE,BLACK,BLACK,BLACK,BLACK,BLACK,BLACK,WHITE,WHI
  42:../elementos_pantalla.c **** };
  43:../elementos_pantalla.c **** STRU_BITMAP Stru_Bitmap_fichaBlanca = {0x10, 4, 24, 24, TRANSPARENCY, (INT8U *)fichaBlancaMap};
  44:../elementos_pantalla.c **** 
  45:../elementos_pantalla.c **** 
  46:../elementos_pantalla.c **** // Ficha negra
  47:../elementos_pantalla.c **** const INT8U fichaNegraMap[] = {
  48:../elementos_pantalla.c **** WHITE,WHITE,WHITE,WHITE,WHITE,WHITE,WHITE,WHITE,WHITE,BLACK,BLACK,BLACK,BLACK,BLACK,BLACK,WHITE,WHI
  49:../elementos_pantalla.c **** WHITE,WHITE,WHITE,WHITE,WHITE,WHITE,BLACK,BLACK,BLACK,BLACK,BLACK,BLACK,BLACK,BLACK,BLACK,BLACK,BLA
  50:../elementos_pantalla.c **** WHITE,WHITE,WHITE,WHITE,WHITE,BLACK,BLACK,BLACK,BLACK,BLACK,BLACK,BLACK,BLACK,BLACK,BLACK,BLACK,BLA
  51:../elementos_pantalla.c **** WHITE,WHITE,WHITE,WHITE,BLACK,BLACK,BLACK,BLACK,BLACK,BLACK,BLACK,BLACK,BLACK,BLACK,BLACK,BLACK,BLA
  52:../elementos_pantalla.c **** WHITE,WHITE,WHITE,BLACK,BLACK,BLACK,BLACK,BLACK,BLACK,BLACK,BLACK,BLACK,BLACK,BLACK,BLACK,BLACK,BLA
  53:../elementos_pantalla.c **** WHITE,WHITE,BLACK,BLACK,BLACK,BLACK,BLACK,BLACK,BLACK,BLACK,BLACK,BLACK,BLACK,BLACK,BLACK,BLACK,BLA
  54:../elementos_pantalla.c **** WHITE,BLACK,BLACK,BLACK,BLACK,BLACK,BLACK,BLACK,BLACK,BLACK,BLACK,BLACK,BLACK,BLACK,BLACK,BLACK,BLA
  55:../elementos_pantalla.c **** WHITE,BLACK,BLACK,BLACK,BLACK,BLACK,BLACK,BLACK,BLACK,BLACK,BLACK,BLACK,BLACK,BLACK,BLACK,BLACK,BLA
  56:../elementos_pantalla.c **** WHITE,BLACK,BLACK,BLACK,BLACK,BLACK,BLACK,BLACK,BLACK,BLACK,BLACK,BLACK,BLACK,BLACK,BLACK,BLACK,BLA
  57:../elementos_pantalla.c **** BLACK,BLACK,BLACK,BLACK,BLACK,BLACK,BLACK,BLACK,BLACK,BLACK,BLACK,BLACK,BLACK,BLACK,BLACK,BLACK,BLA
  58:../elementos_pantalla.c **** BLACK,BLACK,BLACK,BLACK,BLACK,BLACK,BLACK,BLACK,BLACK,BLACK,BLACK,BLACK,BLACK,BLACK,BLACK,BLACK,BLA
  59:../elementos_pantalla.c **** BLACK,BLACK,BLACK,BLACK,BLACK,BLACK,BLACK,BLACK,BLACK,BLACK,BLACK,BLACK,BLACK,BLACK,BLACK,BLACK,BLA
  60:../elementos_pantalla.c **** BLACK,BLACK,BLACK,BLACK,BLACK,BLACK,BLACK,BLACK,BLACK,BLACK,BLACK,BLACK,BLACK,BLACK,BLACK,BLACK,BLA
  61:../elementos_pantalla.c **** BLACK,BLACK,BLACK,BLACK,BLACK,BLACK,BLACK,BLACK,BLACK,BLACK,BLACK,BLACK,BLACK,BLACK,BLACK,BLACK,BLA
  62:../elementos_pantalla.c **** BLACK,BLACK,BLACK,BLACK,BLACK,BLACK,BLACK,BLACK,BLACK,BLACK,BLACK,BLACK,BLACK,BLACK,BLACK,BLACK,BLA
  63:../elementos_pantalla.c **** WHITE,BLACK,BLACK,BLACK,BLACK,BLACK,BLACK,BLACK,BLACK,BLACK,BLACK,BLACK,BLACK,BLACK,BLACK,BLACK,BLA
  64:../elementos_pantalla.c **** WHITE,BLACK,BLACK,BLACK,BLACK,BLACK,BLACK,BLACK,BLACK,BLACK,BLACK,BLACK,BLACK,BLACK,BLACK,BLACK,BLA
  65:../elementos_pantalla.c **** WHITE,BLACK,BLACK,BLACK,BLACK,BLACK,BLACK,BLACK,BLACK,BLACK,BLACK,BLACK,BLACK,BLACK,BLACK,BLACK,BLA
  66:../elementos_pantalla.c **** WHITE,WHITE,BLACK,BLACK,BLACK,BLACK,BLACK,BLACK,BLACK,BLACK,BLACK,BLACK,BLACK,BLACK,BLACK,BLACK,BLA
  67:../elementos_pantalla.c **** WHITE,WHITE,WHITE,BLACK,BLACK,BLACK,BLACK,BLACK,BLACK,BLACK,BLACK,BLACK,BLACK,BLACK,BLACK,BLACK,BLA
  68:../elementos_pantalla.c **** WHITE,WHITE,WHITE,WHITE,BLACK,BLACK,BLACK,BLACK,BLACK,BLACK,BLACK,BLACK,BLACK,BLACK,BLACK,BLACK,BLA
  69:../elementos_pantalla.c **** WHITE,WHITE,WHITE,WHITE,WHITE,BLACK,BLACK,BLACK,BLACK,BLACK,BLACK,BLACK,BLACK,BLACK,BLACK,BLACK,BLA
  70:../elementos_pantalla.c **** WHITE,WHITE,WHITE,WHITE,WHITE,WHITE,BLACK,BLACK,BLACK,BLACK,BLACK,BLACK,BLACK,BLACK,BLACK,BLACK,BLA
  71:../elementos_pantalla.c **** WHITE,WHITE,WHITE,WHITE,WHITE,WHITE,WHITE,WHITE,WHITE,BLACK,BLACK,BLACK,BLACK,BLACK,BLACK,WHITE,WHI
  72:../elementos_pantalla.c **** };
  73:../elementos_pantalla.c **** STRU_BITMAP Stru_Bitmap_fichaNegra = {0x10, 4, 24, 24, TRANSPARENCY, (INT8U *)fichaNegraMap};
  74:../elementos_pantalla.c **** 
  75:../elementos_pantalla.c **** // ficha gris
  76:../elementos_pantalla.c **** const INT8U fichaGrisMap[] = {
  77:../elementos_pantalla.c **** WHITE,WHITE,WHITE,WHITE,WHITE,WHITE,WHITE,WHITE,WHITE,LIGHTGRAY,LIGHTGRAY,LIGHTGRAY,LIGHTGRAY,LIGHT
  78:../elementos_pantalla.c **** WHITE,WHITE,WHITE,WHITE,WHITE,WHITE,LIGHTGRAY,LIGHTGRAY,LIGHTGRAY,LIGHTGRAY,LIGHTGRAY,LIGHTGRAY,LIG
  79:../elementos_pantalla.c **** WHITE,WHITE,WHITE,WHITE,WHITE,LIGHTGRAY,LIGHTGRAY,LIGHTGRAY,LIGHTGRAY,LIGHTGRAY,LIGHTGRAY,LIGHTGRAY
  80:../elementos_pantalla.c **** WHITE,WHITE,WHITE,WHITE,LIGHTGRAY,LIGHTGRAY,LIGHTGRAY,LIGHTGRAY,LIGHTGRAY,LIGHTGRAY,LIGHTGRAY,LIGHT
  81:../elementos_pantalla.c **** WHITE,WHITE,WHITE,LIGHTGRAY,LIGHTGRAY,LIGHTGRAY,LIGHTGRAY,LIGHTGRAY,LIGHTGRAY,LIGHTGRAY,LIGHTGRAY,L
  82:../elementos_pantalla.c **** WHITE,WHITE,LIGHTGRAY,LIGHTGRAY,LIGHTGRAY,LIGHTGRAY,LIGHTGRAY,LIGHTGRAY,LIGHTGRAY,LIGHTGRAY,LIGHTGR
  83:../elementos_pantalla.c **** WHITE,LIGHTGRAY,LIGHTGRAY,LIGHTGRAY,LIGHTGRAY,LIGHTGRAY,LIGHTGRAY,LIGHTGRAY,LIGHTGRAY,LIGHTGRAY,LIG
  84:../elementos_pantalla.c **** WHITE,LIGHTGRAY,LIGHTGRAY,LIGHTGRAY,LIGHTGRAY,LIGHTGRAY,LIGHTGRAY,LIGHTGRAY,LIGHTGRAY,LIGHTGRAY,LIG
  85:../elementos_pantalla.c **** WHITE,LIGHTGRAY,LIGHTGRAY,LIGHTGRAY,LIGHTGRAY,LIGHTGRAY,LIGHTGRAY,LIGHTGRAY,LIGHTGRAY,LIGHTGRAY,LIG
  86:../elementos_pantalla.c **** LIGHTGRAY,LIGHTGRAY,LIGHTGRAY,LIGHTGRAY,LIGHTGRAY,LIGHTGRAY,LIGHTGRAY,LIGHTGRAY,LIGHTGRAY,LIGHTGRAY
  87:../elementos_pantalla.c **** LIGHTGRAY,LIGHTGRAY,LIGHTGRAY,LIGHTGRAY,LIGHTGRAY,LIGHTGRAY,LIGHTGRAY,LIGHTGRAY,LIGHTGRAY,LIGHTGRAY
  88:../elementos_pantalla.c **** LIGHTGRAY,LIGHTGRAY,LIGHTGRAY,LIGHTGRAY,LIGHTGRAY,LIGHTGRAY,LIGHTGRAY,LIGHTGRAY,LIGHTGRAY,LIGHTGRAY
  89:../elementos_pantalla.c **** LIGHTGRAY,LIGHTGRAY,LIGHTGRAY,LIGHTGRAY,LIGHTGRAY,LIGHTGRAY,LIGHTGRAY,LIGHTGRAY,LIGHTGRAY,LIGHTGRAY
  90:../elementos_pantalla.c **** LIGHTGRAY,LIGHTGRAY,LIGHTGRAY,LIGHTGRAY,LIGHTGRAY,LIGHTGRAY,LIGHTGRAY,LIGHTGRAY,LIGHTGRAY,LIGHTGRAY
  91:../elementos_pantalla.c **** LIGHTGRAY,LIGHTGRAY,LIGHTGRAY,LIGHTGRAY,LIGHTGRAY,LIGHTGRAY,LIGHTGRAY,LIGHTGRAY,LIGHTGRAY,LIGHTGRAY
  92:../elementos_pantalla.c **** WHITE,LIGHTGRAY,LIGHTGRAY,LIGHTGRAY,LIGHTGRAY,LIGHTGRAY,LIGHTGRAY,LIGHTGRAY,LIGHTGRAY,LIGHTGRAY,LIG
  93:../elementos_pantalla.c **** WHITE,LIGHTGRAY,LIGHTGRAY,LIGHTGRAY,LIGHTGRAY,LIGHTGRAY,LIGHTGRAY,LIGHTGRAY,LIGHTGRAY,LIGHTGRAY,LIG
  94:../elementos_pantalla.c **** WHITE,LIGHTGRAY,LIGHTGRAY,LIGHTGRAY,LIGHTGRAY,LIGHTGRAY,LIGHTGRAY,LIGHTGRAY,LIGHTGRAY,LIGHTGRAY,LIG
  95:../elementos_pantalla.c **** WHITE,WHITE,LIGHTGRAY,LIGHTGRAY,LIGHTGRAY,LIGHTGRAY,LIGHTGRAY,LIGHTGRAY,LIGHTGRAY,LIGHTGRAY,LIGHTGR
  96:../elementos_pantalla.c **** WHITE,WHITE,WHITE,LIGHTGRAY,LIGHTGRAY,LIGHTGRAY,LIGHTGRAY,LIGHTGRAY,LIGHTGRAY,LIGHTGRAY,LIGHTGRAY,L
  97:../elementos_pantalla.c **** WHITE,WHITE,WHITE,WHITE,LIGHTGRAY,LIGHTGRAY,LIGHTGRAY,LIGHTGRAY,LIGHTGRAY,LIGHTGRAY,LIGHTGRAY,LIGHT
  98:../elementos_pantalla.c **** WHITE,WHITE,WHITE,WHITE,WHITE,LIGHTGRAY,LIGHTGRAY,LIGHTGRAY,LIGHTGRAY,LIGHTGRAY,LIGHTGRAY,LIGHTGRAY
  99:../elementos_pantalla.c **** WHITE,WHITE,WHITE,WHITE,WHITE,WHITE,LIGHTGRAY,LIGHTGRAY,LIGHTGRAY,LIGHTGRAY,LIGHTGRAY,LIGHTGRAY,LIG
 100:../elementos_pantalla.c **** WHITE,WHITE,WHITE,WHITE,WHITE,WHITE,WHITE,WHITE,WHITE,LIGHTGRAY,LIGHTGRAY,LIGHTGRAY,LIGHTGRAY,LIGHT
 101:../elementos_pantalla.c **** };
 102:../elementos_pantalla.c **** STRU_BITMAP Stru_Bitmap_fichaGris = {0x10, 4, 24, 24, TRANSPARENCY, (INT8U *)fichaGrisMap};
 103:../elementos_pantalla.c **** 
 104:../elementos_pantalla.c **** void pintar_cuadricula()
 105:../elementos_pantalla.c **** {
 1237              		.loc 1 105 0
 1238              		.cfi_startproc
 1239              		@ Function supports interworking.
 1240              		@ args = 0, pretend = 0, frame = 8
 1241              		@ frame_needed = 1, uses_anonymous_args = 0
 1242 0000 0DC0A0E1 		mov	ip, sp
 1243              	.LCFI0:
 1244              		.cfi_def_cfa_register 12
 1245 0004 10D82DE9 		stmfd	sp!, {r4, fp, ip, lr, pc}
 106:../elementos_pantalla.c **** 	volatile int i;
 107:../elementos_pantalla.c **** 	volatile int j;
 108:../elementos_pantalla.c **** 	for(i = 0; i < num_filas; i++)
 1246              		.loc 1 108 0
 1247 0008 0000A0E3 		mov	r0, #0
 105:../elementos_pantalla.c **** {
 1248              		.loc 1 105 0
 1249 000c 04B04CE2 		sub	fp, ip, #4
 1250              		.cfi_offset 14, -8
 1251              		.cfi_offset 13, -12
 1252              		.cfi_offset 11, -16
 1253              		.cfi_offset 4, -20
 1254              	.LCFI1:
 1255              		.cfi_def_cfa 11, 4
 1256 0010 14D04DE2 		sub	sp, sp, #20
 1257              		.loc 1 108 0
 1258 0014 18000BE5 		str	r0, [fp, #-24]
 1259              	.LVL0:
 1260 0018 18301BE5 		ldr	r3, [fp, #-24]
 1261 001c 070053E3 		cmp	r3, #7
 1262 0020 2B0000CA 		bgt	.L1
 109:../elementos_pantalla.c **** 	{
 110:../elementos_pantalla.c **** 		for(j = 0; j < num_columnas; j++)
 111:../elementos_pantalla.c **** 		{
 112:../elementos_pantalla.c **** 			Lcd_Draw_Box(100+25*j,20+25*i,125+25*j,45+25*i,BLACK);
 1263              		.loc 1 112 0
 1264 0024 0F40A0E3 		mov	r4, #15
 1265              	.LVL1:
 1266              	.L6:
 110:../elementos_pantalla.c **** 		for(j = 0; j < num_columnas; j++)
 1267              		.loc 1 110 0
 1268 0028 0020A0E3 		mov	r2, #0
 1269 002c 1C200BE5 		str	r2, [fp, #-28]
 1270 0030 1C101BE5 		ldr	r1, [fp, #-28]
 1271 0034 070051E3 		cmp	r1, #7
 1272 0038 1F0000CA 		bgt	.L3
 1273              	.L7:
 1274              		.loc 1 112 0 discriminator 2
 1275 003c 1C001BE5 		ldr	r0, [fp, #-28]
 1276 0040 18C01BE5 		ldr	ip, [fp, #-24]
 1277 0044 1C201BE5 		ldr	r2, [fp, #-28]
 1278 0048 18301BE5 		ldr	r3, [fp, #-24]
 1279 004c 0C118CE0 		add	r1, ip, ip, asl #2
 1280 0050 00E180E0 		add	lr, r0, r0, asl #2
 1281 0054 02C182E0 		add	ip, r2, r2, asl #2
 1282 0058 033183E0 		add	r3, r3, r3, asl #2
 1283 005c 0C218CE0 		add	r2, ip, ip, asl #2
 1284 0060 0E018EE0 		add	r0, lr, lr, asl #2
 1285 0064 03C183E0 		add	ip, r3, r3, asl #2
 1286 0068 01E181E0 		add	lr, r1, r1, asl #2
 1287 006c 2D308CE2 		add	r3, ip, #45
 1288 0070 640080E2 		add	r0, r0, #100
 1289 0074 14108EE2 		add	r1, lr, #20
 1290 0078 7DE082E2 		add	lr, r2, #125
 1291 007c 00C8A0E1 		mov	ip, r0, asl #16
 1292 0080 0E28A0E1 		mov	r2, lr, asl #16
 1293 0084 0118A0E1 		mov	r1, r1, asl #16
 1294 0088 03E8A0E1 		mov	lr, r3, asl #16
 1295 008c 4C08A0E1 		mov	r0, ip, asr #16
 1296 0090 4E38A0E1 		mov	r3, lr, asr #16
 1297 0094 4118A0E1 		mov	r1, r1, asr #16
 1298 0098 4228A0E1 		mov	r2, r2, asr #16
 1299 009c 00408DE5 		str	r4, [sp, #0]
 1300 00a0 FEFFFFEB 		bl	Lcd_Draw_Box
 110:../elementos_pantalla.c **** 		for(j = 0; j < num_columnas; j++)
 1301              		.loc 1 110 0 discriminator 2
 1302 00a4 1C001BE5 		ldr	r0, [fp, #-28]
 1303 00a8 013080E2 		add	r3, r0, #1
 1304              	.LVL2:
 1305 00ac 1C300BE5 		str	r3, [fp, #-28]
 1306              	.LVL3:
 1307 00b0 1CC01BE5 		ldr	ip, [fp, #-28]
 1308 00b4 07005CE3 		cmp	ip, #7
 1309 00b8 DFFFFFDA 		ble	.L7
 1310              	.L3:
 108:../elementos_pantalla.c **** 	for(i = 0; i < num_filas; i++)
 1311              		.loc 1 108 0
 1312 00bc 18201BE5 		ldr	r2, [fp, #-24]
 1313 00c0 013082E2 		add	r3, r2, #1
 1314              	.LVL4:
 1315 00c4 18300BE5 		str	r3, [fp, #-24]
 1316              	.LVL5:
 1317 00c8 18101BE5 		ldr	r1, [fp, #-24]
 1318 00cc 070051E3 		cmp	r1, #7
 1319 00d0 D4FFFFDA 		ble	.L6
 1320              	.L1:
 113:../elementos_pantalla.c **** 		}
 114:../elementos_pantalla.c **** 	}
 115:../elementos_pantalla.c **** }
 1321              		.loc 1 115 0
 1322 00d4 10D04BE2 		sub	sp, fp, #16
 1323 00d8 10689DE8 		ldmfd	sp, {r4, fp, sp, lr}
 1324 00dc 1EFF2FE1 		bx	lr
 1325              		.cfi_endproc
 1326              	.LFE0:
 1328              		.align	2
 1329              		.global	pintar_numeros_tablero
 1331              	pintar_numeros_tablero:
 1332              	.LFB1:
 116:../elementos_pantalla.c **** 
 117:../elementos_pantalla.c **** void pintar_numeros_tablero()
 118:../elementos_pantalla.c **** {
 1333              		.loc 1 118 0
 1334              		.cfi_startproc
 1335              		@ Function supports interworking.
 1336              		@ args = 0, pretend = 0, frame = 16
 1337              		@ frame_needed = 1, uses_anonymous_args = 0
 1338              	.LVL6:
 1339 00e0 0DC0A0E1 		mov	ip, sp
 1340              	.LCFI2:
 1341              		.cfi_def_cfa_register 12
 1342 00e4 10D82DE9 		stmfd	sp!, {r4, fp, ip, lr, pc}
 1343 00e8 04B04CE2 		sub	fp, ip, #4
 1344              		.cfi_offset 14, -8
 1345              		.cfi_offset 13, -12
 1346              		.cfi_offset 11, -16
 1347              		.cfi_offset 4, -20
 1348              	.LCFI3:
 1349              		.cfi_def_cfa 11, 4
 1350 00ec 14D04DE2 		sub	sp, sp, #20
 119:../elementos_pantalla.c **** 	int i;
 120:../elementos_pantalla.c **** 	char buffer[15];
 121:../elementos_pantalla.c **** 	for(i = 0; i < num_filas; i++)
 122:../elementos_pantalla.c **** 	{
 123:../elementos_pantalla.c **** 		Lcd_DspAscII8x16(110 + 25*i, 0,BLACK,itoa(i+1, buffer,10));	//10 para pasar a decimal
 1351              		.loc 1 123 0
 1352 00f0 24104BE2 		sub	r1, fp, #36
 1353              		.loc 1 123 0
 1354 00f4 0A20A0E3 		mov	r2, #10
 1355 00f8 0100A0E3 		mov	r0, #1
 1356 00fc FEFFFFEB 		bl	itoa
 1357 0100 0010A0E3 		mov	r1, #0
 1358 0104 0030A0E1 		mov	r3, r0
 1359 0108 0F20A0E3 		mov	r2, #15
 1360 010c 6E00A0E3 		mov	r0, #110
 1361 0110 FEFFFFEB 		bl	Lcd_DspAscII8x16
 124:../elementos_pantalla.c **** 		Lcd_DspAscII8x16(310,25 + 25*i,BLACK,itoa(i+1, buffer,10));
 1362              		.loc 1 124 0
 1363 0114 24104BE2 		sub	r1, fp, #36
 1364 0118 0A20A0E3 		mov	r2, #10
 1365 011c 0100A0E3 		mov	r0, #1
 1366 0120 FEFFFFEB 		bl	itoa
 1367 0124 14429FE5 		ldr	r4, .L12
 1368 0128 0030A0E1 		mov	r3, r0
 1369 012c 1910A0E3 		mov	r1, #25
 1370 0130 0400A0E1 		mov	r0, r4
 1371 0134 0F20A0E3 		mov	r2, #15
 1372 0138 FEFFFFEB 		bl	Lcd_DspAscII8x16
 1373              	.LVL7:
 123:../elementos_pantalla.c **** 		Lcd_DspAscII8x16(110 + 25*i, 0,BLACK,itoa(i+1, buffer,10));	//10 para pasar a decimal
 1374              		.loc 1 123 0
 1375 013c 24104BE2 		sub	r1, fp, #36
 1376 0140 0A20A0E3 		mov	r2, #10
 1377 0144 0200A0E3 		mov	r0, #2
 1378 0148 FEFFFFEB 		bl	itoa
 1379 014c 0010A0E3 		mov	r1, #0
 1380 0150 0030A0E1 		mov	r3, r0
 1381 0154 0F20A0E3 		mov	r2, #15
 1382 0158 8700A0E3 		mov	r0, #135
 1383 015c FEFFFFEB 		bl	Lcd_DspAscII8x16
 1384              		.loc 1 124 0
 1385 0160 24104BE2 		sub	r1, fp, #36
 1386 0164 0A20A0E3 		mov	r2, #10
 1387 0168 0200A0E3 		mov	r0, #2
 1388 016c FEFFFFEB 		bl	itoa
 1389 0170 3210A0E3 		mov	r1, #50
 1390 0174 0030A0E1 		mov	r3, r0
 1391 0178 0F20A0E3 		mov	r2, #15
 1392 017c 0400A0E1 		mov	r0, r4
 1393 0180 FEFFFFEB 		bl	Lcd_DspAscII8x16
 1394              	.LVL8:
 123:../elementos_pantalla.c **** 		Lcd_DspAscII8x16(110 + 25*i, 0,BLACK,itoa(i+1, buffer,10));	//10 para pasar a decimal
 1395              		.loc 1 123 0
 1396 0184 24104BE2 		sub	r1, fp, #36
 1397 0188 0A20A0E3 		mov	r2, #10
 1398 018c 0300A0E3 		mov	r0, #3
 1399 0190 FEFFFFEB 		bl	itoa
 1400 0194 0010A0E3 		mov	r1, #0
 1401 0198 0030A0E1 		mov	r3, r0
 1402 019c 0F20A0E3 		mov	r2, #15
 1403 01a0 A000A0E3 		mov	r0, #160
 1404 01a4 FEFFFFEB 		bl	Lcd_DspAscII8x16
 1405              		.loc 1 124 0
 1406 01a8 24104BE2 		sub	r1, fp, #36
 1407 01ac 0A20A0E3 		mov	r2, #10
 1408 01b0 0300A0E3 		mov	r0, #3
 1409 01b4 FEFFFFEB 		bl	itoa
 1410 01b8 4B10A0E3 		mov	r1, #75
 1411 01bc 0030A0E1 		mov	r3, r0
 1412 01c0 0F20A0E3 		mov	r2, #15
 1413 01c4 0400A0E1 		mov	r0, r4
 1414 01c8 FEFFFFEB 		bl	Lcd_DspAscII8x16
 1415              	.LVL9:
 123:../elementos_pantalla.c **** 		Lcd_DspAscII8x16(110 + 25*i, 0,BLACK,itoa(i+1, buffer,10));	//10 para pasar a decimal
 1416              		.loc 1 123 0
 1417 01cc 24104BE2 		sub	r1, fp, #36
 1418 01d0 0A20A0E3 		mov	r2, #10
 1419 01d4 0400A0E3 		mov	r0, #4
 1420 01d8 FEFFFFEB 		bl	itoa
 1421 01dc 0010A0E3 		mov	r1, #0
 1422 01e0 0030A0E1 		mov	r3, r0
 1423 01e4 0F20A0E3 		mov	r2, #15
 1424 01e8 B900A0E3 		mov	r0, #185
 1425 01ec FEFFFFEB 		bl	Lcd_DspAscII8x16
 1426              		.loc 1 124 0
 1427 01f0 24104BE2 		sub	r1, fp, #36
 1428 01f4 0A20A0E3 		mov	r2, #10
 1429 01f8 0400A0E3 		mov	r0, #4
 1430 01fc FEFFFFEB 		bl	itoa
 1431 0200 6410A0E3 		mov	r1, #100
 1432 0204 0030A0E1 		mov	r3, r0
 1433 0208 0F20A0E3 		mov	r2, #15
 1434 020c 0400A0E1 		mov	r0, r4
 1435 0210 FEFFFFEB 		bl	Lcd_DspAscII8x16
 1436              	.LVL10:
 123:../elementos_pantalla.c **** 		Lcd_DspAscII8x16(110 + 25*i, 0,BLACK,itoa(i+1, buffer,10));	//10 para pasar a decimal
 1437              		.loc 1 123 0
 1438 0214 24104BE2 		sub	r1, fp, #36
 1439 0218 0A20A0E3 		mov	r2, #10
 1440 021c 0500A0E3 		mov	r0, #5
 1441 0220 FEFFFFEB 		bl	itoa
 1442 0224 0010A0E3 		mov	r1, #0
 1443 0228 0030A0E1 		mov	r3, r0
 1444 022c 0F20A0E3 		mov	r2, #15
 1445 0230 D200A0E3 		mov	r0, #210
 1446 0234 FEFFFFEB 		bl	Lcd_DspAscII8x16
 1447              		.loc 1 124 0
 1448 0238 24104BE2 		sub	r1, fp, #36
 1449 023c 0A20A0E3 		mov	r2, #10
 1450 0240 0500A0E3 		mov	r0, #5
 1451 0244 FEFFFFEB 		bl	itoa
 1452 0248 7D10A0E3 		mov	r1, #125
 1453 024c 0030A0E1 		mov	r3, r0
 1454 0250 0F20A0E3 		mov	r2, #15
 1455 0254 0400A0E1 		mov	r0, r4
 1456 0258 FEFFFFEB 		bl	Lcd_DspAscII8x16
 1457              	.LVL11:
 123:../elementos_pantalla.c **** 		Lcd_DspAscII8x16(110 + 25*i, 0,BLACK,itoa(i+1, buffer,10));	//10 para pasar a decimal
 1458              		.loc 1 123 0
 1459 025c 24104BE2 		sub	r1, fp, #36
 1460 0260 0A20A0E3 		mov	r2, #10
 1461 0264 0600A0E3 		mov	r0, #6
 1462 0268 FEFFFFEB 		bl	itoa
 1463 026c 0010A0E3 		mov	r1, #0
 1464 0270 0030A0E1 		mov	r3, r0
 1465 0274 0F20A0E3 		mov	r2, #15
 1466 0278 EB00A0E3 		mov	r0, #235
 1467 027c FEFFFFEB 		bl	Lcd_DspAscII8x16
 1468              		.loc 1 124 0
 1469 0280 24104BE2 		sub	r1, fp, #36
 1470 0284 0A20A0E3 		mov	r2, #10
 1471 0288 0600A0E3 		mov	r0, #6
 1472 028c FEFFFFEB 		bl	itoa
 1473 0290 9610A0E3 		mov	r1, #150
 1474 0294 0030A0E1 		mov	r3, r0
 1475 0298 0F20A0E3 		mov	r2, #15
 1476 029c 0400A0E1 		mov	r0, r4
 1477 02a0 FEFFFFEB 		bl	Lcd_DspAscII8x16
 1478              	.LVL12:
 123:../elementos_pantalla.c **** 		Lcd_DspAscII8x16(110 + 25*i, 0,BLACK,itoa(i+1, buffer,10));	//10 para pasar a decimal
 1479              		.loc 1 123 0
 1480 02a4 24104BE2 		sub	r1, fp, #36
 1481 02a8 0A20A0E3 		mov	r2, #10
 1482 02ac 0700A0E3 		mov	r0, #7
 1483 02b0 FEFFFFEB 		bl	itoa
 1484 02b4 0010A0E3 		mov	r1, #0
 1485 02b8 0030A0E1 		mov	r3, r0
 1486 02bc 0F20A0E3 		mov	r2, #15
 1487 02c0 410FA0E3 		mov	r0, #260
 1488 02c4 FEFFFFEB 		bl	Lcd_DspAscII8x16
 1489              		.loc 1 124 0
 1490 02c8 24104BE2 		sub	r1, fp, #36
 1491 02cc 0A20A0E3 		mov	r2, #10
 1492 02d0 0700A0E3 		mov	r0, #7
 1493 02d4 FEFFFFEB 		bl	itoa
 1494 02d8 AF10A0E3 		mov	r1, #175
 1495 02dc 0030A0E1 		mov	r3, r0
 1496 02e0 0F20A0E3 		mov	r2, #15
 1497 02e4 0400A0E1 		mov	r0, r4
 1498 02e8 FEFFFFEB 		bl	Lcd_DspAscII8x16
 1499              	.LVL13:
 123:../elementos_pantalla.c **** 		Lcd_DspAscII8x16(110 + 25*i, 0,BLACK,itoa(i+1, buffer,10));	//10 para pasar a decimal
 1500              		.loc 1 123 0
 1501 02ec 24104BE2 		sub	r1, fp, #36
 1502 02f0 0A20A0E3 		mov	r2, #10
 1503 02f4 0800A0E3 		mov	r0, #8
 1504 02f8 FEFFFFEB 		bl	itoa
 1505 02fc 0010A0E3 		mov	r1, #0
 1506 0300 0030A0E1 		mov	r3, r0
 1507 0304 0F20A0E3 		mov	r2, #15
 1508 0308 34009FE5 		ldr	r0, .L12+4
 1509 030c FEFFFFEB 		bl	Lcd_DspAscII8x16
 1510              		.loc 1 124 0
 1511 0310 24104BE2 		sub	r1, fp, #36
 1512 0314 0A20A0E3 		mov	r2, #10
 1513 0318 0800A0E3 		mov	r0, #8
 1514 031c FEFFFFEB 		bl	itoa
 1515 0320 C810A0E3 		mov	r1, #200
 1516 0324 0030A0E1 		mov	r3, r0
 1517 0328 0F20A0E3 		mov	r2, #15
 1518 032c 0400A0E1 		mov	r0, r4
 1519 0330 FEFFFFEB 		bl	Lcd_DspAscII8x16
 1520              	.LVL14:
 125:../elementos_pantalla.c **** 	}
 126:../elementos_pantalla.c **** }
 1521              		.loc 1 126 0
 1522 0334 10D04BE2 		sub	sp, fp, #16
 1523 0338 10689DE8 		ldmfd	sp, {r4, fp, sp, lr}
 1524 033c 1EFF2FE1 		bx	lr
 1525              	.L13:
 1526              		.align	2
 1527              	.L12:
 1528 0340 36010000 		.word	310
 1529 0344 1D010000 		.word	285
 1530              		.cfi_endproc
 1531              	.LFE1:
 1533              		.align	2
 1534              		.global	pintar_textos
 1536              	pintar_textos:
 1537              	.LFB2:
 127:../elementos_pantalla.c **** 
 128:../elementos_pantalla.c **** void pintar_textos()
 129:../elementos_pantalla.c **** {
 1538              		.loc 1 129 0
 1539              		.cfi_startproc
 1540              		@ Function supports interworking.
 1541              		@ args = 0, pretend = 0, frame = 0
 1542              		@ frame_needed = 1, uses_anonymous_args = 0
 1543 0348 0DC0A0E1 		mov	ip, sp
 1544              	.LCFI4:
 1545              		.cfi_def_cfa_register 12
 1546 034c 30D82DE9 		stmfd	sp!, {r4, r5, fp, ip, lr, pc}
 130:../elementos_pantalla.c **** 	Lcd_DspAscII8x16(5,10,BLACK,"Tiempo total");
 1547              		.loc 1 130 0
 1548 0350 0500A0E3 		mov	r0, #5
 129:../elementos_pantalla.c **** {
 1549              		.loc 1 129 0
 1550 0354 04B04CE2 		sub	fp, ip, #4
 1551              		.cfi_offset 14, -8
 1552              		.cfi_offset 13, -12
 1553              		.cfi_offset 11, -16
 1554              		.cfi_offset 5, -20
 1555              		.cfi_offset 4, -24
 1556              	.LCFI5:
 1557              		.cfi_def_cfa 11, 4
 1558              		.loc 1 130 0
 1559 0358 0A10A0E3 		mov	r1, #10
 1560 035c 0F20A0E3 		mov	r2, #15
 1561 0360 B4309FE5 		ldr	r3, .L15
 1562 0364 FEFFFFEB 		bl	Lcd_DspAscII8x16
 131:../elementos_pantalla.c **** 	Lcd_DspAscII8x16(20,20,BLACK,"de juego:");
 132:../elementos_pantalla.c **** 	Lcd_DspAscII8x16(5,60,BLACK,"Tiempo para");
 1563              		.loc 1 132 0
 1564 0368 B0509FE5 		ldr	r5, .L15+4
 131:../elementos_pantalla.c **** 	Lcd_DspAscII8x16(20,20,BLACK,"de juego:");
 1565              		.loc 1 131 0
 1566 036c 1400A0E3 		mov	r0, #20
 1567 0370 0010A0E1 		mov	r1, r0
 1568 0374 0F20A0E3 		mov	r2, #15
 1569 0378 A4309FE5 		ldr	r3, .L15+8
 1570 037c FEFFFFEB 		bl	Lcd_DspAscII8x16
 1571              		.loc 1 132 0
 1572 0380 0530A0E1 		mov	r3, r5
 1573 0384 0500A0E3 		mov	r0, #5
 1574 0388 3C10A0E3 		mov	r1, #60
 1575 038c 0F20A0E3 		mov	r2, #15
 1576 0390 FEFFFFEB 		bl	Lcd_DspAscII8x16
 133:../elementos_pantalla.c **** 	Lcd_DspAscII8x16(20,70,BLACK,"calculos:");
 134:../elementos_pantalla.c **** 	Lcd_DspAscII8x16(5,110,BLACK,"Tiempo para");
 135:../elementos_pantalla.c **** 	Lcd_DspAscII8x16(20,120,BLACK,"p.volteo:");
 1577              		.loc 1 135 0
 1578 0394 8C409FE5 		ldr	r4, .L15+12
 133:../elementos_pantalla.c **** 	Lcd_DspAscII8x16(20,70,BLACK,"calculos:");
 1579              		.loc 1 133 0
 1580 0398 1400A0E3 		mov	r0, #20
 1581 039c 4610A0E3 		mov	r1, #70
 1582 03a0 0F20A0E3 		mov	r2, #15
 1583 03a4 80309FE5 		ldr	r3, .L15+16
 1584 03a8 FEFFFFEB 		bl	Lcd_DspAscII8x16
 134:../elementos_pantalla.c **** 	Lcd_DspAscII8x16(5,110,BLACK,"Tiempo para");
 1585              		.loc 1 134 0
 1586 03ac 0530A0E1 		mov	r3, r5
 1587 03b0 0500A0E3 		mov	r0, #5
 1588 03b4 6E10A0E3 		mov	r1, #110
 1589 03b8 0F20A0E3 		mov	r2, #15
 1590 03bc FEFFFFEB 		bl	Lcd_DspAscII8x16
 1591              		.loc 1 135 0
 1592 03c0 0430A0E1 		mov	r3, r4
 1593 03c4 1400A0E3 		mov	r0, #20
 1594 03c8 7810A0E3 		mov	r1, #120
 1595 03cc 0F20A0E3 		mov	r2, #15
 1596 03d0 FEFFFFEB 		bl	Lcd_DspAscII8x16
 136:../elementos_pantalla.c **** 	Lcd_DspAscII8x16(5,160,BLACK,"Numero inv.");
 1597              		.loc 1 136 0
 1598 03d4 0500A0E3 		mov	r0, #5
 1599 03d8 A010A0E3 		mov	r1, #160
 1600 03dc 0F20A0E3 		mov	r2, #15
 1601 03e0 48309FE5 		ldr	r3, .L15+20
 1602 03e4 FEFFFFEB 		bl	Lcd_DspAscII8x16
 137:../elementos_pantalla.c **** 	Lcd_DspAscII8x16(20,170,BLACK,"p.volteo:");
 1603              		.loc 1 137 0
 1604 03e8 0430A0E1 		mov	r3, r4
 1605 03ec 1400A0E3 		mov	r0, #20
 1606 03f0 AA10A0E3 		mov	r1, #170
 1607 03f4 0F20A0E3 		mov	r2, #15
 1608 03f8 FEFFFFEB 		bl	Lcd_DspAscII8x16
 138:../elementos_pantalla.c **** 	Lcd_DspAscII8x16(0,220,BLACK,"-> TOCA LA PANTALLA PARA HACER TU JUGADA");
 1609              		.loc 1 138 0
 1610 03fc 0000A0E3 		mov	r0, #0
 1611 0400 DC10A0E3 		mov	r1, #220
 1612 0404 0F20A0E3 		mov	r2, #15
 1613 0408 24309FE5 		ldr	r3, .L15+24
 1614 040c FEFFFFEB 		bl	Lcd_DspAscII8x16
 139:../elementos_pantalla.c **** }
 1615              		.loc 1 139 0
 1616 0410 14D04BE2 		sub	sp, fp, #20
 1617 0414 30689DE8 		ldmfd	sp, {r4, r5, fp, sp, lr}
 1618 0418 1EFF2FE1 		bx	lr
 1619              	.L16:
 1620              		.align	2
 1621              	.L15:
 1622 041c 00000000 		.word	.LC0
 1623 0420 1C000000 		.word	.LC2
 1624 0424 10000000 		.word	.LC1
 1625 0428 34000000 		.word	.LC4
 1626 042c 28000000 		.word	.LC3
 1627 0430 40000000 		.word	.LC5
 1628 0434 4C000000 		.word	.LC6
 1629              		.cfi_endproc
 1630              	.LFE2:
 1632              		.align	2
 1633              		.global	pintar_ficha
 1635              	pintar_ficha:
 1636              	.LFB3:
 140:../elementos_pantalla.c **** 
 141:../elementos_pantalla.c **** void pintar_ficha(int fila, int col, enum estado_casilla color)
 142:../elementos_pantalla.c **** {
 1637              		.loc 1 142 0
 1638              		.cfi_startproc
 1639              		@ Function supports interworking.
 1640              		@ args = 0, pretend = 0, frame = 0
 1641              		@ frame_needed = 1, uses_anonymous_args = 0
 1642              	.LVL15:
 1643 0438 0DC0A0E1 		mov	ip, sp
 1644              	.LCFI6:
 1645              		.cfi_def_cfa_register 12
 1646 043c 00D82DE9 		stmfd	sp!, {fp, ip, lr, pc}
 143:../elementos_pantalla.c **** 	switch(color)
 1647              		.loc 1 143 0
 1648 0440 020052E3 		cmp	r2, #2
 142:../elementos_pantalla.c **** {
 1649              		.loc 1 142 0
 1650 0444 04B04CE2 		sub	fp, ip, #4
 1651              		.cfi_offset 14, -8
 1652              		.cfi_offset 13, -12
 1653              		.cfi_offset 11, -16
 1654              	.LCFI7:
 1655              		.cfi_def_cfa 11, 4
 1656 0448 08D04DE2 		sub	sp, sp, #8
 1657              		.loc 1 143 0
 1658 044c 2400000A 		beq	.L20
 1659 0450 030052E3 		cmp	r2, #3
 1660 0454 1600000A 		beq	.L21
 1661 0458 010052E3 		cmp	r2, #1
 1662 045c 0200000A 		beq	.L24
 1663              	.LVL16:
 1664              	.L17:
 144:../elementos_pantalla.c **** 	{
 145:../elementos_pantalla.c **** 		case FICHA_BLANCA:
 146:../elementos_pantalla.c **** 			BitmapView(101+25*col, 21+25*fila, Stru_Bitmap_fichaBlanca);
 147:../elementos_pantalla.c **** 			break;
 148:../elementos_pantalla.c **** 		case FICHA_NEGRA:
 149:../elementos_pantalla.c **** 			BitmapView(101+25*col, 21+25*fila, Stru_Bitmap_fichaNegra);
 150:../elementos_pantalla.c **** 			break;
 151:../elementos_pantalla.c **** 		case FICHA_GRIS:
 152:../elementos_pantalla.c **** 			BitmapView(101+25*col, 21+25*fila, Stru_Bitmap_fichaGris);
 153:../elementos_pantalla.c **** 			break;
 154:../elementos_pantalla.c **** 		default:
 155:../elementos_pantalla.c **** 			break;
 156:../elementos_pantalla.c **** 	}
 157:../elementos_pantalla.c **** }
 1665              		.loc 1 157 0
 1666 0460 0CD04BE2 		sub	sp, fp, #12
 1667 0464 00689DE8 		ldmfd	sp, {fp, sp, lr}
 1668 0468 1EFF2FE1 		bx	lr
 1669              	.LVL17:
 1670              	.L24:
 146:../elementos_pantalla.c **** 			BitmapView(101+25*col, 21+25*fila, Stru_Bitmap_fichaBlanca);
 1671              		.loc 1 146 0
 1672 046c 78309FE5 		ldr	r3, .L25
 1673 0470 011181E0 		add	r1, r1, r1, asl #2
 1674              	.LVL18:
 1675 0474 000180E0 		add	r0, r0, r0, asl #2
 1676              	.LVL19:
 1677 0478 01E181E0 		add	lr, r1, r1, asl #2
 1678 047c 00C180E0 		add	ip, r0, r0, asl #2
 1679 0480 082083E2 		add	r2, r3, #8
 1680              	.LVL20:
 1681 0484 65E08EE2 		add	lr, lr, #101
 1682 0488 15C08CE2 		add	ip, ip, #21
 1683 048c 030092E8 		ldmia	r2, {r0, r1}
 1684 0490 0EE8A0E1 		mov	lr, lr, asl #16
 1685 0494 0CC8A0E1 		mov	ip, ip, asl #16
 1686              	.L22:
 152:../elementos_pantalla.c **** 			BitmapView(101+25*col, 21+25*fila, Stru_Bitmap_fichaGris);
 1687              		.loc 1 152 0
 1688 0498 0D20A0E1 		mov	r2, sp
 1689 049c 030082E8 		stmia	r2, {r0, r1}
 1690 04a0 2E08A0E1 		mov	r0, lr, lsr #16
 1691 04a4 0C0093E8 		ldmia	r3, {r2, r3}
 1692 04a8 2C18A0E1 		mov	r1, ip, lsr #16
 1693 04ac FEFFFFEB 		bl	BitmapView
 1694 04b0 EAFFFFEA 		b	.L17
 1695              	.LVL21:
 1696              	.L21:
 1697 04b4 34309FE5 		ldr	r3, .L25+4
 1698              	.L23:
 1699 04b8 011181E0 		add	r1, r1, r1, asl #2
 1700              	.LVL22:
 1701 04bc 000180E0 		add	r0, r0, r0, asl #2
 1702              	.LVL23:
 1703 04c0 01E181E0 		add	lr, r1, r1, asl #2
 1704 04c4 002180E0 		add	r2, r0, r0, asl #2
 1705              	.LVL24:
 1706 04c8 65E08EE2 		add	lr, lr, #101
 1707 04cc 15C082E2 		add	ip, r2, #21
 1708 04d0 030093E8 		ldmia	r3, {r0, r1}
 1709 04d4 0EE8A0E1 		mov	lr, lr, asl #16
 1710 04d8 0CC8A0E1 		mov	ip, ip, asl #16
 1711 04dc 083043E2 		sub	r3, r3, #8
 1712 04e0 ECFFFFEA 		b	.L22
 1713              	.LVL25:
 1714              	.L20:
 149:../elementos_pantalla.c **** 			BitmapView(101+25*col, 21+25*fila, Stru_Bitmap_fichaNegra);
 1715              		.loc 1 149 0
 1716 04e4 08309FE5 		ldr	r3, .L25+8
 1717 04e8 F2FFFFEA 		b	.L23
 1718              	.L26:
 1719              		.align	2
 1720              	.L25:
 1721 04ec 00000000 		.word	.LANCHOR0
 1722 04f0 28000000 		.word	.LANCHOR0+40
 1723 04f4 18000000 		.word	.LANCHOR0+24
 1724              		.cfi_endproc
 1725              	.LFE3:
 1727              		.align	2
 1728              		.global	borrar_ficha
 1730              	borrar_ficha:
 1731              	.LFB4:
 158:../elementos_pantalla.c **** 
 159:../elementos_pantalla.c **** void borrar_ficha(int f, int c)		//TODO acabar
 160:../elementos_pantalla.c **** {
 1732              		.loc 1 160 0
 1733              		.cfi_startproc
 1734              		@ Function supports interworking.
 1735              		@ args = 0, pretend = 0, frame = 0
 1736              		@ frame_needed = 1, uses_anonymous_args = 0
 1737              	.LVL26:
 1738 04f8 0DC0A0E1 		mov	ip, sp
 1739              	.LCFI8:
 1740              		.cfi_def_cfa_register 12
 1741 04fc 00D82DE9 		stmfd	sp!, {fp, ip, lr, pc}
 161:../elementos_pantalla.c **** 	LcdClrRect((100+25*c) + 1, (20+25*f) + 1, (125+25*c) - 1, (45+25*f) - 1, 0x0);
 1742              		.loc 1 161 0
 1743 0500 011181E0 		add	r1, r1, r1, asl #2
 1744              	.LVL27:
 1745 0504 000180E0 		add	r0, r0, r0, asl #2
 1746              	.LVL28:
 1747 0508 012181E0 		add	r2, r1, r1, asl #2
 1748 050c 003180E0 		add	r3, r0, r0, asl #2
 160:../elementos_pantalla.c **** {
 1749              		.loc 1 160 0
 1750 0510 04B04CE2 		sub	fp, ip, #4
 1751              		.cfi_offset 14, -8
 1752              		.cfi_offset 13, -12
 1753              		.cfi_offset 11, -16
 1754              	.LCFI9:
 1755              		.cfi_def_cfa 11, 4
 1756              		.loc 1 161 0
 1757 0514 03E8A0E1 		mov	lr, r3, asl #16
 1758 0518 02C8A0E1 		mov	ip, r2, asl #16
 160:../elementos_pantalla.c **** {
 1759              		.loc 1 160 0
 1760 051c 08D04DE2 		sub	sp, sp, #8
 1761              		.loc 1 161 0
 1762 0520 65088CE2 		add	r0, ip, #6619136
 1763 0524 15188EE2 		add	r1, lr, #1376256
 1764 0528 1F278CE2 		add	r2, ip, #8126464
 1765 052c 0B378EE2 		add	r3, lr, #2883584
 1766              		.loc 1 161 0
 1767 0530 00C0A0E3 		mov	ip, #0
 1768 0534 4008A0E1 		mov	r0, r0, asr #16
 1769 0538 4118A0E1 		mov	r1, r1, asr #16
 1770 053c 4228A0E1 		mov	r2, r2, asr #16
 1771 0540 4338A0E1 		mov	r3, r3, asr #16
 1772 0544 00C08DE5 		str	ip, [sp, #0]
 1773 0548 FEFFFFEB 		bl	LcdClrRect
 162:../elementos_pantalla.c **** }
 1774              		.loc 1 162 0
 1775 054c 0CD04BE2 		sub	sp, fp, #12
 1776 0550 00689DE8 		ldmfd	sp, {fp, sp, lr}
 1777 0554 1EFF2FE1 		bx	lr
 1778              		.cfi_endproc
 1779              	.LFE4:
 1781              		.align	2
 1782              		.global	mover_gris
 1784              	mover_gris:
 1785              	.LFB5:
 163:../elementos_pantalla.c **** 
 164:../elementos_pantalla.c **** //Mueve en el LCD la ficha gris a partir de la fila y columna en la que está (0-7),
 165:../elementos_pantalla.c **** //	teniendo en cuenta lo que hubiera en la casilla donde está actualmente
 166:../elementos_pantalla.c **** void mover_gris(int fila, int columna, int fila_anterior_gris, int columna_anterior_gris)
 167:../elementos_pantalla.c **** {
 1786              		.loc 1 167 0
 1787              		.cfi_startproc
 1788              		@ Function supports interworking.
 1789              		@ args = 0, pretend = 0, frame = 0
 1790              		@ frame_needed = 1, uses_anonymous_args = 0
 1791              	.LVL29:
 1792 0558 0DC0A0E1 		mov	ip, sp
 1793              	.LCFI10:
 1794              		.cfi_def_cfa_register 12
 1795 055c 70D82DE9 		stmfd	sp!, {r4, r5, r6, fp, ip, lr, pc}
 1796 0560 04B04CE2 		sub	fp, ip, #4
 1797              		.cfi_offset 14, -8
 1798              		.cfi_offset 13, -12
 1799              		.cfi_offset 11, -16
 1800              		.cfi_offset 6, -20
 1801              		.cfi_offset 5, -24
 1802              		.cfi_offset 4, -28
 1803              	.LCFI11:
 1804              		.cfi_def_cfa 11, 4
 1805              	.LBB6:
 1806              	.LBB8:
 161:../elementos_pantalla.c **** 	LcdClrRect((100+25*c) + 1, (20+25*f) + 1, (125+25*c) - 1, (45+25*f) - 1, 0x0);
 1807              		.loc 1 161 0
 1808 0564 03E183E0 		add	lr, r3, r3, asl #2
 1809 0568 02C182E0 		add	ip, r2, r2, asl #2
 1810 056c 0E518EE0 		add	r5, lr, lr, asl #2
 1811 0570 0C618CE0 		add	r6, ip, ip, asl #2
 1812 0574 0548A0E1 		mov	r4, r5, asl #16
 1813 0578 0638A0E1 		mov	r3, r6, asl #16
 1814              	.LVL30:
 1815              	.LBE8:
 1816              	.LBE6:
 1817              		.loc 1 167 0
 1818 057c 0CD04DE2 		sub	sp, sp, #12
 1819              	.LBB10:
 1820              	.LBB7:
 161:../elementos_pantalla.c **** 	LcdClrRect((100+25*c) + 1, (20+25*f) + 1, (125+25*c) - 1, (45+25*f) - 1, 0x0);
 1821              		.loc 1 161 0
 1822 0580 656884E2 		add	r6, r4, #6619136
 1823 0584 15E883E2 		add	lr, r3, #1376256
 1824 0588 0BC783E2 		add	ip, r3, #2883584
 1825 058c 1F2784E2 		add	r2, r4, #8126464
 1826              	.LVL31:
 1827              	.LBE7:
 1828              	.LBE10:
 1829              		.loc 1 167 0
 1830 0590 0040A0E1 		mov	r4, r0
 1831 0594 0150A0E1 		mov	r5, r1
 1832              	.LBB11:
 1833              	.LBB9:
 161:../elementos_pantalla.c **** 	LcdClrRect((100+25*c) + 1, (20+25*f) + 1, (125+25*c) - 1, (45+25*f) - 1, 0x0);
 1834              		.loc 1 161 0
 1835 0598 4608A0E1 		mov	r0, r6, asr #16
 1836              	.LVL32:
 1837 059c 4E18A0E1 		mov	r1, lr, asr #16
 1838              	.LVL33:
 1839 05a0 4C38A0E1 		mov	r3, ip, asr #16
 1840 05a4 00E0A0E3 		mov	lr, #0
 1841 05a8 4228A0E1 		mov	r2, r2, asr #16
 1842 05ac 00E08DE5 		str	lr, [sp, #0]
 1843 05b0 FEFFFFEB 		bl	LcdClrRect
 1844              	.LVL34:
 1845              	.LBE9:
 1846              	.LBE11:
 1847              	.LBB12:
 1848              	.LBB13:
 152:../elementos_pantalla.c **** 			BitmapView(101+25*col, 21+25*fila, Stru_Bitmap_fichaGris);
 1849              		.loc 1 152 0
 1850 05b4 50C09FE5 		ldr	ip, .L29
 1851 05b8 041184E0 		add	r1, r4, r4, asl #2
 1852 05bc 28008CE2 		add	r0, ip, #40
 1853 05c0 013181E0 		add	r3, r1, r1, asl #2
 1854 05c4 052185E0 		add	r2, r5, r5, asl #2
 1855 05c8 030090E8 		ldmia	r0, {r0, r1}
 1856 05cc 025182E0 		add	r5, r2, r2, asl #2
 1857              	.LVL35:
 1858 05d0 0D20A0E1 		mov	r2, sp
 1859 05d4 030082E8 		stmia	r2, {r0, r1}
 1860 05d8 154083E2 		add	r4, r3, #21
 1861              	.LVL36:
 1862 05dc 655085E2 		add	r5, r5, #101
 1863 05e0 20308CE2 		add	r3, ip, #32
 1864 05e4 0558A0E1 		mov	r5, r5, asl #16
 1865 05e8 0448A0E1 		mov	r4, r4, asl #16
 1866 05ec 0C0093E8 		ldmia	r3, {r2, r3}
 1867 05f0 2508A0E1 		mov	r0, r5, lsr #16
 1868 05f4 2418A0E1 		mov	r1, r4, lsr #16
 1869 05f8 FEFFFFEB 		bl	BitmapView
 1870              	.LBE13:
 1871              	.LBE12:
 168:../elementos_pantalla.c **** 	borrar_ficha(fila_anterior_gris, columna_anterior_gris);
 169:../elementos_pantalla.c **** 	pintar_ficha(fila, columna, FICHA_GRIS);
 170:../elementos_pantalla.c **** 	Lcd_Dma_Trans();
 1872              		.loc 1 170 0
 1873 05fc FEFFFFEB 		bl	Lcd_Dma_Trans
 171:../elementos_pantalla.c **** }
 1874              		.loc 1 171 0
 1875 0600 18D04BE2 		sub	sp, fp, #24
 1876 0604 70689DE8 		ldmfd	sp, {r4, r5, r6, fp, sp, lr}
 1877 0608 1EFF2FE1 		bx	lr
 1878              	.L30:
 1879              		.align	2
 1880              	.L29:
 1881 060c 00000000 		.word	.LANCHOR0
 1882              		.cfi_endproc
 1883              	.LFE5:
 1885              		.align	2
 1886              		.global	pintar_profiling
 1888              	pintar_profiling:
 1889              	.LFB6:
 172:../elementos_pantalla.c **** 
 173:../elementos_pantalla.c **** void pintar_profiling(int t_total, int t_calc, int t_pvolteo, int veces_pvolteo)
 174:../elementos_pantalla.c **** {
 1890              		.loc 1 174 0
 1891              		.cfi_startproc
 1892              		@ Function supports interworking.
 1893              		@ args = 0, pretend = 0, frame = 16
 1894              		@ frame_needed = 1, uses_anonymous_args = 0
 1895              	.LVL37:
 1896 0610 0DC0A0E1 		mov	ip, sp
 1897              	.LCFI12:
 1898              		.cfi_def_cfa_register 12
 1899 0614 F0D92DE9 		stmfd	sp!, {r4, r5, r6, r7, r8, fp, ip, lr, pc}
 1900 0618 04B04CE2 		sub	fp, ip, #4
 1901              		.cfi_offset 14, -8
 1902              		.cfi_offset 13, -12
 1903              		.cfi_offset 11, -16
 1904              		.cfi_offset 8, -20
 1905              		.cfi_offset 7, -24
 1906              		.cfi_offset 6, -28
 1907              		.cfi_offset 5, -32
 1908              		.cfi_offset 4, -36
 1909              	.LCFI13:
 1910              		.cfi_def_cfa 11, 4
 1911 061c 1CD04DE2 		sub	sp, sp, #28
 175:../elementos_pantalla.c **** 	char buffer[15];						//15 por darle un tamaño decente
 176:../elementos_pantalla.c **** 
 177:../elementos_pantalla.c **** 	//Se borra la zona de pantalla virtual donde están los numeritos del profiling que si no no funcio
 178:../elementos_pantalla.c **** 	LcdClrRect(20, 35, 75, 50, 0x0000);
 1912              		.loc 1 178 0
 1913 0620 0040A0E3 		mov	r4, #0
 174:../elementos_pantalla.c **** {
 1914              		.loc 1 174 0
 1915 0624 0060A0E1 		mov	r6, r0
 1916 0628 0150A0E1 		mov	r5, r1
 1917 062c 0270A0E1 		mov	r7, r2
 1918 0630 0380A0E1 		mov	r8, r3
 1919              		.loc 1 178 0
 1920 0634 1400A0E3 		mov	r0, #20
 1921              	.LVL38:
 1922 0638 2310A0E3 		mov	r1, #35
 1923              	.LVL39:
 1924 063c 4B20A0E3 		mov	r2, #75
 1925              	.LVL40:
 1926 0640 3230A0E3 		mov	r3, #50
 1927              	.LVL41:
 1928 0644 00408DE5 		str	r4, [sp, #0]
 1929 0648 FEFFFFEB 		bl	LcdClrRect
 179:../elementos_pantalla.c **** 	LcdClrRect(20, 85, 95, 100, 0x0000);
 1930              		.loc 1 179 0
 1931 064c 1400A0E3 		mov	r0, #20
 1932 0650 5510A0E3 		mov	r1, #85
 1933 0654 5F20A0E3 		mov	r2, #95
 1934 0658 6430A0E3 		mov	r3, #100
 1935 065c 00408DE5 		str	r4, [sp, #0]
 1936 0660 FEFFFFEB 		bl	LcdClrRect
 180:../elementos_pantalla.c **** 	LcdClrRect(20, 135, 95, 150, 0x0000);
 1937              		.loc 1 180 0
 1938 0664 1400A0E3 		mov	r0, #20
 1939 0668 8710A0E3 		mov	r1, #135
 1940 066c 5F20A0E3 		mov	r2, #95
 1941 0670 9630A0E3 		mov	r3, #150
 1942 0674 00408DE5 		str	r4, [sp, #0]
 1943 0678 FEFFFFEB 		bl	LcdClrRect
 181:../elementos_pantalla.c **** 	LcdClrRect(20, 185, 75, 200, 0x0000);
 1944              		.loc 1 181 0
 1945 067c C830A0E3 		mov	r3, #200
 1946 0680 1400A0E3 		mov	r0, #20
 1947 0684 B910A0E3 		mov	r1, #185
 1948 0688 4B20A0E3 		mov	r2, #75
 1949 068c 00408DE5 		str	r4, [sp, #0]
 1950 0690 FEFFFFEB 		bl	LcdClrRect
 182:../elementos_pantalla.c **** 
 183:../elementos_pantalla.c **** 	itoa(t_total, buffer, 10);				//10 es para indicar que pasamos a números decimales
 1951              		.loc 1 183 0
 1952 0694 34104BE2 		sub	r1, fp, #52
 1953 0698 0A20A0E3 		mov	r2, #10
 1954 069c 0600A0E1 		mov	r0, r6
 1955 06a0 FEFFFFEB 		bl	itoa
 184:../elementos_pantalla.c **** 	Lcd_DspAscII8x16(20,35,BLACK,buffer);
 1956              		.loc 1 184 0
 1957 06a4 34304BE2 		sub	r3, fp, #52
 1958 06a8 0F20A0E3 		mov	r2, #15
 1959 06ac 1400A0E3 		mov	r0, #20
 1960 06b0 2310A0E3 		mov	r1, #35
 1961 06b4 FEFFFFEB 		bl	Lcd_DspAscII8x16
 185:../elementos_pantalla.c **** 	itoa(t_calc, buffer, 10);
 1962              		.loc 1 185 0
 1963 06b8 34104BE2 		sub	r1, fp, #52
 1964 06bc 0500A0E1 		mov	r0, r5
 1965 06c0 0A20A0E3 		mov	r2, #10
 1966 06c4 FEFFFFEB 		bl	itoa
 186:../elementos_pantalla.c **** 	Lcd_DspAscII8x16(20,85,BLACK,buffer);
 1967              		.loc 1 186 0
 1968 06c8 34304BE2 		sub	r3, fp, #52
 1969 06cc 0F20A0E3 		mov	r2, #15
 1970 06d0 1400A0E3 		mov	r0, #20
 1971 06d4 5510A0E3 		mov	r1, #85
 1972 06d8 FEFFFFEB 		bl	Lcd_DspAscII8x16
 187:../elementos_pantalla.c **** 	itoa(t_pvolteo, buffer, 10);
 1973              		.loc 1 187 0
 1974 06dc 34104BE2 		sub	r1, fp, #52
 1975 06e0 0700A0E1 		mov	r0, r7
 1976 06e4 0A20A0E3 		mov	r2, #10
 1977 06e8 FEFFFFEB 		bl	itoa
 188:../elementos_pantalla.c **** 	Lcd_DspAscII8x16(20,135,BLACK,buffer);
 1978              		.loc 1 188 0
 1979 06ec 34304BE2 		sub	r3, fp, #52
 1980 06f0 0F20A0E3 		mov	r2, #15
 1981 06f4 1400A0E3 		mov	r0, #20
 1982 06f8 8710A0E3 		mov	r1, #135
 1983 06fc FEFFFFEB 		bl	Lcd_DspAscII8x16
 189:../elementos_pantalla.c **** 	itoa(veces_pvolteo, buffer, 10);
 1984              		.loc 1 189 0
 1985 0700 34104BE2 		sub	r1, fp, #52
 1986 0704 0800A0E1 		mov	r0, r8
 1987 0708 0A20A0E3 		mov	r2, #10
 1988 070c FEFFFFEB 		bl	itoa
 190:../elementos_pantalla.c **** 	Lcd_DspAscII8x16(20,185,BLACK,buffer);
 1989              		.loc 1 190 0
 1990 0710 1400A0E3 		mov	r0, #20
 1991 0714 B910A0E3 		mov	r1, #185
 1992 0718 0F20A0E3 		mov	r2, #15
 1993 071c 34304BE2 		sub	r3, fp, #52
 1994 0720 FEFFFFEB 		bl	Lcd_DspAscII8x16
 191:../elementos_pantalla.c **** }
 1995              		.loc 1 191 0
 1996 0724 20D04BE2 		sub	sp, fp, #32
 1997 0728 F0699DE8 		ldmfd	sp, {r4, r5, r6, r7, r8, fp, sp, lr}
 1998 072c 1EFF2FE1 		bx	lr
 1999              		.cfi_endproc
 2000              	.LFE6:
 2002              		.align	2
 2003              		.global	pintar_jugando
 2005              	pintar_jugando:
 2006              	.LFB7:
 192:../elementos_pantalla.c **** 
 193:../elementos_pantalla.c **** void pintar_jugando()
 194:../elementos_pantalla.c **** {
 2007              		.loc 1 194 0
 2008              		.cfi_startproc
 2009              		@ Function supports interworking.
 2010              		@ args = 0, pretend = 0, frame = 24
 2011              		@ frame_needed = 1, uses_anonymous_args = 0
 2012 0730 0DC0A0E1 		mov	ip, sp
 2013              	.LCFI14:
 2014              		.cfi_def_cfa_register 12
 2015 0734 30D82DE9 		stmfd	sp!, {r4, r5, fp, ip, lr, pc}
 2016 0738 04B04CE2 		sub	fp, ip, #4
 2017              		.cfi_offset 14, -8
 2018              		.cfi_offset 13, -12
 2019              		.cfi_offset 11, -16
 2020              		.cfi_offset 5, -20
 2021              		.cfi_offset 4, -24
 2022              	.LCFI15:
 2023              		.cfi_def_cfa 11, 4
 2024 073c 20D04DE2 		sub	sp, sp, #32
 195:../elementos_pantalla.c **** 	Lcd_Clr();
 2025              		.loc 1 195 0
 2026 0740 FEFFFFEB 		bl	Lcd_Clr
 2027              	.LBB32:
 2028              	.LBB33:
 108:../elementos_pantalla.c **** 	for(i = 0; i < num_filas; i++)
 2029              		.loc 1 108 0
 2030 0744 0000A0E3 		mov	r0, #0
 2031 0748 18000BE5 		str	r0, [fp, #-24]
 2032              	.LVL42:
 2033 074c 18301BE5 		ldr	r3, [fp, #-24]
 2034 0750 070053E3 		cmp	r3, #7
 2035 0754 2B0000CA 		bgt	.L33
 112:../elementos_pantalla.c **** 			Lcd_Draw_Box(100+25*j,20+25*i,125+25*j,45+25*i,BLACK);
 2036              		.loc 1 112 0
 2037 0758 0F40A0E3 		mov	r4, #15
 2038              	.LVL43:
 2039              	.L37:
 110:../elementos_pantalla.c **** 		for(j = 0; j < num_columnas; j++)
 2040              		.loc 1 110 0
 2041 075c 0020A0E3 		mov	r2, #0
 2042 0760 1C200BE5 		str	r2, [fp, #-28]
 2043 0764 1C101BE5 		ldr	r1, [fp, #-28]
 2044 0768 070051E3 		cmp	r1, #7
 2045 076c 1F0000CA 		bgt	.L34
 2046              	.L38:
 112:../elementos_pantalla.c **** 			Lcd_Draw_Box(100+25*j,20+25*i,125+25*j,45+25*i,BLACK);
 2047              		.loc 1 112 0
 2048 0770 1CC01BE5 		ldr	ip, [fp, #-28]
 2049 0774 18501BE5 		ldr	r5, [fp, #-24]
 2050 0778 1C201BE5 		ldr	r2, [fp, #-28]
 2051 077c 18301BE5 		ldr	r3, [fp, #-24]
 2052 0780 0C018CE0 		add	r0, ip, ip, asl #2
 2053 0784 051185E0 		add	r1, r5, r5, asl #2
 2054 0788 02E182E0 		add	lr, r2, r2, asl #2
 2055 078c 03C183E0 		add	ip, r3, r3, asl #2
 2056 0790 0E218EE0 		add	r2, lr, lr, asl #2
 2057 0794 0C318CE0 		add	r3, ip, ip, asl #2
 2058 0798 005180E0 		add	r5, r0, r0, asl #2
 2059 079c 011181E0 		add	r1, r1, r1, asl #2
 2060 07a0 7DC082E2 		add	ip, r2, #125
 2061 07a4 640085E2 		add	r0, r5, #100
 2062 07a8 14E081E2 		add	lr, r1, #20
 2063 07ac 2D5083E2 		add	r5, r3, #45
 2064 07b0 0C28A0E1 		mov	r2, ip, asl #16
 2065 07b4 0E18A0E1 		mov	r1, lr, asl #16
 2066 07b8 0008A0E1 		mov	r0, r0, asl #16
 2067 07bc 05E8A0E1 		mov	lr, r5, asl #16
 2068 07c0 4E38A0E1 		mov	r3, lr, asr #16
 2069 07c4 4008A0E1 		mov	r0, r0, asr #16
 2070 07c8 4118A0E1 		mov	r1, r1, asr #16
 2071 07cc 4228A0E1 		mov	r2, r2, asr #16
 2072 07d0 00408DE5 		str	r4, [sp, #0]
 2073 07d4 FEFFFFEB 		bl	Lcd_Draw_Box
 110:../elementos_pantalla.c **** 		for(j = 0; j < num_columnas; j++)
 2074              		.loc 1 110 0
 2075 07d8 1C301BE5 		ldr	r3, [fp, #-28]
 2076 07dc 01C083E2 		add	ip, r3, #1
 2077 07e0 1CC00BE5 		str	ip, [fp, #-28]
 2078 07e4 1C501BE5 		ldr	r5, [fp, #-28]
 2079 07e8 070055E3 		cmp	r5, #7
 2080 07ec DFFFFFDA 		ble	.L38
 2081              	.L34:
 108:../elementos_pantalla.c **** 	for(i = 0; i < num_filas; i++)
 2082              		.loc 1 108 0
 2083 07f0 18001BE5 		ldr	r0, [fp, #-24]
 2084 07f4 011080E2 		add	r1, r0, #1
 2085 07f8 18100BE5 		str	r1, [fp, #-24]
 2086 07fc 18E01BE5 		ldr	lr, [fp, #-24]
 2087 0800 07005EE3 		cmp	lr, #7
 2088 0804 D4FFFFDA 		ble	.L37
 2089              	.L33:
 2090              	.LVL44:
 2091              	.LBE33:
 2092              	.LBE32:
 2093              	.LBB34:
 2094              	.LBB35:
 123:../elementos_pantalla.c **** 		Lcd_DspAscII8x16(110 + 25*i, 0,BLACK,itoa(i+1, buffer,10));	//10 para pasar a decimal
 2095              		.loc 1 123 0
 2096 0808 2C104BE2 		sub	r1, fp, #44
 2097 080c 0A20A0E3 		mov	r2, #10
 2098 0810 0100A0E3 		mov	r0, #1
 2099 0814 FEFFFFEB 		bl	itoa
 2100 0818 0010A0E3 		mov	r1, #0
 2101 081c 0030A0E1 		mov	r3, r0
 2102 0820 0F20A0E3 		mov	r2, #15
 2103 0824 6E00A0E3 		mov	r0, #110
 2104 0828 FEFFFFEB 		bl	Lcd_DspAscII8x16
 124:../elementos_pantalla.c **** 		Lcd_DspAscII8x16(310,25 + 25*i,BLACK,itoa(i+1, buffer,10));
 2105              		.loc 1 124 0
 2106 082c 2C104BE2 		sub	r1, fp, #44
 2107 0830 0A20A0E3 		mov	r2, #10
 2108 0834 0100A0E3 		mov	r0, #1
 2109 0838 FEFFFFEB 		bl	itoa
 2110 083c 1910A0E3 		mov	r1, #25
 2111 0840 0030A0E1 		mov	r3, r0
 2112 0844 0F20A0E3 		mov	r2, #15
 2113 0848 54049FE5 		ldr	r0, .L41
 2114 084c FEFFFFEB 		bl	Lcd_DspAscII8x16
 2115              	.LVL45:
 123:../elementos_pantalla.c **** 		Lcd_DspAscII8x16(110 + 25*i, 0,BLACK,itoa(i+1, buffer,10));	//10 para pasar a decimal
 2116              		.loc 1 123 0
 2117 0850 2C104BE2 		sub	r1, fp, #44
 2118 0854 0A20A0E3 		mov	r2, #10
 2119 0858 0200A0E3 		mov	r0, #2
 2120 085c FEFFFFEB 		bl	itoa
 2121 0860 0010A0E3 		mov	r1, #0
 2122 0864 0030A0E1 		mov	r3, r0
 2123 0868 0F20A0E3 		mov	r2, #15
 2124 086c 8700A0E3 		mov	r0, #135
 2125 0870 FEFFFFEB 		bl	Lcd_DspAscII8x16
 124:../elementos_pantalla.c **** 		Lcd_DspAscII8x16(310,25 + 25*i,BLACK,itoa(i+1, buffer,10));
 2126              		.loc 1 124 0
 2127 0874 2C104BE2 		sub	r1, fp, #44
 2128 0878 0A20A0E3 		mov	r2, #10
 2129 087c 0200A0E3 		mov	r0, #2
 2130 0880 FEFFFFEB 		bl	itoa
 2131 0884 3210A0E3 		mov	r1, #50
 2132 0888 0030A0E1 		mov	r3, r0
 2133 088c 0F20A0E3 		mov	r2, #15
 2134 0890 0C049FE5 		ldr	r0, .L41
 2135 0894 FEFFFFEB 		bl	Lcd_DspAscII8x16
 2136              	.LVL46:
 123:../elementos_pantalla.c **** 		Lcd_DspAscII8x16(110 + 25*i, 0,BLACK,itoa(i+1, buffer,10));	//10 para pasar a decimal
 2137              		.loc 1 123 0
 2138 0898 2C104BE2 		sub	r1, fp, #44
 2139 089c 0A20A0E3 		mov	r2, #10
 2140 08a0 0300A0E3 		mov	r0, #3
 2141 08a4 FEFFFFEB 		bl	itoa
 2142 08a8 0010A0E3 		mov	r1, #0
 2143 08ac 0030A0E1 		mov	r3, r0
 2144 08b0 0F20A0E3 		mov	r2, #15
 2145 08b4 A000A0E3 		mov	r0, #160
 2146 08b8 FEFFFFEB 		bl	Lcd_DspAscII8x16
 124:../elementos_pantalla.c **** 		Lcd_DspAscII8x16(310,25 + 25*i,BLACK,itoa(i+1, buffer,10));
 2147              		.loc 1 124 0
 2148 08bc 2C104BE2 		sub	r1, fp, #44
 2149 08c0 0A20A0E3 		mov	r2, #10
 2150 08c4 0300A0E3 		mov	r0, #3
 2151 08c8 FEFFFFEB 		bl	itoa
 2152 08cc 4B10A0E3 		mov	r1, #75
 2153 08d0 0030A0E1 		mov	r3, r0
 2154 08d4 0F20A0E3 		mov	r2, #15
 2155 08d8 C4039FE5 		ldr	r0, .L41
 2156 08dc FEFFFFEB 		bl	Lcd_DspAscII8x16
 2157              	.LVL47:
 123:../elementos_pantalla.c **** 		Lcd_DspAscII8x16(110 + 25*i, 0,BLACK,itoa(i+1, buffer,10));	//10 para pasar a decimal
 2158              		.loc 1 123 0
 2159 08e0 2C104BE2 		sub	r1, fp, #44
 2160 08e4 0A20A0E3 		mov	r2, #10
 2161 08e8 0400A0E3 		mov	r0, #4
 2162 08ec FEFFFFEB 		bl	itoa
 2163 08f0 0010A0E3 		mov	r1, #0
 2164 08f4 0030A0E1 		mov	r3, r0
 2165 08f8 0F20A0E3 		mov	r2, #15
 2166 08fc B900A0E3 		mov	r0, #185
 2167 0900 FEFFFFEB 		bl	Lcd_DspAscII8x16
 124:../elementos_pantalla.c **** 		Lcd_DspAscII8x16(310,25 + 25*i,BLACK,itoa(i+1, buffer,10));
 2168              		.loc 1 124 0
 2169 0904 2C104BE2 		sub	r1, fp, #44
 2170 0908 0A20A0E3 		mov	r2, #10
 2171 090c 0400A0E3 		mov	r0, #4
 2172 0910 FEFFFFEB 		bl	itoa
 2173 0914 6410A0E3 		mov	r1, #100
 2174 0918 0030A0E1 		mov	r3, r0
 2175 091c 0F20A0E3 		mov	r2, #15
 2176 0920 7C039FE5 		ldr	r0, .L41
 2177 0924 FEFFFFEB 		bl	Lcd_DspAscII8x16
 2178              	.LVL48:
 123:../elementos_pantalla.c **** 		Lcd_DspAscII8x16(110 + 25*i, 0,BLACK,itoa(i+1, buffer,10));	//10 para pasar a decimal
 2179              		.loc 1 123 0
 2180 0928 2C104BE2 		sub	r1, fp, #44
 2181 092c 0A20A0E3 		mov	r2, #10
 2182 0930 0500A0E3 		mov	r0, #5
 2183 0934 FEFFFFEB 		bl	itoa
 2184 0938 0010A0E3 		mov	r1, #0
 2185 093c 0030A0E1 		mov	r3, r0
 2186 0940 0F20A0E3 		mov	r2, #15
 2187 0944 D200A0E3 		mov	r0, #210
 2188 0948 FEFFFFEB 		bl	Lcd_DspAscII8x16
 124:../elementos_pantalla.c **** 		Lcd_DspAscII8x16(310,25 + 25*i,BLACK,itoa(i+1, buffer,10));
 2189              		.loc 1 124 0
 2190 094c 2C104BE2 		sub	r1, fp, #44
 2191 0950 0A20A0E3 		mov	r2, #10
 2192 0954 0500A0E3 		mov	r0, #5
 2193 0958 FEFFFFEB 		bl	itoa
 2194 095c 7D10A0E3 		mov	r1, #125
 2195 0960 0030A0E1 		mov	r3, r0
 2196 0964 0F20A0E3 		mov	r2, #15
 2197 0968 34039FE5 		ldr	r0, .L41
 2198 096c FEFFFFEB 		bl	Lcd_DspAscII8x16
 2199              	.LVL49:
 123:../elementos_pantalla.c **** 		Lcd_DspAscII8x16(110 + 25*i, 0,BLACK,itoa(i+1, buffer,10));	//10 para pasar a decimal
 2200              		.loc 1 123 0
 2201 0970 2C104BE2 		sub	r1, fp, #44
 2202 0974 0A20A0E3 		mov	r2, #10
 2203 0978 0600A0E3 		mov	r0, #6
 2204 097c FEFFFFEB 		bl	itoa
 2205 0980 0010A0E3 		mov	r1, #0
 2206 0984 0030A0E1 		mov	r3, r0
 2207 0988 0F20A0E3 		mov	r2, #15
 2208 098c EB00A0E3 		mov	r0, #235
 2209 0990 FEFFFFEB 		bl	Lcd_DspAscII8x16
 124:../elementos_pantalla.c **** 		Lcd_DspAscII8x16(310,25 + 25*i,BLACK,itoa(i+1, buffer,10));
 2210              		.loc 1 124 0
 2211 0994 2C104BE2 		sub	r1, fp, #44
 2212 0998 0A20A0E3 		mov	r2, #10
 2213 099c 0600A0E3 		mov	r0, #6
 2214 09a0 FEFFFFEB 		bl	itoa
 2215 09a4 9610A0E3 		mov	r1, #150
 2216 09a8 0030A0E1 		mov	r3, r0
 2217 09ac 0F20A0E3 		mov	r2, #15
 2218 09b0 EC029FE5 		ldr	r0, .L41
 2219 09b4 FEFFFFEB 		bl	Lcd_DspAscII8x16
 2220              	.LVL50:
 123:../elementos_pantalla.c **** 		Lcd_DspAscII8x16(110 + 25*i, 0,BLACK,itoa(i+1, buffer,10));	//10 para pasar a decimal
 2221              		.loc 1 123 0
 2222 09b8 2C104BE2 		sub	r1, fp, #44
 2223 09bc 0A20A0E3 		mov	r2, #10
 2224 09c0 0700A0E3 		mov	r0, #7
 2225 09c4 FEFFFFEB 		bl	itoa
 2226 09c8 0010A0E3 		mov	r1, #0
 2227 09cc 0030A0E1 		mov	r3, r0
 2228 09d0 0F20A0E3 		mov	r2, #15
 2229 09d4 410FA0E3 		mov	r0, #260
 2230 09d8 FEFFFFEB 		bl	Lcd_DspAscII8x16
 124:../elementos_pantalla.c **** 		Lcd_DspAscII8x16(310,25 + 25*i,BLACK,itoa(i+1, buffer,10));
 2231              		.loc 1 124 0
 2232 09dc 2C104BE2 		sub	r1, fp, #44
 2233 09e0 0A20A0E3 		mov	r2, #10
 2234 09e4 0700A0E3 		mov	r0, #7
 2235 09e8 FEFFFFEB 		bl	itoa
 2236 09ec AF10A0E3 		mov	r1, #175
 2237 09f0 0030A0E1 		mov	r3, r0
 2238 09f4 0F20A0E3 		mov	r2, #15
 2239 09f8 A4029FE5 		ldr	r0, .L41
 2240 09fc FEFFFFEB 		bl	Lcd_DspAscII8x16
 2241              	.LVL51:
 123:../elementos_pantalla.c **** 		Lcd_DspAscII8x16(110 + 25*i, 0,BLACK,itoa(i+1, buffer,10));	//10 para pasar a decimal
 2242              		.loc 1 123 0
 2243 0a00 2C104BE2 		sub	r1, fp, #44
 2244 0a04 0A20A0E3 		mov	r2, #10
 2245 0a08 0800A0E3 		mov	r0, #8
 2246 0a0c FEFFFFEB 		bl	itoa
 2247 0a10 0010A0E3 		mov	r1, #0
 2248 0a14 0030A0E1 		mov	r3, r0
 2249 0a18 0F20A0E3 		mov	r2, #15
 2250 0a1c 84029FE5 		ldr	r0, .L41+4
 2251 0a20 FEFFFFEB 		bl	Lcd_DspAscII8x16
 124:../elementos_pantalla.c **** 		Lcd_DspAscII8x16(310,25 + 25*i,BLACK,itoa(i+1, buffer,10));
 2252              		.loc 1 124 0
 2253 0a24 2C104BE2 		sub	r1, fp, #44
 2254 0a28 0A20A0E3 		mov	r2, #10
 2255 0a2c 0800A0E3 		mov	r0, #8
 2256 0a30 FEFFFFEB 		bl	itoa
 2257 0a34 C810A0E3 		mov	r1, #200
 2258 0a38 0030A0E1 		mov	r3, r0
 2259 0a3c 0F20A0E3 		mov	r2, #15
 2260 0a40 5C029FE5 		ldr	r0, .L41
 2261 0a44 FEFFFFEB 		bl	Lcd_DspAscII8x16
 2262              	.LVL52:
 2263              	.LBE35:
 2264              	.LBE34:
 2265              	.LBB36:
 2266              	.LBB37:
 130:../elementos_pantalla.c **** 	Lcd_DspAscII8x16(5,10,BLACK,"Tiempo total");
 2267              		.loc 1 130 0
 2268 0a48 0500A0E3 		mov	r0, #5
 2269 0a4c 0A10A0E3 		mov	r1, #10
 2270 0a50 0F20A0E3 		mov	r2, #15
 2271 0a54 50329FE5 		ldr	r3, .L41+8
 2272 0a58 FEFFFFEB 		bl	Lcd_DspAscII8x16
 131:../elementos_pantalla.c **** 	Lcd_DspAscII8x16(20,20,BLACK,"de juego:");
 2273              		.loc 1 131 0
 2274 0a5c 1400A0E3 		mov	r0, #20
 2275 0a60 0010A0E1 		mov	r1, r0
 2276 0a64 0F20A0E3 		mov	r2, #15
 2277 0a68 40329FE5 		ldr	r3, .L41+12
 2278 0a6c FEFFFFEB 		bl	Lcd_DspAscII8x16
 132:../elementos_pantalla.c **** 	Lcd_DspAscII8x16(5,60,BLACK,"Tiempo para");
 2279              		.loc 1 132 0
 2280 0a70 0500A0E3 		mov	r0, #5
 2281 0a74 3C10A0E3 		mov	r1, #60
 2282 0a78 0F20A0E3 		mov	r2, #15
 2283 0a7c 30329FE5 		ldr	r3, .L41+16
 2284 0a80 FEFFFFEB 		bl	Lcd_DspAscII8x16
 133:../elementos_pantalla.c **** 	Lcd_DspAscII8x16(20,70,BLACK,"calculos:");
 2285              		.loc 1 133 0
 2286 0a84 1400A0E3 		mov	r0, #20
 2287 0a88 4610A0E3 		mov	r1, #70
 2288 0a8c 0F20A0E3 		mov	r2, #15
 2289 0a90 20329FE5 		ldr	r3, .L41+20
 2290 0a94 FEFFFFEB 		bl	Lcd_DspAscII8x16
 134:../elementos_pantalla.c **** 	Lcd_DspAscII8x16(5,110,BLACK,"Tiempo para");
 2291              		.loc 1 134 0
 2292 0a98 0500A0E3 		mov	r0, #5
 2293 0a9c 6E10A0E3 		mov	r1, #110
 2294 0aa0 0F20A0E3 		mov	r2, #15
 2295 0aa4 08329FE5 		ldr	r3, .L41+16
 2296 0aa8 FEFFFFEB 		bl	Lcd_DspAscII8x16
 135:../elementos_pantalla.c **** 	Lcd_DspAscII8x16(20,120,BLACK,"p.volteo:");
 2297              		.loc 1 135 0
 2298 0aac 1400A0E3 		mov	r0, #20
 2299 0ab0 7810A0E3 		mov	r1, #120
 2300 0ab4 0F20A0E3 		mov	r2, #15
 2301 0ab8 FC319FE5 		ldr	r3, .L41+24
 2302 0abc FEFFFFEB 		bl	Lcd_DspAscII8x16
 136:../elementos_pantalla.c **** 	Lcd_DspAscII8x16(5,160,BLACK,"Numero inv.");
 2303              		.loc 1 136 0
 2304 0ac0 0500A0E3 		mov	r0, #5
 2305 0ac4 A010A0E3 		mov	r1, #160
 2306 0ac8 0F20A0E3 		mov	r2, #15
 2307 0acc EC319FE5 		ldr	r3, .L41+28
 2308 0ad0 FEFFFFEB 		bl	Lcd_DspAscII8x16
 137:../elementos_pantalla.c **** 	Lcd_DspAscII8x16(20,170,BLACK,"p.volteo:");
 2309              		.loc 1 137 0
 2310 0ad4 1400A0E3 		mov	r0, #20
 2311 0ad8 AA10A0E3 		mov	r1, #170
 2312 0adc 0F20A0E3 		mov	r2, #15
 2313 0ae0 D4319FE5 		ldr	r3, .L41+24
 2314 0ae4 FEFFFFEB 		bl	Lcd_DspAscII8x16
 138:../elementos_pantalla.c **** 	Lcd_DspAscII8x16(0,220,BLACK,"-> TOCA LA PANTALLA PARA HACER TU JUGADA");
 2315              		.loc 1 138 0
 2316 0ae8 0000A0E3 		mov	r0, #0
 2317 0aec DC10A0E3 		mov	r1, #220
 2318 0af0 0F20A0E3 		mov	r2, #15
 2319 0af4 C8319FE5 		ldr	r3, .L41+32
 2320              	.LBE37:
 2321              	.LBE36:
 2322              	.LBB39:
 2323              	.LBB41:
 178:../elementos_pantalla.c **** 	LcdClrRect(20, 35, 75, 50, 0x0000);
 2324              		.loc 1 178 0
 2325 0af8 0050A0E1 		mov	r5, r0
 2326              	.LBE41:
 2327              	.LBE39:
 2328              	.LBB43:
 2329              	.LBB38:
 138:../elementos_pantalla.c **** 	Lcd_DspAscII8x16(0,220,BLACK,"-> TOCA LA PANTALLA PARA HACER TU JUGADA");
 2330              		.loc 1 138 0
 2331 0afc FEFFFFEB 		bl	Lcd_DspAscII8x16
 2332              	.LVL53:
 2333              	.LBE38:
 2334              	.LBE43:
 2335              	.LBB44:
 2336              	.LBB40:
 178:../elementos_pantalla.c **** 	LcdClrRect(20, 35, 75, 50, 0x0000);
 2337              		.loc 1 178 0
 2338 0b00 1400A0E3 		mov	r0, #20
 2339 0b04 2310A0E3 		mov	r1, #35
 2340 0b08 4B20A0E3 		mov	r2, #75
 2341 0b0c 3230A0E3 		mov	r3, #50
 2342 0b10 00508DE5 		str	r5, [sp, #0]
 2343 0b14 FEFFFFEB 		bl	LcdClrRect
 179:../elementos_pantalla.c **** 	LcdClrRect(20, 85, 95, 100, 0x0000);
 2344              		.loc 1 179 0
 2345 0b18 1400A0E3 		mov	r0, #20
 2346 0b1c 5510A0E3 		mov	r1, #85
 2347 0b20 5F20A0E3 		mov	r2, #95
 2348 0b24 6430A0E3 		mov	r3, #100
 2349 0b28 00508DE5 		str	r5, [sp, #0]
 2350 0b2c FEFFFFEB 		bl	LcdClrRect
 180:../elementos_pantalla.c **** 	LcdClrRect(20, 135, 95, 150, 0x0000);
 2351              		.loc 1 180 0
 2352 0b30 1400A0E3 		mov	r0, #20
 2353 0b34 8710A0E3 		mov	r1, #135
 2354 0b38 5F20A0E3 		mov	r2, #95
 2355 0b3c 9630A0E3 		mov	r3, #150
 2356 0b40 00508DE5 		str	r5, [sp, #0]
 2357 0b44 FEFFFFEB 		bl	LcdClrRect
 181:../elementos_pantalla.c **** 	LcdClrRect(20, 185, 75, 200, 0x0000);
 2358              		.loc 1 181 0
 2359 0b48 C830A0E3 		mov	r3, #200
 2360 0b4c 4B20A0E3 		mov	r2, #75
 2361 0b50 1400A0E3 		mov	r0, #20
 2362 0b54 B910A0E3 		mov	r1, #185
 2363 0b58 00508DE5 		str	r5, [sp, #0]
 2364 0b5c FEFFFFEB 		bl	LcdClrRect
 183:../elementos_pantalla.c **** 	itoa(t_total, buffer, 10);				//10 es para indicar que pasamos a números decimales
 2365              		.loc 1 183 0
 2366 0b60 2C104BE2 		sub	r1, fp, #44
 2367 0b64 0500A0E1 		mov	r0, r5
 2368 0b68 0A20A0E3 		mov	r2, #10
 2369 0b6c FEFFFFEB 		bl	itoa
 184:../elementos_pantalla.c **** 	Lcd_DspAscII8x16(20,35,BLACK,buffer);
 2370              		.loc 1 184 0
 2371 0b70 2C304BE2 		sub	r3, fp, #44
 2372 0b74 0F20A0E3 		mov	r2, #15
 2373 0b78 1400A0E3 		mov	r0, #20
 2374 0b7c 2310A0E3 		mov	r1, #35
 2375 0b80 FEFFFFEB 		bl	Lcd_DspAscII8x16
 185:../elementos_pantalla.c **** 	itoa(t_calc, buffer, 10);
 2376              		.loc 1 185 0
 2377 0b84 2C104BE2 		sub	r1, fp, #44
 2378 0b88 0500A0E1 		mov	r0, r5
 2379 0b8c 0A20A0E3 		mov	r2, #10
 2380 0b90 FEFFFFEB 		bl	itoa
 186:../elementos_pantalla.c **** 	Lcd_DspAscII8x16(20,85,BLACK,buffer);
 2381              		.loc 1 186 0
 2382 0b94 2C304BE2 		sub	r3, fp, #44
 2383 0b98 0F20A0E3 		mov	r2, #15
 2384 0b9c 1400A0E3 		mov	r0, #20
 2385 0ba0 5510A0E3 		mov	r1, #85
 2386 0ba4 FEFFFFEB 		bl	Lcd_DspAscII8x16
 187:../elementos_pantalla.c **** 	itoa(t_pvolteo, buffer, 10);
 2387              		.loc 1 187 0
 2388 0ba8 2C104BE2 		sub	r1, fp, #44
 2389 0bac 0500A0E1 		mov	r0, r5
 2390 0bb0 0A20A0E3 		mov	r2, #10
 2391 0bb4 FEFFFFEB 		bl	itoa
 188:../elementos_pantalla.c **** 	Lcd_DspAscII8x16(20,135,BLACK,buffer);
 2392              		.loc 1 188 0
 2393 0bb8 2C304BE2 		sub	r3, fp, #44
 2394 0bbc 0F20A0E3 		mov	r2, #15
 2395 0bc0 1400A0E3 		mov	r0, #20
 2396 0bc4 8710A0E3 		mov	r1, #135
 2397              	.LBE40:
 2398              	.LBE44:
 2399              	.LBB45:
 2400              	.LBB47:
 152:../elementos_pantalla.c **** 			BitmapView(101+25*col, 21+25*fila, Stru_Bitmap_fichaGris);
 2401              		.loc 1 152 0
 2402 0bc8 F8409FE5 		ldr	r4, .L41+36
 2403              	.LBE47:
 2404              	.LBE45:
 2405              	.LBB49:
 2406              	.LBB42:
 188:../elementos_pantalla.c **** 	Lcd_DspAscII8x16(20,135,BLACK,buffer);
 2407              		.loc 1 188 0
 2408 0bcc FEFFFFEB 		bl	Lcd_DspAscII8x16
 189:../elementos_pantalla.c **** 	itoa(veces_pvolteo, buffer, 10);
 2409              		.loc 1 189 0
 2410 0bd0 2C104BE2 		sub	r1, fp, #44
 2411 0bd4 0500A0E1 		mov	r0, r5
 2412 0bd8 0A20A0E3 		mov	r2, #10
 2413 0bdc FEFFFFEB 		bl	itoa
 190:../elementos_pantalla.c **** 	Lcd_DspAscII8x16(20,185,BLACK,buffer);
 2414              		.loc 1 190 0
 2415 0be0 2C304BE2 		sub	r3, fp, #44
 2416 0be4 1400A0E3 		mov	r0, #20
 2417 0be8 B910A0E3 		mov	r1, #185
 2418 0bec 0F20A0E3 		mov	r2, #15
 2419 0bf0 FEFFFFEB 		bl	Lcd_DspAscII8x16
 2420              	.LVL54:
 2421              	.LBE42:
 2422              	.LBE49:
 2423              	.LBB50:
 2424              	.LBB46:
 152:../elementos_pantalla.c **** 			BitmapView(101+25*col, 21+25*fila, Stru_Bitmap_fichaGris);
 2425              		.loc 1 152 0
 2426 0bf4 281084E2 		add	r1, r4, #40
 2427 0bf8 030091E8 		ldmia	r1, {r0, r1}
 2428 0bfc 0D20A0E1 		mov	r2, sp
 2429 0c00 030082E8 		stmia	r2, {r0, r1}
 2430 0c04 203084E2 		add	r3, r4, #32
 2431              	.LBE46:
 2432              	.LBE50:
 2433              	.LBB51:
 2434              	.LBB52:
 146:../elementos_pantalla.c **** 			BitmapView(101+25*col, 21+25*fila, Stru_Bitmap_fichaBlanca);
 2435              		.loc 1 146 0
 2436 0c08 085084E2 		add	r5, r4, #8
 2437              	.LBE52:
 2438              	.LBE51:
 2439              	.LBB54:
 2440              	.LBB48:
 152:../elementos_pantalla.c **** 			BitmapView(101+25*col, 21+25*fila, Stru_Bitmap_fichaGris);
 2441              		.loc 1 152 0
 2442 0c0c 0C0093E8 		ldmia	r3, {r2, r3}
 2443 0c10 6500A0E3 		mov	r0, #101
 2444 0c14 1510A0E3 		mov	r1, #21
 2445 0c18 FEFFFFEB 		bl	BitmapView
 2446              	.LVL55:
 2447              	.LBE48:
 2448              	.LBE54:
 2449              	.LBB55:
 2450              	.LBB53:
 146:../elementos_pantalla.c **** 			BitmapView(101+25*col, 21+25*fila, Stru_Bitmap_fichaBlanca);
 2451              		.loc 1 146 0
 2452 0c1c 030095E8 		ldmia	r5, {r0, r1}
 2453 0c20 0DC0A0E1 		mov	ip, sp
 2454 0c24 0C0094E8 		ldmia	r4, {r2, r3}
 2455 0c28 03008CE8 		stmia	ip, {r0, r1}
 2456 0c2c B000A0E3 		mov	r0, #176
 2457 0c30 6010A0E3 		mov	r1, #96
 2458 0c34 FEFFFFEB 		bl	BitmapView
 2459              	.LVL56:
 2460              	.LBE53:
 2461              	.LBE55:
 2462              	.LBB56:
 2463              	.LBB57:
 2464 0c38 030095E8 		ldmia	r5, {r0, r1}
 2465 0c3c 0D50A0E1 		mov	r5, sp
 2466 0c40 0C0094E8 		ldmia	r4, {r2, r3}
 2467 0c44 030085E8 		stmia	r5, {r0, r1}
 2468              	.LBE57:
 2469              	.LBE56:
 2470              	.LBB59:
 2471              	.LBB60:
 149:../elementos_pantalla.c **** 			BitmapView(101+25*col, 21+25*fila, Stru_Bitmap_fichaNegra);
 2472              		.loc 1 149 0
 2473 0c48 185084E2 		add	r5, r4, #24
 2474              	.LBE60:
 2475              	.LBE59:
 2476              	.LBB62:
 2477              	.LBB58:
 146:../elementos_pantalla.c **** 			BitmapView(101+25*col, 21+25*fila, Stru_Bitmap_fichaBlanca);
 2478              		.loc 1 146 0
 2479 0c4c C900A0E3 		mov	r0, #201
 2480 0c50 7910A0E3 		mov	r1, #121
 2481 0c54 FEFFFFEB 		bl	BitmapView
 2482              	.LVL57:
 2483              	.LBE58:
 2484              	.LBE62:
 2485              	.LBB63:
 2486              	.LBB61:
 149:../elementos_pantalla.c **** 			BitmapView(101+25*col, 21+25*fila, Stru_Bitmap_fichaNegra);
 2487              		.loc 1 149 0
 2488 0c58 030095E8 		ldmia	r5, {r0, r1}
 2489 0c5c 0D30A0E1 		mov	r3, sp
 2490 0c60 030083E8 		stmia	r3, {r0, r1}
 2491 0c64 104084E2 		add	r4, r4, #16
 2492 0c68 0C0094E8 		ldmia	r4, {r2, r3}
 2493 0c6c C900A0E3 		mov	r0, #201
 2494 0c70 6010A0E3 		mov	r1, #96
 2495 0c74 FEFFFFEB 		bl	BitmapView
 2496              	.LVL58:
 2497              	.LBE61:
 2498              	.LBE63:
 2499              	.LBB64:
 2500              	.LBB65:
 2501 0c78 030095E8 		ldmia	r5, {r0, r1}
 2502 0c7c 0DC0A0E1 		mov	ip, sp
 2503 0c80 0C0094E8 		ldmia	r4, {r2, r3}
 2504 0c84 03008CE8 		stmia	ip, {r0, r1}
 2505 0c88 B000A0E3 		mov	r0, #176
 2506 0c8c 7910A0E3 		mov	r1, #121
 2507 0c90 FEFFFFEB 		bl	BitmapView
 2508              	.LBE65:
 2509              	.LBE64:
 196:../elementos_pantalla.c **** 	pintar_cuadricula();
 197:../elementos_pantalla.c **** 	pintar_numeros_tablero();
 198:../elementos_pantalla.c **** 	pintar_textos();
 199:../elementos_pantalla.c **** 	pintar_profiling(0,0,0,0);
 200:../elementos_pantalla.c **** 	pintar_ficha(0,0,3);	//Pintar la ficha gris en 0,0
 201:../elementos_pantalla.c **** 	pintar_ficha(3,3,FICHA_BLANCA);	//Pintar las fichas blancas iniciales en 3,3 y 4,4
 202:../elementos_pantalla.c **** 	pintar_ficha(4,4,FICHA_BLANCA);
 203:../elementos_pantalla.c **** 	pintar_ficha(3,4,FICHA_NEGRA);	//Pintar las fichas negras en 3,4 y 4,3
 204:../elementos_pantalla.c **** 	pintar_ficha(4,3,FICHA_NEGRA);
 205:../elementos_pantalla.c **** 	Lcd_Dma_Trans();
 2510              		.loc 1 205 0
 2511 0c94 FEFFFFEB 		bl	Lcd_Dma_Trans
 206:../elementos_pantalla.c **** }
 2512              		.loc 1 206 0
 2513 0c98 14D04BE2 		sub	sp, fp, #20
 2514 0c9c 30689DE8 		ldmfd	sp, {r4, r5, fp, sp, lr}
 2515 0ca0 1EFF2FE1 		bx	lr
 2516              	.L42:
 2517              		.align	2
 2518              	.L41:
 2519 0ca4 36010000 		.word	310
 2520 0ca8 1D010000 		.word	285
 2521 0cac 00000000 		.word	.LC0
 2522 0cb0 10000000 		.word	.LC1
 2523 0cb4 1C000000 		.word	.LC2
 2524 0cb8 28000000 		.word	.LC3
 2525 0cbc 34000000 		.word	.LC4
 2526 0cc0 40000000 		.word	.LC5
 2527 0cc4 4C000000 		.word	.LC6
 2528 0cc8 00000000 		.word	.LANCHOR0
 2529              		.cfi_endproc
 2530              	.LFE7:
 2532              		.align	2
 2533              		.global	pintar_prueba
 2535              	pintar_prueba:
 2536              	.LFB8:
 207:../elementos_pantalla.c **** 
 208:../elementos_pantalla.c **** void pintar_prueba()
 209:../elementos_pantalla.c **** {
 2537              		.loc 1 209 0
 2538              		.cfi_startproc
 2539              		@ Function supports interworking.
 2540              		@ args = 0, pretend = 0, frame = 8
 2541              		@ frame_needed = 1, uses_anonymous_args = 0
 2542 0ccc 0DC0A0E1 		mov	ip, sp
 2543              	.LCFI16:
 2544              		.cfi_def_cfa_register 12
 2545 0cd0 30D82DE9 		stmfd	sp!, {r4, r5, fp, ip, lr, pc}
 2546              	.LBB76:
 2547              	.LBB77:
 108:../elementos_pantalla.c **** 	for(i = 0; i < num_filas; i++)
 2548              		.loc 1 108 0
 2549 0cd4 0000A0E3 		mov	r0, #0
 2550              	.LBE77:
 2551              	.LBE76:
 2552              		.loc 1 209 0
 2553 0cd8 04B04CE2 		sub	fp, ip, #4
 2554              		.cfi_offset 14, -8
 2555              		.cfi_offset 13, -12
 2556              		.cfi_offset 11, -16
 2557              		.cfi_offset 5, -20
 2558              		.cfi_offset 4, -24
 2559              	.LCFI17:
 2560              		.cfi_def_cfa 11, 4
 2561 0cdc 10D04DE2 		sub	sp, sp, #16
 2562              	.LBB79:
 2563              	.LBB78:
 108:../elementos_pantalla.c **** 	for(i = 0; i < num_filas; i++)
 2564              		.loc 1 108 0
 2565 0ce0 18000BE5 		str	r0, [fp, #-24]
 2566              	.LVL59:
 2567 0ce4 18301BE5 		ldr	r3, [fp, #-24]
 2568 0ce8 070053E3 		cmp	r3, #7
 2569 0cec 2B0000CA 		bgt	.L44
 112:../elementos_pantalla.c **** 			Lcd_Draw_Box(100+25*j,20+25*i,125+25*j,45+25*i,BLACK);
 2570              		.loc 1 112 0
 2571 0cf0 0F40A0E3 		mov	r4, #15
 2572              	.LVL60:
 2573              	.L48:
 110:../elementos_pantalla.c **** 		for(j = 0; j < num_columnas; j++)
 2574              		.loc 1 110 0
 2575 0cf4 0020A0E3 		mov	r2, #0
 2576 0cf8 1C200BE5 		str	r2, [fp, #-28]
 2577 0cfc 1C101BE5 		ldr	r1, [fp, #-28]
 2578 0d00 070051E3 		cmp	r1, #7
 2579 0d04 1F0000CA 		bgt	.L45
 2580              	.L49:
 112:../elementos_pantalla.c **** 			Lcd_Draw_Box(100+25*j,20+25*i,125+25*j,45+25*i,BLACK);
 2581              		.loc 1 112 0
 2582 0d08 1CC01BE5 		ldr	ip, [fp, #-28]
 2583 0d0c 18501BE5 		ldr	r5, [fp, #-24]
 2584 0d10 1C201BE5 		ldr	r2, [fp, #-28]
 2585 0d14 18301BE5 		ldr	r3, [fp, #-24]
 2586 0d18 0C018CE0 		add	r0, ip, ip, asl #2
 2587 0d1c 051185E0 		add	r1, r5, r5, asl #2
 2588 0d20 02E182E0 		add	lr, r2, r2, asl #2
 2589 0d24 03C183E0 		add	ip, r3, r3, asl #2
 2590 0d28 0E218EE0 		add	r2, lr, lr, asl #2
 2591 0d2c 0C318CE0 		add	r3, ip, ip, asl #2
 2592 0d30 005180E0 		add	r5, r0, r0, asl #2
 2593 0d34 011181E0 		add	r1, r1, r1, asl #2
 2594 0d38 7DC082E2 		add	ip, r2, #125
 2595 0d3c 640085E2 		add	r0, r5, #100
 2596 0d40 14E081E2 		add	lr, r1, #20
 2597 0d44 2D5083E2 		add	r5, r3, #45
 2598 0d48 0C28A0E1 		mov	r2, ip, asl #16
 2599 0d4c 0E18A0E1 		mov	r1, lr, asl #16
 2600 0d50 0008A0E1 		mov	r0, r0, asl #16
 2601 0d54 05E8A0E1 		mov	lr, r5, asl #16
 2602 0d58 4E38A0E1 		mov	r3, lr, asr #16
 2603 0d5c 4008A0E1 		mov	r0, r0, asr #16
 2604 0d60 4118A0E1 		mov	r1, r1, asr #16
 2605 0d64 4228A0E1 		mov	r2, r2, asr #16
 2606 0d68 00408DE5 		str	r4, [sp, #0]
 2607 0d6c FEFFFFEB 		bl	Lcd_Draw_Box
 110:../elementos_pantalla.c **** 		for(j = 0; j < num_columnas; j++)
 2608              		.loc 1 110 0
 2609 0d70 1C301BE5 		ldr	r3, [fp, #-28]
 2610 0d74 01C083E2 		add	ip, r3, #1
 2611 0d78 1CC00BE5 		str	ip, [fp, #-28]
 2612 0d7c 1C501BE5 		ldr	r5, [fp, #-28]
 2613 0d80 070055E3 		cmp	r5, #7
 2614 0d84 DFFFFFDA 		ble	.L49
 2615              	.L45:
 108:../elementos_pantalla.c **** 	for(i = 0; i < num_filas; i++)
 2616              		.loc 1 108 0
 2617 0d88 18001BE5 		ldr	r0, [fp, #-24]
 2618 0d8c 011080E2 		add	r1, r0, #1
 2619 0d90 18100BE5 		str	r1, [fp, #-24]
 2620 0d94 18E01BE5 		ldr	lr, [fp, #-24]
 2621 0d98 07005EE3 		cmp	lr, #7
 2622 0d9c D4FFFFDA 		ble	.L48
 2623              	.L44:
 2624              	.LVL61:
 2625              	.LBE78:
 2626              	.LBE79:
 2627              	.LBB80:
 2628              	.LBB81:
 146:../elementos_pantalla.c **** 			BitmapView(101+25*col, 21+25*fila, Stru_Bitmap_fichaBlanca);
 2629              		.loc 1 146 0
 2630 0da0 90409FE5 		ldr	r4, .L52
 2631 0da4 085084E2 		add	r5, r4, #8
 2632 0da8 030095E8 		ldmia	r5, {r0, r1}
 2633 0dac 0DE0A0E1 		mov	lr, sp
 2634 0db0 0C0094E8 		ldmia	r4, {r2, r3}
 2635 0db4 03008EE8 		stmia	lr, {r0, r1}
 2636 0db8 C410A0E3 		mov	r1, #196
 2637 0dbc 6500A0E3 		mov	r0, #101
 2638 0dc0 FEFFFFEB 		bl	BitmapView
 2639              	.LBE81:
 2640              	.LBE80:
 210:../elementos_pantalla.c **** 	pintar_cuadricula();
 211:../elementos_pantalla.c **** 	/*pintar_numeros_tablero();
 212:../elementos_pantalla.c **** 	pintar_textos();
 213:../elementos_pantalla.c **** 	pintar_ficha(0,0,1);
 214:../elementos_pantalla.c **** 	pintar_ficha(7,7,2);
 215:../elementos_pantalla.c **** 	pintar_ficha(3,3,3);
 216:../elementos_pantalla.c **** 	pintar_profiling(451245, 84512, 56456, 469352);*/
 217:../elementos_pantalla.c **** 	//Lcd_DspAscII8x16(0,0,BLACK,",,,,,,%#########%%%%%#####################################((/*******
 218:../elementos_pantalla.c **** 	//Lcd_DspAscII8x16(8,16,BLACK,",,,,%###########%%%%%%####################################((/******
 219:../elementos_pantalla.c **** 	//Lcd_DspAscII8x16(16,32,BLACK,"################%%%%%%%###################################((/*****
 220:../elementos_pantalla.c **** 	//Lcd_DspAscII8x16(24,48,BLACK,"REGLAS");
 221:../elementos_pantalla.c **** 	pintar_ficha(7, 0, FICHA_BLANCA);
 222:../elementos_pantalla.c **** 	Lcd_Dma_Trans();
 2641              		.loc 1 222 0
 2642 0dc4 FEFFFFEB 		bl	Lcd_Dma_Trans
 223:../elementos_pantalla.c **** 	Delay(250);
 2643              		.loc 1 223 0
 2644 0dc8 FA00A0E3 		mov	r0, #250
 2645 0dcc FEFFFFEB 		bl	Delay
 2646              	.LVL62:
 2647              	.LBB82:
 2648              	.LBB83:
 161:../elementos_pantalla.c **** 	LcdClrRect((100+25*c) + 1, (20+25*f) + 1, (125+25*c) - 1, (45+25*f) - 1, 0x0);
 2649              		.loc 1 161 0
 2650 0dd0 00C0A0E3 		mov	ip, #0
 2651 0dd4 C410A0E3 		mov	r1, #196
 2652 0dd8 7C20A0E3 		mov	r2, #124
 2653 0ddc DB30A0E3 		mov	r3, #219
 2654 0de0 6500A0E3 		mov	r0, #101
 2655 0de4 00C08DE5 		str	ip, [sp, #0]
 2656 0de8 FEFFFFEB 		bl	LcdClrRect
 2657              	.LBE83:
 2658              	.LBE82:
 224:../elementos_pantalla.c **** 	borrar_ficha(7, 0);
 225:../elementos_pantalla.c **** 	Lcd_Dma_Trans();
 2659              		.loc 1 225 0
 2660 0dec FEFFFFEB 		bl	Lcd_Dma_Trans
 226:../elementos_pantalla.c **** 	Delay(250);
 2661              		.loc 1 226 0
 2662 0df0 FA00A0E3 		mov	r0, #250
 2663 0df4 FEFFFFEB 		bl	Delay
 2664              	.LVL63:
 2665              	.LBB84:
 2666              	.LBB85:
 146:../elementos_pantalla.c **** 			BitmapView(101+25*col, 21+25*fila, Stru_Bitmap_fichaBlanca);
 2667              		.loc 1 146 0
 2668 0df8 030095E8 		ldmia	r5, {r0, r1}
 2669 0dfc 0DC0A0E1 		mov	ip, sp
 2670 0e00 0C0094E8 		ldmia	r4, {r2, r3}
 2671 0e04 03008CE8 		stmia	ip, {r0, r1}
 2672 0e08 C410A0E3 		mov	r1, #196
 2673 0e0c 6500A0E3 		mov	r0, #101
 2674 0e10 FEFFFFEB 		bl	BitmapView
 2675              	.LBE85:
 2676              	.LBE84:
 227:../elementos_pantalla.c **** 	pintar_ficha(7, 0, FICHA_BLANCA);
 228:../elementos_pantalla.c **** 	Lcd_Dma_Trans();
 2677              		.loc 1 228 0
 2678 0e14 FEFFFFEB 		bl	Lcd_Dma_Trans
 229:../elementos_pantalla.c **** 	Delay(250);
 2679              		.loc 1 229 0
 2680 0e18 FA00A0E3 		mov	r0, #250
 2681 0e1c FEFFFFEB 		bl	Delay
 2682              	.LVL64:
 230:../elementos_pantalla.c **** 	pintar_ficha(7, 0, 4);
 231:../elementos_pantalla.c **** 	Lcd_Dma_Trans();
 2683              		.loc 1 231 0
 2684 0e20 FEFFFFEB 		bl	Lcd_Dma_Trans
 232:../elementos_pantalla.c **** 	Delay(250);
 2685              		.loc 1 232 0
 2686 0e24 FA00A0E3 		mov	r0, #250
 2687 0e28 FEFFFFEB 		bl	Delay
 233:../elementos_pantalla.c **** }
 2688              		.loc 1 233 0
 2689 0e2c 14D04BE2 		sub	sp, fp, #20
 2690 0e30 30689DE8 		ldmfd	sp, {r4, r5, fp, sp, lr}
 2691 0e34 1EFF2FE1 		bx	lr
 2692              	.L53:
 2693              		.align	2
 2694              	.L52:
 2695 0e38 00000000 		.word	.LANCHOR0
 2696              		.cfi_endproc
 2697              	.LFE8:
 2699              		.align	2
 2700              		.global	pintar_reglas
 2702              	pintar_reglas:
 2703              	.LFB9:
 234:../elementos_pantalla.c **** 
 235:../elementos_pantalla.c **** void pintar_reglas()
 236:../elementos_pantalla.c **** {
 2704              		.loc 1 236 0
 2705              		.cfi_startproc
 2706              		@ Function supports interworking.
 2707              		@ args = 0, pretend = 0, frame = 0
 2708              		@ frame_needed = 1, uses_anonymous_args = 0
 2709 0e3c 0DC0A0E1 		mov	ip, sp
 2710              	.LCFI18:
 2711              		.cfi_def_cfa_register 12
 2712 0e40 00D82DE9 		stmfd	sp!, {fp, ip, lr, pc}
 2713 0e44 04B04CE2 		sub	fp, ip, #4
 2714              		.cfi_offset 14, -8
 2715              		.cfi_offset 13, -12
 2716              		.cfi_offset 11, -16
 2717              	.LCFI19:
 2718              		.cfi_def_cfa 11, 4
 237:../elementos_pantalla.c **** 	Lcd_Active_Clr();
 2719              		.loc 1 237 0
 2720 0e48 FEFFFFEB 		bl	Lcd_Active_Clr
 238:../elementos_pantalla.c **** 	Lcd_DspAscII8x16(110,1,BLACK,"REVERSI 8");
 2721              		.loc 1 238 0
 2722 0e4c 6E00A0E3 		mov	r0, #110
 2723 0e50 0110A0E3 		mov	r1, #1
 2724 0e54 0F20A0E3 		mov	r2, #15
 2725 0e58 28319FE5 		ldr	r3, .L55
 2726 0e5c FEFFFFEB 		bl	Lcd_DspAscII8x16
 239:../elementos_pantalla.c **** 	Lcd_DspAscII6x8(70,20,BLACK,"- A HIDEO KOJIMA GAME -");
 2727              		.loc 1 239 0
 2728 0e60 4600A0E3 		mov	r0, #70
 2729 0e64 1410A0E3 		mov	r1, #20
 2730 0e68 0F20A0E3 		mov	r2, #15
 2731 0e6c 18319FE5 		ldr	r3, .L55+4
 2732 0e70 FEFFFFEB 		bl	Lcd_DspAscII6x8
 240:../elementos_pantalla.c **** 	Lcd_DspAscII8x16(1,45,BLACK,"REGLAS:");
 2733              		.loc 1 240 0
 2734 0e74 0100A0E3 		mov	r0, #1
 2735 0e78 2D10A0E3 		mov	r1, #45
 2736 0e7c 0F20A0E3 		mov	r2, #15
 2737 0e80 08319FE5 		ldr	r3, .L55+8
 2738 0e84 FEFFFFEB 		bl	Lcd_DspAscII8x16
 241:../elementos_pantalla.c **** 	Lcd_DspAscII6x8(1,70,BLACK,"En cada turno, coloca una ficha que");
 2739              		.loc 1 241 0
 2740 0e88 0100A0E3 		mov	r0, #1
 2741 0e8c 4610A0E3 		mov	r1, #70
 2742 0e90 0F20A0E3 		mov	r2, #15
 2743 0e94 F8309FE5 		ldr	r3, .L55+12
 2744 0e98 FEFFFFEB 		bl	Lcd_DspAscII6x8
 242:../elementos_pantalla.c **** 	Lcd_DspAscII6x8(1,80,BLACK,"voltee alguna del rival.");
 2745              		.loc 1 242 0
 2746 0e9c 0100A0E3 		mov	r0, #1
 2747 0ea0 5010A0E3 		mov	r1, #80
 2748 0ea4 0F20A0E3 		mov	r2, #15
 2749 0ea8 E8309FE5 		ldr	r3, .L55+16
 2750 0eac FEFFFFEB 		bl	Lcd_DspAscII6x8
 243:../elementos_pantalla.c **** 	Lcd_DspAscII6x8(1,90,BLACK,"El juego termina cuando nadie puede");
 2751              		.loc 1 243 0
 2752 0eb0 0100A0E3 		mov	r0, #1
 2753 0eb4 5A10A0E3 		mov	r1, #90
 2754 0eb8 0F20A0E3 		mov	r2, #15
 2755 0ebc D8309FE5 		ldr	r3, .L55+20
 2756 0ec0 FEFFFFEB 		bl	Lcd_DspAscII6x8
 244:../elementos_pantalla.c **** 	Lcd_DspAscII6x8(1,100,BLACK,"mover. El jugador que tenga mas fichas");
 2757              		.loc 1 244 0
 2758 0ec4 0100A0E3 		mov	r0, #1
 2759 0ec8 6410A0E3 		mov	r1, #100
 2760 0ecc 0F20A0E3 		mov	r2, #15
 2761 0ed0 C8309FE5 		ldr	r3, .L55+24
 2762 0ed4 FEFFFFEB 		bl	Lcd_DspAscII6x8
 245:../elementos_pantalla.c **** 	Lcd_DspAscII6x8(1,110,BLACK,"volteadas con su color, gana.");
 2763              		.loc 1 245 0
 2764 0ed8 0100A0E3 		mov	r0, #1
 2765 0edc 6E10A0E3 		mov	r1, #110
 2766 0ee0 0F20A0E3 		mov	r2, #15
 2767 0ee4 B8309FE5 		ldr	r3, .L55+28
 2768 0ee8 FEFFFFEB 		bl	Lcd_DspAscII6x8
 246:../elementos_pantalla.c **** 	Lcd_DspAscII8x16(1,130,BLACK,"CONTROLES");
 2769              		.loc 1 246 0
 2770 0eec 0100A0E3 		mov	r0, #1
 2771 0ef0 8210A0E3 		mov	r1, #130
 2772 0ef4 0F20A0E3 		mov	r2, #15
 2773 0ef8 A8309FE5 		ldr	r3, .L55+32
 2774 0efc FEFFFFEB 		bl	Lcd_DspAscII8x16
 247:../elementos_pantalla.c **** 	Lcd_DspAscII6x8(1,150,BLACK,"-Selecciona una posicion con los botones");
 2775              		.loc 1 247 0
 2776 0f00 0100A0E3 		mov	r0, #1
 2777 0f04 9610A0E3 		mov	r1, #150
 2778 0f08 0F20A0E3 		mov	r2, #15
 2779 0f0c 98309FE5 		ldr	r3, .L55+36
 2780 0f10 FEFFFFEB 		bl	Lcd_DspAscII6x8
 248:../elementos_pantalla.c **** 	Lcd_DspAscII6x8(1,160,BLACK," y coloca tu ficha tocando la pantalla.");
 2781              		.loc 1 248 0
 2782 0f14 0100A0E3 		mov	r0, #1
 2783 0f18 A010A0E3 		mov	r1, #160
 2784 0f1c 0F20A0E3 		mov	r2, #15
 2785 0f20 88309FE5 		ldr	r3, .L55+40
 2786 0f24 FEFFFFEB 		bl	Lcd_DspAscII6x8
 249:../elementos_pantalla.c **** 	Lcd_DspAscII6x8(1,170,BLACK,"-Pulsa la tecla 0 del teclado para pasar turno");
 2787              		.loc 1 249 0
 2788 0f28 0100A0E3 		mov	r0, #1
 2789 0f2c AA10A0E3 		mov	r1, #170
 2790 0f30 0F20A0E3 		mov	r2, #15
 2791 0f34 78309FE5 		ldr	r3, .L55+44
 2792 0f38 FEFFFFEB 		bl	Lcd_DspAscII6x8
 250:../elementos_pantalla.c **** 	Lcd_DspAscII6x8(1,180,BLACK," y la 1 para terminar la partida actual");
 2793              		.loc 1 250 0
 2794 0f3c 0100A0E3 		mov	r0, #1
 2795 0f40 B410A0E3 		mov	r1, #180
 2796 0f44 0F20A0E3 		mov	r2, #15
 2797 0f48 68309FE5 		ldr	r3, .L55+48
 2798 0f4c FEFFFFEB 		bl	Lcd_DspAscII6x8
 251:../elementos_pantalla.c **** 	Lcd_DspAscII8x16(10,205,BLACK,"Pedro Jose Perez Garcia");
 2799              		.loc 1 251 0
 2800 0f50 0A00A0E3 		mov	r0, #10
 2801 0f54 CD10A0E3 		mov	r1, #205
 2802 0f58 0F20A0E3 		mov	r2, #15
 2803 0f5c 58309FE5 		ldr	r3, .L55+52
 2804 0f60 FEFFFFEB 		bl	Lcd_DspAscII8x16
 252:../elementos_pantalla.c **** 	Lcd_DspAscII8x16(10,220,BLACK,"Fernando Penya Bes");
 2805              		.loc 1 252 0
 2806 0f64 0A00A0E3 		mov	r0, #10
 2807 0f68 DC10A0E3 		mov	r1, #220
 2808 0f6c 0F20A0E3 		mov	r2, #15
 2809 0f70 48309FE5 		ldr	r3, .L55+56
 2810 0f74 FEFFFFEB 		bl	Lcd_DspAscII8x16
 253:../elementos_pantalla.c **** 
 254:../elementos_pantalla.c **** 	Lcd_Dma_Trans();
 2811              		.loc 1 254 0
 2812 0f78 FEFFFFEB 		bl	Lcd_Dma_Trans
 255:../elementos_pantalla.c **** }
 2813              		.loc 1 255 0
 2814 0f7c 0CD04BE2 		sub	sp, fp, #12
 2815 0f80 00689DE8 		ldmfd	sp, {fp, sp, lr}
 2816 0f84 1EFF2FE1 		bx	lr
 2817              	.L56:
 2818              		.align	2
 2819              	.L55:
 2820 0f88 78000000 		.word	.LC7
 2821 0f8c 84000000 		.word	.LC8
 2822 0f90 9C000000 		.word	.LC9
 2823 0f94 A4000000 		.word	.LC10
 2824 0f98 C8000000 		.word	.LC11
 2825 0f9c E4000000 		.word	.LC12
 2826 0fa0 08010000 		.word	.LC13
 2827 0fa4 30010000 		.word	.LC14
 2828 0fa8 50010000 		.word	.LC15
 2829 0fac 5C010000 		.word	.LC16
 2830 0fb0 88010000 		.word	.LC17
 2831 0fb4 B0010000 		.word	.LC18
 2832 0fb8 E0010000 		.word	.LC19
 2833 0fbc 08020000 		.word	.LC20
 2834 0fc0 20020000 		.word	.LC21
 2835              		.cfi_endproc
 2836              	.LFE9:
 2838              		.align	2
 2839              		.global	pintar_resultados
 2841              	pintar_resultados:
 2842              	.LFB10:
 256:../elementos_pantalla.c **** 
 257:../elementos_pantalla.c **** void pintar_resultados(int blancas, int negras) {
 2843              		.loc 1 257 0
 2844              		.cfi_startproc
 2845              		@ Function supports interworking.
 2846              		@ args = 0, pretend = 0, frame = 16
 2847              		@ frame_needed = 1, uses_anonymous_args = 0
 2848              	.LVL65:
 2849 0fc4 0DC0A0E1 		mov	ip, sp
 2850              	.LCFI20:
 2851              		.cfi_def_cfa_register 12
 2852 0fc8 30D82DE9 		stmfd	sp!, {r4, r5, fp, ip, lr, pc}
 2853 0fcc 04B04CE2 		sub	fp, ip, #4
 2854              		.cfi_offset 14, -8
 2855              		.cfi_offset 13, -12
 2856              		.cfi_offset 11, -16
 2857              		.cfi_offset 5, -20
 2858              		.cfi_offset 4, -24
 2859              	.LCFI21:
 2860              		.cfi_def_cfa 11, 4
 2861 0fd0 10D04DE2 		sub	sp, sp, #16
 2862 0fd4 0040A0E1 		mov	r4, r0
 2863 0fd8 0150A0E1 		mov	r5, r1
 258:../elementos_pantalla.c **** 	volatile char buffer[15];
 259:../elementos_pantalla.c **** 	Lcd_DspAscII8x16(30,80,BLACK,"Tus fichas:");
 2864              		.loc 1 259 0
 2865 0fdc 1E00A0E3 		mov	r0, #30
 2866              	.LVL66:
 2867 0fe0 5010A0E3 		mov	r1, #80
 2868              	.LVL67:
 2869 0fe4 0F20A0E3 		mov	r2, #15
 2870 0fe8 90309FE5 		ldr	r3, .L58
 2871 0fec FEFFFFEB 		bl	Lcd_DspAscII8x16
 260:../elementos_pantalla.c **** 	Lcd_DspAscII8x16(30,100,BLACK,"Fichas de CPU:");
 2872              		.loc 1 260 0
 2873 0ff0 8C309FE5 		ldr	r3, .L58+4
 2874 0ff4 1E00A0E3 		mov	r0, #30
 2875 0ff8 6410A0E3 		mov	r1, #100
 2876 0ffc 0F20A0E3 		mov	r2, #15
 2877 1000 FEFFFFEB 		bl	Lcd_DspAscII8x16
 261:../elementos_pantalla.c **** 	itoa(negras, buffer, 10);				//10 es para indicar que pasamos a números decimales
 2878              		.loc 1 261 0
 2879 1004 24104BE2 		sub	r1, fp, #36
 2880 1008 0A20A0E3 		mov	r2, #10
 2881 100c 0500A0E1 		mov	r0, r5
 2882 1010 FEFFFFEB 		bl	itoa
 262:../elementos_pantalla.c **** 	Lcd_DspAscII8x16(126,80,BLACK,buffer);
 2883              		.loc 1 262 0
 2884 1014 24304BE2 		sub	r3, fp, #36
 2885 1018 0F20A0E3 		mov	r2, #15
 2886 101c 7E00A0E3 		mov	r0, #126
 2887 1020 5010A0E3 		mov	r1, #80
 2888 1024 FEFFFFEB 		bl	Lcd_DspAscII8x16
 263:../elementos_pantalla.c **** 	itoa(blancas, buffer, 10);				//10 es para indicar que pasamos a números decimales
 2889              		.loc 1 263 0
 2890 1028 24104BE2 		sub	r1, fp, #36
 2891 102c 0400A0E1 		mov	r0, r4
 2892 1030 0A20A0E3 		mov	r2, #10
 2893 1034 FEFFFFEB 		bl	itoa
 264:../elementos_pantalla.c **** 	Lcd_DspAscII8x16(150,100,BLACK,buffer);
 2894              		.loc 1 264 0
 2895 1038 24304BE2 		sub	r3, fp, #36
 2896 103c 9600A0E3 		mov	r0, #150
 2897 1040 6410A0E3 		mov	r1, #100
 2898 1044 0F20A0E3 		mov	r2, #15
 2899 1048 FEFFFFEB 		bl	Lcd_DspAscII8x16
 265:../elementos_pantalla.c **** 	Lcd_DspAscII8x16(100,190,BLACK,"TOCA LA PANTALLA");
 2900              		.loc 1 265 0
 2901 104c 6400A0E3 		mov	r0, #100
 2902 1050 BE10A0E3 		mov	r1, #190
 2903 1054 0F20A0E3 		mov	r2, #15
 2904 1058 28309FE5 		ldr	r3, .L58+8
 2905 105c FEFFFFEB 		bl	Lcd_DspAscII8x16
 266:../elementos_pantalla.c **** 	Lcd_DspAscII8x16(80,210,BLACK,"PARA REINICIAR LA PARTIDA");
 2906              		.loc 1 266 0
 2907 1060 5000A0E3 		mov	r0, #80
 2908 1064 D210A0E3 		mov	r1, #210
 2909 1068 0F20A0E3 		mov	r2, #15
 2910 106c 18309FE5 		ldr	r3, .L58+12
 2911 1070 FEFFFFEB 		bl	Lcd_DspAscII8x16
 267:../elementos_pantalla.c **** }
 2912              		.loc 1 267 0
 2913 1074 14D04BE2 		sub	sp, fp, #20
 2914 1078 30689DE8 		ldmfd	sp, {r4, r5, fp, sp, lr}
 2915 107c 1EFF2FE1 		bx	lr
 2916              	.L59:
 2917              		.align	2
 2918              	.L58:
 2919 1080 34020000 		.word	.LC22
 2920 1084 40020000 		.word	.LC23
 2921 1088 50020000 		.word	.LC24
 2922 108c 64020000 		.word	.LC25
 2923              		.cfi_endproc
 2924              	.LFE10:
 2926              		.align	2
 2927              		.global	pintar_fin_victoria
 2929              	pintar_fin_victoria:
 2930              	.LFB11:
 268:../elementos_pantalla.c **** 
 269:../elementos_pantalla.c **** void pintar_fin_victoria(int blancas, int negras)
 270:../elementos_pantalla.c **** {
 2931              		.loc 1 270 0
 2932              		.cfi_startproc
 2933              		@ Function supports interworking.
 2934              		@ args = 0, pretend = 0, frame = 16
 2935              		@ frame_needed = 1, uses_anonymous_args = 0
 2936              	.LVL68:
 2937 1090 0DC0A0E1 		mov	ip, sp
 2938              	.LCFI22:
 2939              		.cfi_def_cfa_register 12
 2940 1094 30D82DE9 		stmfd	sp!, {r4, r5, fp, ip, lr, pc}
 2941 1098 04B04CE2 		sub	fp, ip, #4
 2942              		.cfi_offset 14, -8
 2943              		.cfi_offset 13, -12
 2944              		.cfi_offset 11, -16
 2945              		.cfi_offset 5, -20
 2946              		.cfi_offset 4, -24
 2947              	.LCFI23:
 2948              		.cfi_def_cfa 11, 4
 2949 109c 10D04DE2 		sub	sp, sp, #16
 2950              		.loc 1 270 0
 2951 10a0 0040A0E1 		mov	r4, r0
 2952 10a4 0150A0E1 		mov	r5, r1
 271:../elementos_pantalla.c **** 	volatile char buffer[15];
 272:../elementos_pantalla.c **** 	Lcd_Clr();
 2953              		.loc 1 272 0
 2954 10a8 FEFFFFEB 		bl	Lcd_Clr
 2955              	.LVL69:
 273:../elementos_pantalla.c **** 	Lcd_DspAscII8x16(50,50,BLACK,"HAS GANADO! :)");
 2956              		.loc 1 273 0
 2957 10ac 3200A0E3 		mov	r0, #50
 2958 10b0 0010A0E1 		mov	r1, r0
 2959 10b4 0F20A0E3 		mov	r2, #15
 2960 10b8 A8309FE5 		ldr	r3, .L61
 2961 10bc FEFFFFEB 		bl	Lcd_DspAscII8x16
 2962              	.LVL70:
 2963              	.LBB88:
 2964              	.LBB89:
 259:../elementos_pantalla.c **** 	Lcd_DspAscII8x16(30,80,BLACK,"Tus fichas:");
 2965              		.loc 1 259 0
 2966 10c0 1E00A0E3 		mov	r0, #30
 2967 10c4 5010A0E3 		mov	r1, #80
 2968 10c8 0F20A0E3 		mov	r2, #15
 2969 10cc 98309FE5 		ldr	r3, .L61+4
 2970 10d0 FEFFFFEB 		bl	Lcd_DspAscII8x16
 260:../elementos_pantalla.c **** 	Lcd_DspAscII8x16(30,100,BLACK,"Fichas de CPU:");
 2971              		.loc 1 260 0
 2972 10d4 94309FE5 		ldr	r3, .L61+8
 2973 10d8 1E00A0E3 		mov	r0, #30
 2974 10dc 6410A0E3 		mov	r1, #100
 2975 10e0 0F20A0E3 		mov	r2, #15
 2976 10e4 FEFFFFEB 		bl	Lcd_DspAscII8x16
 261:../elementos_pantalla.c **** 	itoa(negras, buffer, 10);				//10 es para indicar que pasamos a números decimales
 2977              		.loc 1 261 0
 2978 10e8 24104BE2 		sub	r1, fp, #36
 2979 10ec 0A20A0E3 		mov	r2, #10
 2980 10f0 0500A0E1 		mov	r0, r5
 2981 10f4 FEFFFFEB 		bl	itoa
 262:../elementos_pantalla.c **** 	Lcd_DspAscII8x16(126,80,BLACK,buffer);
 2982              		.loc 1 262 0
 2983 10f8 24304BE2 		sub	r3, fp, #36
 2984 10fc 0F20A0E3 		mov	r2, #15
 2985 1100 7E00A0E3 		mov	r0, #126
 2986 1104 5010A0E3 		mov	r1, #80
 2987 1108 FEFFFFEB 		bl	Lcd_DspAscII8x16
 263:../elementos_pantalla.c **** 	itoa(blancas, buffer, 10);				//10 es para indicar que pasamos a números decimales
 2988              		.loc 1 263 0
 2989 110c 24104BE2 		sub	r1, fp, #36
 2990 1110 0400A0E1 		mov	r0, r4
 2991 1114 0A20A0E3 		mov	r2, #10
 2992 1118 FEFFFFEB 		bl	itoa
 264:../elementos_pantalla.c **** 	Lcd_DspAscII8x16(150,100,BLACK,buffer);
 2993              		.loc 1 264 0
 2994 111c 24304BE2 		sub	r3, fp, #36
 2995 1120 9600A0E3 		mov	r0, #150
 2996 1124 6410A0E3 		mov	r1, #100
 2997 1128 0F20A0E3 		mov	r2, #15
 2998 112c FEFFFFEB 		bl	Lcd_DspAscII8x16
 265:../elementos_pantalla.c **** 	Lcd_DspAscII8x16(100,190,BLACK,"TOCA LA PANTALLA");
 2999              		.loc 1 265 0
 3000 1130 6400A0E3 		mov	r0, #100
 3001 1134 BE10A0E3 		mov	r1, #190
 3002 1138 0F20A0E3 		mov	r2, #15
 3003 113c 30309FE5 		ldr	r3, .L61+12
 3004 1140 FEFFFFEB 		bl	Lcd_DspAscII8x16
 266:../elementos_pantalla.c **** 	Lcd_DspAscII8x16(80,210,BLACK,"PARA REINICIAR LA PARTIDA");
 3005              		.loc 1 266 0
 3006 1144 5000A0E3 		mov	r0, #80
 3007 1148 D210A0E3 		mov	r1, #210
 3008 114c 0F20A0E3 		mov	r2, #15
 3009 1150 20309FE5 		ldr	r3, .L61+16
 3010 1154 FEFFFFEB 		bl	Lcd_DspAscII8x16
 3011              	.LBE89:
 3012              	.LBE88:
 274:../elementos_pantalla.c **** 	pintar_resultados(blancas, negras);
 275:../elementos_pantalla.c **** 	Lcd_Dma_Trans();
 3013              		.loc 1 275 0
 3014 1158 FEFFFFEB 		bl	Lcd_Dma_Trans
 276:../elementos_pantalla.c **** }
 3015              		.loc 1 276 0
 3016 115c 14D04BE2 		sub	sp, fp, #20
 3017 1160 30689DE8 		ldmfd	sp, {r4, r5, fp, sp, lr}
 3018 1164 1EFF2FE1 		bx	lr
 3019              	.L62:
 3020              		.align	2
 3021              	.L61:
 3022 1168 80020000 		.word	.LC26
 3023 116c 34020000 		.word	.LC22
 3024 1170 40020000 		.word	.LC23
 3025 1174 50020000 		.word	.LC24
 3026 1178 64020000 		.word	.LC25
 3027              		.cfi_endproc
 3028              	.LFE11:
 3030              		.align	2
 3031              		.global	pintar_fin_derrota
 3033              	pintar_fin_derrota:
 3034              	.LFB12:
 277:../elementos_pantalla.c **** 
 278:../elementos_pantalla.c **** void pintar_fin_derrota(int blancas, int negras)
 279:../elementos_pantalla.c **** {
 3035              		.loc 1 279 0
 3036              		.cfi_startproc
 3037              		@ Function supports interworking.
 3038              		@ args = 0, pretend = 0, frame = 16
 3039              		@ frame_needed = 1, uses_anonymous_args = 0
 3040              	.LVL71:
 3041 117c 0DC0A0E1 		mov	ip, sp
 3042              	.LCFI24:
 3043              		.cfi_def_cfa_register 12
 3044 1180 30D82DE9 		stmfd	sp!, {r4, r5, fp, ip, lr, pc}
 3045 1184 04B04CE2 		sub	fp, ip, #4
 3046              		.cfi_offset 14, -8
 3047              		.cfi_offset 13, -12
 3048              		.cfi_offset 11, -16
 3049              		.cfi_offset 5, -20
 3050              		.cfi_offset 4, -24
 3051              	.LCFI25:
 3052              		.cfi_def_cfa 11, 4
 3053 1188 10D04DE2 		sub	sp, sp, #16
 3054              		.loc 1 279 0
 3055 118c 0040A0E1 		mov	r4, r0
 3056 1190 0150A0E1 		mov	r5, r1
 280:../elementos_pantalla.c **** 	volatile char buffer[15];
 281:../elementos_pantalla.c **** 	Lcd_Clr();
 3057              		.loc 1 281 0
 3058 1194 FEFFFFEB 		bl	Lcd_Clr
 3059              	.LVL72:
 282:../elementos_pantalla.c **** 	Lcd_DspAscII8x16(50,50,BLACK,"HAS PERDIDO :(");
 3060              		.loc 1 282 0
 3061 1198 3200A0E3 		mov	r0, #50
 3062 119c 0010A0E1 		mov	r1, r0
 3063 11a0 0F20A0E3 		mov	r2, #15
 3064 11a4 A8309FE5 		ldr	r3, .L64
 3065 11a8 FEFFFFEB 		bl	Lcd_DspAscII8x16
 3066              	.LVL73:
 3067              	.LBB92:
 3068              	.LBB93:
 259:../elementos_pantalla.c **** 	Lcd_DspAscII8x16(30,80,BLACK,"Tus fichas:");
 3069              		.loc 1 259 0
 3070 11ac 1E00A0E3 		mov	r0, #30
 3071 11b0 5010A0E3 		mov	r1, #80
 3072 11b4 0F20A0E3 		mov	r2, #15
 3073 11b8 98309FE5 		ldr	r3, .L64+4
 3074 11bc FEFFFFEB 		bl	Lcd_DspAscII8x16
 260:../elementos_pantalla.c **** 	Lcd_DspAscII8x16(30,100,BLACK,"Fichas de CPU:");
 3075              		.loc 1 260 0
 3076 11c0 94309FE5 		ldr	r3, .L64+8
 3077 11c4 1E00A0E3 		mov	r0, #30
 3078 11c8 6410A0E3 		mov	r1, #100
 3079 11cc 0F20A0E3 		mov	r2, #15
 3080 11d0 FEFFFFEB 		bl	Lcd_DspAscII8x16
 261:../elementos_pantalla.c **** 	itoa(negras, buffer, 10);				//10 es para indicar que pasamos a números decimales
 3081              		.loc 1 261 0
 3082 11d4 24104BE2 		sub	r1, fp, #36
 3083 11d8 0A20A0E3 		mov	r2, #10
 3084 11dc 0500A0E1 		mov	r0, r5
 3085 11e0 FEFFFFEB 		bl	itoa
 262:../elementos_pantalla.c **** 	Lcd_DspAscII8x16(126,80,BLACK,buffer);
 3086              		.loc 1 262 0
 3087 11e4 24304BE2 		sub	r3, fp, #36
 3088 11e8 0F20A0E3 		mov	r2, #15
 3089 11ec 7E00A0E3 		mov	r0, #126
 3090 11f0 5010A0E3 		mov	r1, #80
 3091 11f4 FEFFFFEB 		bl	Lcd_DspAscII8x16
 263:../elementos_pantalla.c **** 	itoa(blancas, buffer, 10);				//10 es para indicar que pasamos a números decimales
 3092              		.loc 1 263 0
 3093 11f8 24104BE2 		sub	r1, fp, #36
 3094 11fc 0400A0E1 		mov	r0, r4
 3095 1200 0A20A0E3 		mov	r2, #10
 3096 1204 FEFFFFEB 		bl	itoa
 264:../elementos_pantalla.c **** 	Lcd_DspAscII8x16(150,100,BLACK,buffer);
 3097              		.loc 1 264 0
 3098 1208 24304BE2 		sub	r3, fp, #36
 3099 120c 9600A0E3 		mov	r0, #150
 3100 1210 6410A0E3 		mov	r1, #100
 3101 1214 0F20A0E3 		mov	r2, #15
 3102 1218 FEFFFFEB 		bl	Lcd_DspAscII8x16
 265:../elementos_pantalla.c **** 	Lcd_DspAscII8x16(100,190,BLACK,"TOCA LA PANTALLA");
 3103              		.loc 1 265 0
 3104 121c 6400A0E3 		mov	r0, #100
 3105 1220 BE10A0E3 		mov	r1, #190
 3106 1224 0F20A0E3 		mov	r2, #15
 3107 1228 30309FE5 		ldr	r3, .L64+12
 3108 122c FEFFFFEB 		bl	Lcd_DspAscII8x16
 266:../elementos_pantalla.c **** 	Lcd_DspAscII8x16(80,210,BLACK,"PARA REINICIAR LA PARTIDA");
 3109              		.loc 1 266 0
 3110 1230 5000A0E3 		mov	r0, #80
 3111 1234 D210A0E3 		mov	r1, #210
 3112 1238 0F20A0E3 		mov	r2, #15
 3113 123c 20309FE5 		ldr	r3, .L64+16
 3114 1240 FEFFFFEB 		bl	Lcd_DspAscII8x16
 3115              	.LBE93:
 3116              	.LBE92:
 283:../elementos_pantalla.c **** 	pintar_resultados(blancas, negras);
 284:../elementos_pantalla.c **** 	Lcd_Dma_Trans();
 3117              		.loc 1 284 0
 3118 1244 FEFFFFEB 		bl	Lcd_Dma_Trans
 285:../elementos_pantalla.c **** }
 3119              		.loc 1 285 0
 3120 1248 14D04BE2 		sub	sp, fp, #20
 3121 124c 30689DE8 		ldmfd	sp, {r4, r5, fp, sp, lr}
 3122 1250 1EFF2FE1 		bx	lr
 3123              	.L65:
 3124              		.align	2
 3125              	.L64:
 3126 1254 90020000 		.word	.LC27
 3127 1258 34020000 		.word	.LC22
 3128 125c 40020000 		.word	.LC23
 3129 1260 50020000 		.word	.LC24
 3130 1264 64020000 		.word	.LC25
 3131              		.cfi_endproc
 3132              	.LFE12:
 3134              		.align	2
 3135              		.global	pintar_fin_empate
 3137              	pintar_fin_empate:
 3138              	.LFB13:
 286:../elementos_pantalla.c **** 
 287:../elementos_pantalla.c **** void pintar_fin_empate(int blancas, int negras)
 288:../elementos_pantalla.c **** {
 3139              		.loc 1 288 0
 3140              		.cfi_startproc
 3141              		@ Function supports interworking.
 3142              		@ args = 0, pretend = 0, frame = 16
 3143              		@ frame_needed = 1, uses_anonymous_args = 0
 3144              	.LVL74:
 3145 1268 0DC0A0E1 		mov	ip, sp
 3146              	.LCFI26:
 3147              		.cfi_def_cfa_register 12
 3148 126c 30D82DE9 		stmfd	sp!, {r4, r5, fp, ip, lr, pc}
 3149 1270 04B04CE2 		sub	fp, ip, #4
 3150              		.cfi_offset 14, -8
 3151              		.cfi_offset 13, -12
 3152              		.cfi_offset 11, -16
 3153              		.cfi_offset 5, -20
 3154              		.cfi_offset 4, -24
 3155              	.LCFI27:
 3156              		.cfi_def_cfa 11, 4
 3157 1274 10D04DE2 		sub	sp, sp, #16
 3158              		.loc 1 288 0
 3159 1278 0040A0E1 		mov	r4, r0
 3160 127c 0150A0E1 		mov	r5, r1
 289:../elementos_pantalla.c **** 	volatile char buffer[15];
 290:../elementos_pantalla.c **** 	Lcd_Clr();
 3161              		.loc 1 290 0
 3162 1280 FEFFFFEB 		bl	Lcd_Clr
 3163              	.LVL75:
 291:../elementos_pantalla.c **** 	Lcd_DspAscII8x16(50,50,BLACK,"HAS EMPATADO :/");
 3164              		.loc 1 291 0
 3165 1284 3200A0E3 		mov	r0, #50
 3166 1288 0010A0E1 		mov	r1, r0
 3167 128c 0F20A0E3 		mov	r2, #15
 3168 1290 A8309FE5 		ldr	r3, .L67
 3169 1294 FEFFFFEB 		bl	Lcd_DspAscII8x16
 3170              	.LVL76:
 3171              	.LBB96:
 3172              	.LBB97:
 259:../elementos_pantalla.c **** 	Lcd_DspAscII8x16(30,80,BLACK,"Tus fichas:");
 3173              		.loc 1 259 0
 3174 1298 1E00A0E3 		mov	r0, #30
 3175 129c 5010A0E3 		mov	r1, #80
 3176 12a0 0F20A0E3 		mov	r2, #15
 3177 12a4 98309FE5 		ldr	r3, .L67+4
 3178 12a8 FEFFFFEB 		bl	Lcd_DspAscII8x16
 260:../elementos_pantalla.c **** 	Lcd_DspAscII8x16(30,100,BLACK,"Fichas de CPU:");
 3179              		.loc 1 260 0
 3180 12ac 94309FE5 		ldr	r3, .L67+8
 3181 12b0 1E00A0E3 		mov	r0, #30
 3182 12b4 6410A0E3 		mov	r1, #100
 3183 12b8 0F20A0E3 		mov	r2, #15
 3184 12bc FEFFFFEB 		bl	Lcd_DspAscII8x16
 261:../elementos_pantalla.c **** 	itoa(negras, buffer, 10);				//10 es para indicar que pasamos a números decimales
 3185              		.loc 1 261 0
 3186 12c0 24104BE2 		sub	r1, fp, #36
 3187 12c4 0A20A0E3 		mov	r2, #10
 3188 12c8 0500A0E1 		mov	r0, r5
 3189 12cc FEFFFFEB 		bl	itoa
 262:../elementos_pantalla.c **** 	Lcd_DspAscII8x16(126,80,BLACK,buffer);
 3190              		.loc 1 262 0
 3191 12d0 24304BE2 		sub	r3, fp, #36
 3192 12d4 0F20A0E3 		mov	r2, #15
 3193 12d8 7E00A0E3 		mov	r0, #126
 3194 12dc 5010A0E3 		mov	r1, #80
 3195 12e0 FEFFFFEB 		bl	Lcd_DspAscII8x16
 263:../elementos_pantalla.c **** 	itoa(blancas, buffer, 10);				//10 es para indicar que pasamos a números decimales
 3196              		.loc 1 263 0
 3197 12e4 24104BE2 		sub	r1, fp, #36
 3198 12e8 0400A0E1 		mov	r0, r4
 3199 12ec 0A20A0E3 		mov	r2, #10
 3200 12f0 FEFFFFEB 		bl	itoa
 264:../elementos_pantalla.c **** 	Lcd_DspAscII8x16(150,100,BLACK,buffer);
 3201              		.loc 1 264 0
 3202 12f4 24304BE2 		sub	r3, fp, #36
 3203 12f8 9600A0E3 		mov	r0, #150
 3204 12fc 6410A0E3 		mov	r1, #100
 3205 1300 0F20A0E3 		mov	r2, #15
 3206 1304 FEFFFFEB 		bl	Lcd_DspAscII8x16
 265:../elementos_pantalla.c **** 	Lcd_DspAscII8x16(100,190,BLACK,"TOCA LA PANTALLA");
 3207              		.loc 1 265 0
 3208 1308 6400A0E3 		mov	r0, #100
 3209 130c BE10A0E3 		mov	r1, #190
 3210 1310 0F20A0E3 		mov	r2, #15
 3211 1314 30309FE5 		ldr	r3, .L67+12
 3212 1318 FEFFFFEB 		bl	Lcd_DspAscII8x16
 266:../elementos_pantalla.c **** 	Lcd_DspAscII8x16(80,210,BLACK,"PARA REINICIAR LA PARTIDA");
 3213              		.loc 1 266 0
 3214 131c 5000A0E3 		mov	r0, #80
 3215 1320 D210A0E3 		mov	r1, #210
 3216 1324 0F20A0E3 		mov	r2, #15
 3217 1328 20309FE5 		ldr	r3, .L67+16
 3218 132c FEFFFFEB 		bl	Lcd_DspAscII8x16
 3219              	.LBE97:
 3220              	.LBE96:
 292:../elementos_pantalla.c **** 	pintar_resultados(blancas, negras);
 293:../elementos_pantalla.c **** 	Lcd_Dma_Trans();
 3221              		.loc 1 293 0
 3222 1330 FEFFFFEB 		bl	Lcd_Dma_Trans
 294:../elementos_pantalla.c **** }
 3223              		.loc 1 294 0
 3224 1334 14D04BE2 		sub	sp, fp, #20
 3225 1338 30689DE8 		ldmfd	sp, {r4, r5, fp, sp, lr}
 3226 133c 1EFF2FE1 		bx	lr
 3227              	.L68:
 3228              		.align	2
 3229              	.L67:
 3230 1340 A0020000 		.word	.LC28
 3231 1344 34020000 		.word	.LC22
 3232 1348 40020000 		.word	.LC23
 3233 134c 50020000 		.word	.LC24
 3234 1350 64020000 		.word	.LC25
 3235              		.cfi_endproc
 3236              	.LFE13:
 3238              		.align	2
 3239              		.global	iniciar_DMA
 3241              	iniciar_DMA:
 3242              	.LFB14:
 295:../elementos_pantalla.c **** 
 296:../elementos_pantalla.c **** void iniciar_DMA()
 297:../elementos_pantalla.c **** {
 3243              		.loc 1 297 0
 3244              		.cfi_startproc
 3245              		@ Function supports interworking.
 3246              		@ args = 0, pretend = 0, frame = 0
 3247              		@ frame_needed = 1, uses_anonymous_args = 0
 3248 1354 0DC0A0E1 		mov	ip, sp
 3249              	.LCFI28:
 3250              		.cfi_def_cfa_register 12
 3251 1358 00D82DE9 		stmfd	sp!, {fp, ip, lr, pc}
 3252 135c 04B04CE2 		sub	fp, ip, #4
 3253              		.cfi_offset 14, -8
 3254              		.cfi_offset 13, -12
 3255              		.cfi_offset 11, -16
 3256              	.LCFI29:
 3257              		.cfi_def_cfa 11, 4
 298:../elementos_pantalla.c **** 	Lcd_Dma_Trans();
 3258              		.loc 1 298 0
 3259 1360 FEFFFFEB 		bl	Lcd_Dma_Trans
 299:../elementos_pantalla.c **** }
 3260              		.loc 1 299 0
 3261 1364 0CD04BE2 		sub	sp, fp, #12
 3262 1368 00689DE8 		ldmfd	sp, {fp, sp, lr}
 3263 136c 1EFF2FE1 		bx	lr
 3264              		.cfi_endproc
 3265              	.LFE14:
 3267              		.global	fichaBlancaMap
 3268              		.global	Stru_Bitmap_fichaBlanca
 3269              		.global	fichaNegraMap
 3270              		.global	Stru_Bitmap_fichaNegra
 3271              		.global	fichaGrisMap
 3272              		.global	Stru_Bitmap_fichaGris
 3273              		.section	.rodata
 3274              		.align	2
 3277              	fichaBlancaMap:
 3278 0000 00       		.byte	0
 3279 0001 00       		.byte	0
 3280 0002 00       		.byte	0
 3281 0003 00       		.byte	0
 3282 0004 00       		.byte	0
 3283 0005 00       		.byte	0
 3284 0006 00       		.byte	0
 3285 0007 00       		.byte	0
 3286 0008 00       		.byte	0
 3287 0009 0F       		.byte	15
 3288 000a 0F       		.byte	15
 3289 000b 0F       		.byte	15
 3290 000c 0F       		.byte	15
 3291 000d 0F       		.byte	15
 3292 000e 0F       		.byte	15
 3293 000f 00       		.byte	0
 3294 0010 00       		.byte	0
 3295 0011 00       		.byte	0
 3296 0012 00       		.byte	0
 3297 0013 00       		.byte	0
 3298 0014 00       		.byte	0
 3299 0015 00       		.byte	0
 3300 0016 00       		.byte	0
 3301 0017 00       		.byte	0
 3302 0018 00       		.byte	0
 3303 0019 00       		.byte	0
 3304 001a 00       		.byte	0
 3305 001b 00       		.byte	0
 3306 001c 00       		.byte	0
 3307 001d 00       		.byte	0
 3308 001e 0F       		.byte	15
 3309 001f 0F       		.byte	15
 3310 0020 0F       		.byte	15
 3311 0021 00       		.byte	0
 3312 0022 00       		.byte	0
 3313 0023 00       		.byte	0
 3314 0024 00       		.byte	0
 3315 0025 00       		.byte	0
 3316 0026 00       		.byte	0
 3317 0027 0F       		.byte	15
 3318 0028 0F       		.byte	15
 3319 0029 0F       		.byte	15
 3320 002a 00       		.byte	0
 3321 002b 00       		.byte	0
 3322 002c 00       		.byte	0
 3323 002d 00       		.byte	0
 3324 002e 00       		.byte	0
 3325 002f 00       		.byte	0
 3326 0030 00       		.byte	0
 3327 0031 00       		.byte	0
 3328 0032 00       		.byte	0
 3329 0033 00       		.byte	0
 3330 0034 00       		.byte	0
 3331 0035 0F       		.byte	15
 3332 0036 00       		.byte	0
 3333 0037 00       		.byte	0
 3334 0038 00       		.byte	0
 3335 0039 00       		.byte	0
 3336 003a 00       		.byte	0
 3337 003b 00       		.byte	0
 3338 003c 00       		.byte	0
 3339 003d 00       		.byte	0
 3340 003e 00       		.byte	0
 3341 003f 00       		.byte	0
 3342 0040 00       		.byte	0
 3343 0041 00       		.byte	0
 3344 0042 0F       		.byte	15
 3345 0043 00       		.byte	0
 3346 0044 00       		.byte	0
 3347 0045 00       		.byte	0
 3348 0046 00       		.byte	0
 3349 0047 00       		.byte	0
 3350 0048 00       		.byte	0
 3351 0049 00       		.byte	0
 3352 004a 00       		.byte	0
 3353 004b 00       		.byte	0
 3354 004c 0F       		.byte	15
 3355 004d 00       		.byte	0
 3356 004e 00       		.byte	0
 3357 004f 00       		.byte	0
 3358 0050 00       		.byte	0
 3359 0051 00       		.byte	0
 3360 0052 00       		.byte	0
 3361 0053 00       		.byte	0
 3362 0054 00       		.byte	0
 3363 0055 00       		.byte	0
 3364 0056 00       		.byte	0
 3365 0057 00       		.byte	0
 3366 0058 00       		.byte	0
 3367 0059 00       		.byte	0
 3368 005a 00       		.byte	0
 3369 005b 0F       		.byte	15
 3370 005c 00       		.byte	0
 3371 005d 00       		.byte	0
 3372 005e 00       		.byte	0
 3373 005f 00       		.byte	0
 3374 0060 00       		.byte	0
 3375 0061 00       		.byte	0
 3376 0062 00       		.byte	0
 3377 0063 0F       		.byte	15
 3378 0064 00       		.byte	0
 3379 0065 00       		.byte	0
 3380 0066 00       		.byte	0
 3381 0067 00       		.byte	0
 3382 0068 00       		.byte	0
 3383 0069 00       		.byte	0
 3384 006a 00       		.byte	0
 3385 006b 00       		.byte	0
 3386 006c 00       		.byte	0
 3387 006d 00       		.byte	0
 3388 006e 00       		.byte	0
 3389 006f 00       		.byte	0
 3390 0070 00       		.byte	0
 3391 0071 00       		.byte	0
 3392 0072 00       		.byte	0
 3393 0073 00       		.byte	0
 3394 0074 0F       		.byte	15
 3395 0075 00       		.byte	0
 3396 0076 00       		.byte	0
 3397 0077 00       		.byte	0
 3398 0078 00       		.byte	0
 3399 0079 00       		.byte	0
 3400 007a 0F       		.byte	15
 3401 007b 00       		.byte	0
 3402 007c 00       		.byte	0
 3403 007d 00       		.byte	0
 3404 007e 00       		.byte	0
 3405 007f 00       		.byte	0
 3406 0080 00       		.byte	0
 3407 0081 00       		.byte	0
 3408 0082 00       		.byte	0
 3409 0083 00       		.byte	0
 3410 0084 00       		.byte	0
 3411 0085 00       		.byte	0
 3412 0086 00       		.byte	0
 3413 0087 00       		.byte	0
 3414 0088 00       		.byte	0
 3415 0089 00       		.byte	0
 3416 008a 00       		.byte	0
 3417 008b 00       		.byte	0
 3418 008c 00       		.byte	0
 3419 008d 0F       		.byte	15
 3420 008e 00       		.byte	0
 3421 008f 00       		.byte	0
 3422 0090 00       		.byte	0
 3423 0091 0F       		.byte	15
 3424 0092 00       		.byte	0
 3425 0093 00       		.byte	0
 3426 0094 00       		.byte	0
 3427 0095 00       		.byte	0
 3428 0096 00       		.byte	0
 3429 0097 00       		.byte	0
 3430 0098 00       		.byte	0
 3431 0099 00       		.byte	0
 3432 009a 00       		.byte	0
 3433 009b 00       		.byte	0
 3434 009c 00       		.byte	0
 3435 009d 00       		.byte	0
 3436 009e 00       		.byte	0
 3437 009f 00       		.byte	0
 3438 00a0 00       		.byte	0
 3439 00a1 00       		.byte	0
 3440 00a2 00       		.byte	0
 3441 00a3 00       		.byte	0
 3442 00a4 00       		.byte	0
 3443 00a5 00       		.byte	0
 3444 00a6 0F       		.byte	15
 3445 00a7 00       		.byte	0
 3446 00a8 00       		.byte	0
 3447 00a9 0F       		.byte	15
 3448 00aa 00       		.byte	0
 3449 00ab 00       		.byte	0
 3450 00ac 00       		.byte	0
 3451 00ad 00       		.byte	0
 3452 00ae 00       		.byte	0
 3453 00af 00       		.byte	0
 3454 00b0 00       		.byte	0
 3455 00b1 00       		.byte	0
 3456 00b2 00       		.byte	0
 3457 00b3 00       		.byte	0
 3458 00b4 00       		.byte	0
 3459 00b5 00       		.byte	0
 3460 00b6 00       		.byte	0
 3461 00b7 00       		.byte	0
 3462 00b8 00       		.byte	0
 3463 00b9 00       		.byte	0
 3464 00ba 00       		.byte	0
 3465 00bb 00       		.byte	0
 3466 00bc 00       		.byte	0
 3467 00bd 00       		.byte	0
 3468 00be 0F       		.byte	15
 3469 00bf 00       		.byte	0
 3470 00c0 00       		.byte	0
 3471 00c1 0F       		.byte	15
 3472 00c2 00       		.byte	0
 3473 00c3 00       		.byte	0
 3474 00c4 00       		.byte	0
 3475 00c5 00       		.byte	0
 3476 00c6 00       		.byte	0
 3477 00c7 00       		.byte	0
 3478 00c8 00       		.byte	0
 3479 00c9 00       		.byte	0
 3480 00ca 00       		.byte	0
 3481 00cb 00       		.byte	0
 3482 00cc 00       		.byte	0
 3483 00cd 00       		.byte	0
 3484 00ce 00       		.byte	0
 3485 00cf 00       		.byte	0
 3486 00d0 00       		.byte	0
 3487 00d1 00       		.byte	0
 3488 00d2 00       		.byte	0
 3489 00d3 00       		.byte	0
 3490 00d4 00       		.byte	0
 3491 00d5 00       		.byte	0
 3492 00d6 0F       		.byte	15
 3493 00d7 00       		.byte	0
 3494 00d8 0F       		.byte	15
 3495 00d9 00       		.byte	0
 3496 00da 00       		.byte	0
 3497 00db 00       		.byte	0
 3498 00dc 00       		.byte	0
 3499 00dd 00       		.byte	0
 3500 00de 00       		.byte	0
 3501 00df 00       		.byte	0
 3502 00e0 00       		.byte	0
 3503 00e1 00       		.byte	0
 3504 00e2 00       		.byte	0
 3505 00e3 00       		.byte	0
 3506 00e4 00       		.byte	0
 3507 00e5 00       		.byte	0
 3508 00e6 00       		.byte	0
 3509 00e7 00       		.byte	0
 3510 00e8 00       		.byte	0
 3511 00e9 00       		.byte	0
 3512 00ea 00       		.byte	0
 3513 00eb 00       		.byte	0
 3514 00ec 00       		.byte	0
 3515 00ed 00       		.byte	0
 3516 00ee 00       		.byte	0
 3517 00ef 0F       		.byte	15
 3518 00f0 0F       		.byte	15
 3519 00f1 00       		.byte	0
 3520 00f2 00       		.byte	0
 3521 00f3 00       		.byte	0
 3522 00f4 00       		.byte	0
 3523 00f5 00       		.byte	0
 3524 00f6 00       		.byte	0
 3525 00f7 00       		.byte	0
 3526 00f8 00       		.byte	0
 3527 00f9 00       		.byte	0
 3528 00fa 00       		.byte	0
 3529 00fb 00       		.byte	0
 3530 00fc 00       		.byte	0
 3531 00fd 00       		.byte	0
 3532 00fe 00       		.byte	0
 3533 00ff 00       		.byte	0
 3534 0100 00       		.byte	0
 3535 0101 00       		.byte	0
 3536 0102 00       		.byte	0
 3537 0103 00       		.byte	0
 3538 0104 00       		.byte	0
 3539 0105 00       		.byte	0
 3540 0106 00       		.byte	0
 3541 0107 0F       		.byte	15
 3542 0108 0F       		.byte	15
 3543 0109 00       		.byte	0
 3544 010a 00       		.byte	0
 3545 010b 00       		.byte	0
 3546 010c 00       		.byte	0
 3547 010d 00       		.byte	0
 3548 010e 00       		.byte	0
 3549 010f 00       		.byte	0
 3550 0110 00       		.byte	0
 3551 0111 00       		.byte	0
 3552 0112 00       		.byte	0
 3553 0113 00       		.byte	0
 3554 0114 00       		.byte	0
 3555 0115 00       		.byte	0
 3556 0116 00       		.byte	0
 3557 0117 00       		.byte	0
 3558 0118 00       		.byte	0
 3559 0119 00       		.byte	0
 3560 011a 00       		.byte	0
 3561 011b 00       		.byte	0
 3562 011c 00       		.byte	0
 3563 011d 00       		.byte	0
 3564 011e 00       		.byte	0
 3565 011f 0F       		.byte	15
 3566 0120 0F       		.byte	15
 3567 0121 00       		.byte	0
 3568 0122 00       		.byte	0
 3569 0123 00       		.byte	0
 3570 0124 00       		.byte	0
 3571 0125 00       		.byte	0
 3572 0126 00       		.byte	0
 3573 0127 00       		.byte	0
 3574 0128 00       		.byte	0
 3575 0129 00       		.byte	0
 3576 012a 00       		.byte	0
 3577 012b 00       		.byte	0
 3578 012c 00       		.byte	0
 3579 012d 00       		.byte	0
 3580 012e 00       		.byte	0
 3581 012f 00       		.byte	0
 3582 0130 00       		.byte	0
 3583 0131 00       		.byte	0
 3584 0132 00       		.byte	0
 3585 0133 00       		.byte	0
 3586 0134 00       		.byte	0
 3587 0135 00       		.byte	0
 3588 0136 00       		.byte	0
 3589 0137 0F       		.byte	15
 3590 0138 0F       		.byte	15
 3591 0139 00       		.byte	0
 3592 013a 00       		.byte	0
 3593 013b 00       		.byte	0
 3594 013c 00       		.byte	0
 3595 013d 00       		.byte	0
 3596 013e 00       		.byte	0
 3597 013f 00       		.byte	0
 3598 0140 00       		.byte	0
 3599 0141 00       		.byte	0
 3600 0142 00       		.byte	0
 3601 0143 00       		.byte	0
 3602 0144 00       		.byte	0
 3603 0145 00       		.byte	0
 3604 0146 00       		.byte	0
 3605 0147 00       		.byte	0
 3606 0148 00       		.byte	0
 3607 0149 00       		.byte	0
 3608 014a 00       		.byte	0
 3609 014b 00       		.byte	0
 3610 014c 00       		.byte	0
 3611 014d 00       		.byte	0
 3612 014e 00       		.byte	0
 3613 014f 0F       		.byte	15
 3614 0150 0F       		.byte	15
 3615 0151 00       		.byte	0
 3616 0152 00       		.byte	0
 3617 0153 00       		.byte	0
 3618 0154 00       		.byte	0
 3619 0155 00       		.byte	0
 3620 0156 00       		.byte	0
 3621 0157 00       		.byte	0
 3622 0158 00       		.byte	0
 3623 0159 00       		.byte	0
 3624 015a 00       		.byte	0
 3625 015b 00       		.byte	0
 3626 015c 00       		.byte	0
 3627 015d 00       		.byte	0
 3628 015e 00       		.byte	0
 3629 015f 00       		.byte	0
 3630 0160 00       		.byte	0
 3631 0161 00       		.byte	0
 3632 0162 00       		.byte	0
 3633 0163 00       		.byte	0
 3634 0164 00       		.byte	0
 3635 0165 00       		.byte	0
 3636 0166 00       		.byte	0
 3637 0167 0F       		.byte	15
 3638 0168 00       		.byte	0
 3639 0169 0F       		.byte	15
 3640 016a 00       		.byte	0
 3641 016b 00       		.byte	0
 3642 016c 00       		.byte	0
 3643 016d 00       		.byte	0
 3644 016e 00       		.byte	0
 3645 016f 00       		.byte	0
 3646 0170 00       		.byte	0
 3647 0171 00       		.byte	0
 3648 0172 00       		.byte	0
 3649 0173 00       		.byte	0
 3650 0174 00       		.byte	0
 3651 0175 00       		.byte	0
 3652 0176 00       		.byte	0
 3653 0177 00       		.byte	0
 3654 0178 00       		.byte	0
 3655 0179 00       		.byte	0
 3656 017a 00       		.byte	0
 3657 017b 00       		.byte	0
 3658 017c 00       		.byte	0
 3659 017d 00       		.byte	0
 3660 017e 0F       		.byte	15
 3661 017f 00       		.byte	0
 3662 0180 00       		.byte	0
 3663 0181 0F       		.byte	15
 3664 0182 00       		.byte	0
 3665 0183 00       		.byte	0
 3666 0184 00       		.byte	0
 3667 0185 00       		.byte	0
 3668 0186 00       		.byte	0
 3669 0187 00       		.byte	0
 3670 0188 00       		.byte	0
 3671 0189 00       		.byte	0
 3672 018a 00       		.byte	0
 3673 018b 00       		.byte	0
 3674 018c 00       		.byte	0
 3675 018d 00       		.byte	0
 3676 018e 00       		.byte	0
 3677 018f 00       		.byte	0
 3678 0190 00       		.byte	0
 3679 0191 00       		.byte	0
 3680 0192 00       		.byte	0
 3681 0193 00       		.byte	0
 3682 0194 00       		.byte	0
 3683 0195 00       		.byte	0
 3684 0196 0F       		.byte	15
 3685 0197 00       		.byte	0
 3686 0198 00       		.byte	0
 3687 0199 0F       		.byte	15
 3688 019a 00       		.byte	0
 3689 019b 00       		.byte	0
 3690 019c 00       		.byte	0
 3691 019d 00       		.byte	0
 3692 019e 00       		.byte	0
 3693 019f 00       		.byte	0
 3694 01a0 00       		.byte	0
 3695 01a1 00       		.byte	0
 3696 01a2 00       		.byte	0
 3697 01a3 00       		.byte	0
 3698 01a4 00       		.byte	0
 3699 01a5 00       		.byte	0
 3700 01a6 00       		.byte	0
 3701 01a7 00       		.byte	0
 3702 01a8 00       		.byte	0
 3703 01a9 00       		.byte	0
 3704 01aa 00       		.byte	0
 3705 01ab 00       		.byte	0
 3706 01ac 00       		.byte	0
 3707 01ad 00       		.byte	0
 3708 01ae 0F       		.byte	15
 3709 01af 00       		.byte	0
 3710 01b0 00       		.byte	0
 3711 01b1 00       		.byte	0
 3712 01b2 0F       		.byte	15
 3713 01b3 00       		.byte	0
 3714 01b4 00       		.byte	0
 3715 01b5 00       		.byte	0
 3716 01b6 00       		.byte	0
 3717 01b7 00       		.byte	0
 3718 01b8 00       		.byte	0
 3719 01b9 00       		.byte	0
 3720 01ba 00       		.byte	0
 3721 01bb 00       		.byte	0
 3722 01bc 00       		.byte	0
 3723 01bd 00       		.byte	0
 3724 01be 00       		.byte	0
 3725 01bf 00       		.byte	0
 3726 01c0 00       		.byte	0
 3727 01c1 00       		.byte	0
 3728 01c2 00       		.byte	0
 3729 01c3 00       		.byte	0
 3730 01c4 00       		.byte	0
 3731 01c5 0F       		.byte	15
 3732 01c6 00       		.byte	0
 3733 01c7 00       		.byte	0
 3734 01c8 00       		.byte	0
 3735 01c9 00       		.byte	0
 3736 01ca 00       		.byte	0
 3737 01cb 0F       		.byte	15
 3738 01cc 00       		.byte	0
 3739 01cd 00       		.byte	0
 3740 01ce 00       		.byte	0
 3741 01cf 00       		.byte	0
 3742 01d0 00       		.byte	0
 3743 01d1 00       		.byte	0
 3744 01d2 00       		.byte	0
 3745 01d3 00       		.byte	0
 3746 01d4 00       		.byte	0
 3747 01d5 00       		.byte	0
 3748 01d6 00       		.byte	0
 3749 01d7 00       		.byte	0
 3750 01d8 00       		.byte	0
 3751 01d9 00       		.byte	0
 3752 01da 00       		.byte	0
 3753 01db 00       		.byte	0
 3754 01dc 0F       		.byte	15
 3755 01dd 00       		.byte	0
 3756 01de 00       		.byte	0
 3757 01df 00       		.byte	0
 3758 01e0 00       		.byte	0
 3759 01e1 00       		.byte	0
 3760 01e2 00       		.byte	0
 3761 01e3 00       		.byte	0
 3762 01e4 0F       		.byte	15
 3763 01e5 00       		.byte	0
 3764 01e6 00       		.byte	0
 3765 01e7 00       		.byte	0
 3766 01e8 00       		.byte	0
 3767 01e9 00       		.byte	0
 3768 01ea 00       		.byte	0
 3769 01eb 00       		.byte	0
 3770 01ec 00       		.byte	0
 3771 01ed 00       		.byte	0
 3772 01ee 00       		.byte	0
 3773 01ef 00       		.byte	0
 3774 01f0 00       		.byte	0
 3775 01f1 00       		.byte	0
 3776 01f2 00       		.byte	0
 3777 01f3 0F       		.byte	15
 3778 01f4 00       		.byte	0
 3779 01f5 00       		.byte	0
 3780 01f6 00       		.byte	0
 3781 01f7 00       		.byte	0
 3782 01f8 00       		.byte	0
 3783 01f9 00       		.byte	0
 3784 01fa 00       		.byte	0
 3785 01fb 00       		.byte	0
 3786 01fc 00       		.byte	0
 3787 01fd 0F       		.byte	15
 3788 01fe 00       		.byte	0
 3789 01ff 00       		.byte	0
 3790 0200 00       		.byte	0
 3791 0201 00       		.byte	0
 3792 0202 00       		.byte	0
 3793 0203 00       		.byte	0
 3794 0204 00       		.byte	0
 3795 0205 00       		.byte	0
 3796 0206 00       		.byte	0
 3797 0207 00       		.byte	0
 3798 0208 00       		.byte	0
 3799 0209 00       		.byte	0
 3800 020a 0F       		.byte	15
 3801 020b 00       		.byte	0
 3802 020c 00       		.byte	0
 3803 020d 00       		.byte	0
 3804 020e 00       		.byte	0
 3805 020f 00       		.byte	0
 3806 0210 00       		.byte	0
 3807 0211 00       		.byte	0
 3808 0212 00       		.byte	0
 3809 0213 00       		.byte	0
 3810 0214 00       		.byte	0
 3811 0215 00       		.byte	0
 3812 0216 0F       		.byte	15
 3813 0217 0F       		.byte	15
 3814 0218 0F       		.byte	15
 3815 0219 00       		.byte	0
 3816 021a 00       		.byte	0
 3817 021b 00       		.byte	0
 3818 021c 00       		.byte	0
 3819 021d 00       		.byte	0
 3820 021e 00       		.byte	0
 3821 021f 0F       		.byte	15
 3822 0220 0F       		.byte	15
 3823 0221 0F       		.byte	15
 3824 0222 00       		.byte	0
 3825 0223 00       		.byte	0
 3826 0224 00       		.byte	0
 3827 0225 00       		.byte	0
 3828 0226 00       		.byte	0
 3829 0227 00       		.byte	0
 3830 0228 00       		.byte	0
 3831 0229 00       		.byte	0
 3832 022a 00       		.byte	0
 3833 022b 00       		.byte	0
 3834 022c 00       		.byte	0
 3835 022d 00       		.byte	0
 3836 022e 00       		.byte	0
 3837 022f 00       		.byte	0
 3838 0230 00       		.byte	0
 3839 0231 0F       		.byte	15
 3840 0232 0F       		.byte	15
 3841 0233 0F       		.byte	15
 3842 0234 0F       		.byte	15
 3843 0235 0F       		.byte	15
 3844 0236 0F       		.byte	15
 3845 0237 00       		.byte	0
 3846 0238 00       		.byte	0
 3847 0239 00       		.byte	0
 3848 023a 00       		.byte	0
 3849 023b 00       		.byte	0
 3850 023c 00       		.byte	0
 3851 023d 00       		.byte	0
 3852 023e 00       		.byte	0
 3853 023f 00       		.byte	0
 3856              	fichaNegraMap:
 3857 0240 00       		.byte	0
 3858 0241 00       		.byte	0
 3859 0242 00       		.byte	0
 3860 0243 00       		.byte	0
 3861 0244 00       		.byte	0
 3862 0245 00       		.byte	0
 3863 0246 00       		.byte	0
 3864 0247 00       		.byte	0
 3865 0248 00       		.byte	0
 3866 0249 0F       		.byte	15
 3867 024a 0F       		.byte	15
 3868 024b 0F       		.byte	15
 3869 024c 0F       		.byte	15
 3870 024d 0F       		.byte	15
 3871 024e 0F       		.byte	15
 3872 024f 00       		.byte	0
 3873 0250 00       		.byte	0
 3874 0251 00       		.byte	0
 3875 0252 00       		.byte	0
 3876 0253 00       		.byte	0
 3877 0254 00       		.byte	0
 3878 0255 00       		.byte	0
 3879 0256 00       		.byte	0
 3880 0257 00       		.byte	0
 3881 0258 00       		.byte	0
 3882 0259 00       		.byte	0
 3883 025a 00       		.byte	0
 3884 025b 00       		.byte	0
 3885 025c 00       		.byte	0
 3886 025d 00       		.byte	0
 3887 025e 0F       		.byte	15
 3888 025f 0F       		.byte	15
 3889 0260 0F       		.byte	15
 3890 0261 0F       		.byte	15
 3891 0262 0F       		.byte	15
 3892 0263 0F       		.byte	15
 3893 0264 0F       		.byte	15
 3894 0265 0F       		.byte	15
 3895 0266 0F       		.byte	15
 3896 0267 0F       		.byte	15
 3897 0268 0F       		.byte	15
 3898 0269 0F       		.byte	15
 3899 026a 00       		.byte	0
 3900 026b 00       		.byte	0
 3901 026c 00       		.byte	0
 3902 026d 00       		.byte	0
 3903 026e 00       		.byte	0
 3904 026f 00       		.byte	0
 3905 0270 00       		.byte	0
 3906 0271 00       		.byte	0
 3907 0272 00       		.byte	0
 3908 0273 00       		.byte	0
 3909 0274 00       		.byte	0
 3910 0275 0F       		.byte	15
 3911 0276 0F       		.byte	15
 3912 0277 0F       		.byte	15
 3913 0278 0F       		.byte	15
 3914 0279 0F       		.byte	15
 3915 027a 0F       		.byte	15
 3916 027b 0F       		.byte	15
 3917 027c 0F       		.byte	15
 3918 027d 0F       		.byte	15
 3919 027e 0F       		.byte	15
 3920 027f 0F       		.byte	15
 3921 0280 0F       		.byte	15
 3922 0281 0F       		.byte	15
 3923 0282 0F       		.byte	15
 3924 0283 00       		.byte	0
 3925 0284 00       		.byte	0
 3926 0285 00       		.byte	0
 3927 0286 00       		.byte	0
 3928 0287 00       		.byte	0
 3929 0288 00       		.byte	0
 3930 0289 00       		.byte	0
 3931 028a 00       		.byte	0
 3932 028b 00       		.byte	0
 3933 028c 0F       		.byte	15
 3934 028d 0F       		.byte	15
 3935 028e 0F       		.byte	15
 3936 028f 0F       		.byte	15
 3937 0290 0F       		.byte	15
 3938 0291 0F       		.byte	15
 3939 0292 0F       		.byte	15
 3940 0293 0F       		.byte	15
 3941 0294 0F       		.byte	15
 3942 0295 0F       		.byte	15
 3943 0296 0F       		.byte	15
 3944 0297 0F       		.byte	15
 3945 0298 0F       		.byte	15
 3946 0299 0F       		.byte	15
 3947 029a 0F       		.byte	15
 3948 029b 0F       		.byte	15
 3949 029c 00       		.byte	0
 3950 029d 00       		.byte	0
 3951 029e 00       		.byte	0
 3952 029f 00       		.byte	0
 3953 02a0 00       		.byte	0
 3954 02a1 00       		.byte	0
 3955 02a2 00       		.byte	0
 3956 02a3 0F       		.byte	15
 3957 02a4 0F       		.byte	15
 3958 02a5 0F       		.byte	15
 3959 02a6 0F       		.byte	15
 3960 02a7 0F       		.byte	15
 3961 02a8 0F       		.byte	15
 3962 02a9 0F       		.byte	15
 3963 02aa 0F       		.byte	15
 3964 02ab 0F       		.byte	15
 3965 02ac 0F       		.byte	15
 3966 02ad 0F       		.byte	15
 3967 02ae 0F       		.byte	15
 3968 02af 0F       		.byte	15
 3969 02b0 0F       		.byte	15
 3970 02b1 0F       		.byte	15
 3971 02b2 0F       		.byte	15
 3972 02b3 0F       		.byte	15
 3973 02b4 0F       		.byte	15
 3974 02b5 00       		.byte	0
 3975 02b6 00       		.byte	0
 3976 02b7 00       		.byte	0
 3977 02b8 00       		.byte	0
 3978 02b9 00       		.byte	0
 3979 02ba 0F       		.byte	15
 3980 02bb 0F       		.byte	15
 3981 02bc 0F       		.byte	15
 3982 02bd 0F       		.byte	15
 3983 02be 0F       		.byte	15
 3984 02bf 0F       		.byte	15
 3985 02c0 0F       		.byte	15
 3986 02c1 0F       		.byte	15
 3987 02c2 0F       		.byte	15
 3988 02c3 0F       		.byte	15
 3989 02c4 0F       		.byte	15
 3990 02c5 0F       		.byte	15
 3991 02c6 0F       		.byte	15
 3992 02c7 0F       		.byte	15
 3993 02c8 0F       		.byte	15
 3994 02c9 0F       		.byte	15
 3995 02ca 0F       		.byte	15
 3996 02cb 0F       		.byte	15
 3997 02cc 0F       		.byte	15
 3998 02cd 0F       		.byte	15
 3999 02ce 00       		.byte	0
 4000 02cf 00       		.byte	0
 4001 02d0 00       		.byte	0
 4002 02d1 0F       		.byte	15
 4003 02d2 0F       		.byte	15
 4004 02d3 0F       		.byte	15
 4005 02d4 0F       		.byte	15
 4006 02d5 0F       		.byte	15
 4007 02d6 0F       		.byte	15
 4008 02d7 0F       		.byte	15
 4009 02d8 0F       		.byte	15
 4010 02d9 0F       		.byte	15
 4011 02da 0F       		.byte	15
 4012 02db 0F       		.byte	15
 4013 02dc 0F       		.byte	15
 4014 02dd 0F       		.byte	15
 4015 02de 0F       		.byte	15
 4016 02df 0F       		.byte	15
 4017 02e0 0F       		.byte	15
 4018 02e1 0F       		.byte	15
 4019 02e2 0F       		.byte	15
 4020 02e3 0F       		.byte	15
 4021 02e4 0F       		.byte	15
 4022 02e5 0F       		.byte	15
 4023 02e6 0F       		.byte	15
 4024 02e7 00       		.byte	0
 4025 02e8 00       		.byte	0
 4026 02e9 0F       		.byte	15
 4027 02ea 0F       		.byte	15
 4028 02eb 0F       		.byte	15
 4029 02ec 0F       		.byte	15
 4030 02ed 0F       		.byte	15
 4031 02ee 0F       		.byte	15
 4032 02ef 0F       		.byte	15
 4033 02f0 0F       		.byte	15
 4034 02f1 0F       		.byte	15
 4035 02f2 0F       		.byte	15
 4036 02f3 0F       		.byte	15
 4037 02f4 0F       		.byte	15
 4038 02f5 0F       		.byte	15
 4039 02f6 0F       		.byte	15
 4040 02f7 0F       		.byte	15
 4041 02f8 0F       		.byte	15
 4042 02f9 0F       		.byte	15
 4043 02fa 0F       		.byte	15
 4044 02fb 0F       		.byte	15
 4045 02fc 0F       		.byte	15
 4046 02fd 0F       		.byte	15
 4047 02fe 0F       		.byte	15
 4048 02ff 00       		.byte	0
 4049 0300 00       		.byte	0
 4050 0301 0F       		.byte	15
 4051 0302 0F       		.byte	15
 4052 0303 0F       		.byte	15
 4053 0304 0F       		.byte	15
 4054 0305 0F       		.byte	15
 4055 0306 0F       		.byte	15
 4056 0307 0F       		.byte	15
 4057 0308 0F       		.byte	15
 4058 0309 0F       		.byte	15
 4059 030a 0F       		.byte	15
 4060 030b 0F       		.byte	15
 4061 030c 0F       		.byte	15
 4062 030d 0F       		.byte	15
 4063 030e 0F       		.byte	15
 4064 030f 0F       		.byte	15
 4065 0310 0F       		.byte	15
 4066 0311 0F       		.byte	15
 4067 0312 0F       		.byte	15
 4068 0313 0F       		.byte	15
 4069 0314 0F       		.byte	15
 4070 0315 0F       		.byte	15
 4071 0316 0F       		.byte	15
 4072 0317 00       		.byte	0
 4073 0318 0F       		.byte	15
 4074 0319 0F       		.byte	15
 4075 031a 0F       		.byte	15
 4076 031b 0F       		.byte	15
 4077 031c 0F       		.byte	15
 4078 031d 0F       		.byte	15
 4079 031e 0F       		.byte	15
 4080 031f 0F       		.byte	15
 4081 0320 0F       		.byte	15
 4082 0321 0F       		.byte	15
 4083 0322 0F       		.byte	15
 4084 0323 0F       		.byte	15
 4085 0324 0F       		.byte	15
 4086 0325 0F       		.byte	15
 4087 0326 0F       		.byte	15
 4088 0327 0F       		.byte	15
 4089 0328 0F       		.byte	15
 4090 0329 0F       		.byte	15
 4091 032a 0F       		.byte	15
 4092 032b 0F       		.byte	15
 4093 032c 0F       		.byte	15
 4094 032d 0F       		.byte	15
 4095 032e 0F       		.byte	15
 4096 032f 0F       		.byte	15
 4097 0330 0F       		.byte	15
 4098 0331 0F       		.byte	15
 4099 0332 0F       		.byte	15
 4100 0333 0F       		.byte	15
 4101 0334 0F       		.byte	15
 4102 0335 0F       		.byte	15
 4103 0336 0F       		.byte	15
 4104 0337 0F       		.byte	15
 4105 0338 0F       		.byte	15
 4106 0339 0F       		.byte	15
 4107 033a 0F       		.byte	15
 4108 033b 0F       		.byte	15
 4109 033c 0F       		.byte	15
 4110 033d 0F       		.byte	15
 4111 033e 0F       		.byte	15
 4112 033f 0F       		.byte	15
 4113 0340 0F       		.byte	15
 4114 0341 0F       		.byte	15
 4115 0342 0F       		.byte	15
 4116 0343 0F       		.byte	15
 4117 0344 0F       		.byte	15
 4118 0345 0F       		.byte	15
 4119 0346 0F       		.byte	15
 4120 0347 0F       		.byte	15
 4121 0348 0F       		.byte	15
 4122 0349 0F       		.byte	15
 4123 034a 0F       		.byte	15
 4124 034b 0F       		.byte	15
 4125 034c 0F       		.byte	15
 4126 034d 0F       		.byte	15
 4127 034e 0F       		.byte	15
 4128 034f 0F       		.byte	15
 4129 0350 0F       		.byte	15
 4130 0351 0F       		.byte	15
 4131 0352 0F       		.byte	15
 4132 0353 0F       		.byte	15
 4133 0354 0F       		.byte	15
 4134 0355 0F       		.byte	15
 4135 0356 0F       		.byte	15
 4136 0357 0F       		.byte	15
 4137 0358 0F       		.byte	15
 4138 0359 0F       		.byte	15
 4139 035a 0F       		.byte	15
 4140 035b 0F       		.byte	15
 4141 035c 0F       		.byte	15
 4142 035d 0F       		.byte	15
 4143 035e 0F       		.byte	15
 4144 035f 0F       		.byte	15
 4145 0360 0F       		.byte	15
 4146 0361 0F       		.byte	15
 4147 0362 0F       		.byte	15
 4148 0363 0F       		.byte	15
 4149 0364 0F       		.byte	15
 4150 0365 0F       		.byte	15
 4151 0366 0F       		.byte	15
 4152 0367 0F       		.byte	15
 4153 0368 0F       		.byte	15
 4154 0369 0F       		.byte	15
 4155 036a 0F       		.byte	15
 4156 036b 0F       		.byte	15
 4157 036c 0F       		.byte	15
 4158 036d 0F       		.byte	15
 4159 036e 0F       		.byte	15
 4160 036f 0F       		.byte	15
 4161 0370 0F       		.byte	15
 4162 0371 0F       		.byte	15
 4163 0372 0F       		.byte	15
 4164 0373 0F       		.byte	15
 4165 0374 0F       		.byte	15
 4166 0375 0F       		.byte	15
 4167 0376 0F       		.byte	15
 4168 0377 0F       		.byte	15
 4169 0378 0F       		.byte	15
 4170 0379 0F       		.byte	15
 4171 037a 0F       		.byte	15
 4172 037b 0F       		.byte	15
 4173 037c 0F       		.byte	15
 4174 037d 0F       		.byte	15
 4175 037e 0F       		.byte	15
 4176 037f 0F       		.byte	15
 4177 0380 0F       		.byte	15
 4178 0381 0F       		.byte	15
 4179 0382 0F       		.byte	15
 4180 0383 0F       		.byte	15
 4181 0384 0F       		.byte	15
 4182 0385 0F       		.byte	15
 4183 0386 0F       		.byte	15
 4184 0387 0F       		.byte	15
 4185 0388 0F       		.byte	15
 4186 0389 0F       		.byte	15
 4187 038a 0F       		.byte	15
 4188 038b 0F       		.byte	15
 4189 038c 0F       		.byte	15
 4190 038d 0F       		.byte	15
 4191 038e 0F       		.byte	15
 4192 038f 0F       		.byte	15
 4193 0390 0F       		.byte	15
 4194 0391 0F       		.byte	15
 4195 0392 0F       		.byte	15
 4196 0393 0F       		.byte	15
 4197 0394 0F       		.byte	15
 4198 0395 0F       		.byte	15
 4199 0396 0F       		.byte	15
 4200 0397 0F       		.byte	15
 4201 0398 0F       		.byte	15
 4202 0399 0F       		.byte	15
 4203 039a 0F       		.byte	15
 4204 039b 0F       		.byte	15
 4205 039c 0F       		.byte	15
 4206 039d 0F       		.byte	15
 4207 039e 0F       		.byte	15
 4208 039f 0F       		.byte	15
 4209 03a0 0F       		.byte	15
 4210 03a1 0F       		.byte	15
 4211 03a2 0F       		.byte	15
 4212 03a3 0F       		.byte	15
 4213 03a4 0F       		.byte	15
 4214 03a5 0F       		.byte	15
 4215 03a6 0F       		.byte	15
 4216 03a7 0F       		.byte	15
 4217 03a8 00       		.byte	0
 4218 03a9 0F       		.byte	15
 4219 03aa 0F       		.byte	15
 4220 03ab 0F       		.byte	15
 4221 03ac 0F       		.byte	15
 4222 03ad 0F       		.byte	15
 4223 03ae 0F       		.byte	15
 4224 03af 0F       		.byte	15
 4225 03b0 0F       		.byte	15
 4226 03b1 0F       		.byte	15
 4227 03b2 0F       		.byte	15
 4228 03b3 0F       		.byte	15
 4229 03b4 0F       		.byte	15
 4230 03b5 0F       		.byte	15
 4231 03b6 0F       		.byte	15
 4232 03b7 0F       		.byte	15
 4233 03b8 0F       		.byte	15
 4234 03b9 0F       		.byte	15
 4235 03ba 0F       		.byte	15
 4236 03bb 0F       		.byte	15
 4237 03bc 0F       		.byte	15
 4238 03bd 0F       		.byte	15
 4239 03be 0F       		.byte	15
 4240 03bf 00       		.byte	0
 4241 03c0 00       		.byte	0
 4242 03c1 0F       		.byte	15
 4243 03c2 0F       		.byte	15
 4244 03c3 0F       		.byte	15
 4245 03c4 0F       		.byte	15
 4246 03c5 0F       		.byte	15
 4247 03c6 0F       		.byte	15
 4248 03c7 0F       		.byte	15
 4249 03c8 0F       		.byte	15
 4250 03c9 0F       		.byte	15
 4251 03ca 0F       		.byte	15
 4252 03cb 0F       		.byte	15
 4253 03cc 0F       		.byte	15
 4254 03cd 0F       		.byte	15
 4255 03ce 0F       		.byte	15
 4256 03cf 0F       		.byte	15
 4257 03d0 0F       		.byte	15
 4258 03d1 0F       		.byte	15
 4259 03d2 0F       		.byte	15
 4260 03d3 0F       		.byte	15
 4261 03d4 0F       		.byte	15
 4262 03d5 0F       		.byte	15
 4263 03d6 0F       		.byte	15
 4264 03d7 00       		.byte	0
 4265 03d8 00       		.byte	0
 4266 03d9 0F       		.byte	15
 4267 03da 0F       		.byte	15
 4268 03db 0F       		.byte	15
 4269 03dc 0F       		.byte	15
 4270 03dd 0F       		.byte	15
 4271 03de 0F       		.byte	15
 4272 03df 0F       		.byte	15
 4273 03e0 0F       		.byte	15
 4274 03e1 0F       		.byte	15
 4275 03e2 0F       		.byte	15
 4276 03e3 0F       		.byte	15
 4277 03e4 0F       		.byte	15
 4278 03e5 0F       		.byte	15
 4279 03e6 0F       		.byte	15
 4280 03e7 0F       		.byte	15
 4281 03e8 0F       		.byte	15
 4282 03e9 0F       		.byte	15
 4283 03ea 0F       		.byte	15
 4284 03eb 0F       		.byte	15
 4285 03ec 0F       		.byte	15
 4286 03ed 0F       		.byte	15
 4287 03ee 0F       		.byte	15
 4288 03ef 00       		.byte	0
 4289 03f0 00       		.byte	0
 4290 03f1 00       		.byte	0
 4291 03f2 0F       		.byte	15
 4292 03f3 0F       		.byte	15
 4293 03f4 0F       		.byte	15
 4294 03f5 0F       		.byte	15
 4295 03f6 0F       		.byte	15
 4296 03f7 0F       		.byte	15
 4297 03f8 0F       		.byte	15
 4298 03f9 0F       		.byte	15
 4299 03fa 0F       		.byte	15
 4300 03fb 0F       		.byte	15
 4301 03fc 0F       		.byte	15
 4302 03fd 0F       		.byte	15
 4303 03fe 0F       		.byte	15
 4304 03ff 0F       		.byte	15
 4305 0400 0F       		.byte	15
 4306 0401 0F       		.byte	15
 4307 0402 0F       		.byte	15
 4308 0403 0F       		.byte	15
 4309 0404 0F       		.byte	15
 4310 0405 0F       		.byte	15
 4311 0406 00       		.byte	0
 4312 0407 00       		.byte	0
 4313 0408 00       		.byte	0
 4314 0409 00       		.byte	0
 4315 040a 00       		.byte	0
 4316 040b 0F       		.byte	15
 4317 040c 0F       		.byte	15
 4318 040d 0F       		.byte	15
 4319 040e 0F       		.byte	15
 4320 040f 0F       		.byte	15
 4321 0410 0F       		.byte	15
 4322 0411 0F       		.byte	15
 4323 0412 0F       		.byte	15
 4324 0413 0F       		.byte	15
 4325 0414 0F       		.byte	15
 4326 0415 0F       		.byte	15
 4327 0416 0F       		.byte	15
 4328 0417 0F       		.byte	15
 4329 0418 0F       		.byte	15
 4330 0419 0F       		.byte	15
 4331 041a 0F       		.byte	15
 4332 041b 0F       		.byte	15
 4333 041c 0F       		.byte	15
 4334 041d 00       		.byte	0
 4335 041e 00       		.byte	0
 4336 041f 00       		.byte	0
 4337 0420 00       		.byte	0
 4338 0421 00       		.byte	0
 4339 0422 00       		.byte	0
 4340 0423 00       		.byte	0
 4341 0424 0F       		.byte	15
 4342 0425 0F       		.byte	15
 4343 0426 0F       		.byte	15
 4344 0427 0F       		.byte	15
 4345 0428 0F       		.byte	15
 4346 0429 0F       		.byte	15
 4347 042a 0F       		.byte	15
 4348 042b 0F       		.byte	15
 4349 042c 0F       		.byte	15
 4350 042d 0F       		.byte	15
 4351 042e 0F       		.byte	15
 4352 042f 0F       		.byte	15
 4353 0430 0F       		.byte	15
 4354 0431 0F       		.byte	15
 4355 0432 0F       		.byte	15
 4356 0433 0F       		.byte	15
 4357 0434 00       		.byte	0
 4358 0435 00       		.byte	0
 4359 0436 00       		.byte	0
 4360 0437 00       		.byte	0
 4361 0438 00       		.byte	0
 4362 0439 00       		.byte	0
 4363 043a 00       		.byte	0
 4364 043b 00       		.byte	0
 4365 043c 00       		.byte	0
 4366 043d 0F       		.byte	15
 4367 043e 0F       		.byte	15
 4368 043f 0F       		.byte	15
 4369 0440 0F       		.byte	15
 4370 0441 0F       		.byte	15
 4371 0442 0F       		.byte	15
 4372 0443 0F       		.byte	15
 4373 0444 0F       		.byte	15
 4374 0445 0F       		.byte	15
 4375 0446 0F       		.byte	15
 4376 0447 0F       		.byte	15
 4377 0448 0F       		.byte	15
 4378 0449 0F       		.byte	15
 4379 044a 0F       		.byte	15
 4380 044b 00       		.byte	0
 4381 044c 00       		.byte	0
 4382 044d 00       		.byte	0
 4383 044e 00       		.byte	0
 4384 044f 00       		.byte	0
 4385 0450 00       		.byte	0
 4386 0451 00       		.byte	0
 4387 0452 00       		.byte	0
 4388 0453 00       		.byte	0
 4389 0454 00       		.byte	0
 4390 0455 00       		.byte	0
 4391 0456 0F       		.byte	15
 4392 0457 0F       		.byte	15
 4393 0458 0F       		.byte	15
 4394 0459 0F       		.byte	15
 4395 045a 0F       		.byte	15
 4396 045b 0F       		.byte	15
 4397 045c 0F       		.byte	15
 4398 045d 0F       		.byte	15
 4399 045e 0F       		.byte	15
 4400 045f 0F       		.byte	15
 4401 0460 0F       		.byte	15
 4402 0461 0F       		.byte	15
 4403 0462 00       		.byte	0
 4404 0463 00       		.byte	0
 4405 0464 00       		.byte	0
 4406 0465 00       		.byte	0
 4407 0466 00       		.byte	0
 4408 0467 00       		.byte	0
 4409 0468 00       		.byte	0
 4410 0469 00       		.byte	0
 4411 046a 00       		.byte	0
 4412 046b 00       		.byte	0
 4413 046c 00       		.byte	0
 4414 046d 00       		.byte	0
 4415 046e 00       		.byte	0
 4416 046f 00       		.byte	0
 4417 0470 00       		.byte	0
 4418 0471 0F       		.byte	15
 4419 0472 0F       		.byte	15
 4420 0473 0F       		.byte	15
 4421 0474 0F       		.byte	15
 4422 0475 0F       		.byte	15
 4423 0476 0F       		.byte	15
 4424 0477 00       		.byte	0
 4425 0478 00       		.byte	0
 4426 0479 00       		.byte	0
 4427 047a 00       		.byte	0
 4428 047b 00       		.byte	0
 4429 047c 00       		.byte	0
 4430 047d 00       		.byte	0
 4431 047e 00       		.byte	0
 4432 047f 00       		.byte	0
 4435              	fichaGrisMap:
 4436 0480 00       		.byte	0
 4437 0481 00       		.byte	0
 4438 0482 00       		.byte	0
 4439 0483 00       		.byte	0
 4440 0484 00       		.byte	0
 4441 0485 00       		.byte	0
 4442 0486 00       		.byte	0
 4443 0487 00       		.byte	0
 4444 0488 00       		.byte	0
 4445 0489 09       		.byte	9
 4446 048a 09       		.byte	9
 4447 048b 09       		.byte	9
 4448 048c 09       		.byte	9
 4449 048d 09       		.byte	9
 4450 048e 09       		.byte	9
 4451 048f 00       		.byte	0
 4452 0490 00       		.byte	0
 4453 0491 00       		.byte	0
 4454 0492 00       		.byte	0
 4455 0493 00       		.byte	0
 4456 0494 00       		.byte	0
 4457 0495 00       		.byte	0
 4458 0496 00       		.byte	0
 4459 0497 00       		.byte	0
 4460 0498 00       		.byte	0
 4461 0499 00       		.byte	0
 4462 049a 00       		.byte	0
 4463 049b 00       		.byte	0
 4464 049c 00       		.byte	0
 4465 049d 00       		.byte	0
 4466 049e 09       		.byte	9
 4467 049f 09       		.byte	9
 4468 04a0 09       		.byte	9
 4469 04a1 09       		.byte	9
 4470 04a2 09       		.byte	9
 4471 04a3 09       		.byte	9
 4472 04a4 09       		.byte	9
 4473 04a5 09       		.byte	9
 4474 04a6 09       		.byte	9
 4475 04a7 09       		.byte	9
 4476 04a8 09       		.byte	9
 4477 04a9 09       		.byte	9
 4478 04aa 00       		.byte	0
 4479 04ab 00       		.byte	0
 4480 04ac 00       		.byte	0
 4481 04ad 00       		.byte	0
 4482 04ae 00       		.byte	0
 4483 04af 00       		.byte	0
 4484 04b0 00       		.byte	0
 4485 04b1 00       		.byte	0
 4486 04b2 00       		.byte	0
 4487 04b3 00       		.byte	0
 4488 04b4 00       		.byte	0
 4489 04b5 09       		.byte	9
 4490 04b6 09       		.byte	9
 4491 04b7 09       		.byte	9
 4492 04b8 09       		.byte	9
 4493 04b9 09       		.byte	9
 4494 04ba 09       		.byte	9
 4495 04bb 09       		.byte	9
 4496 04bc 09       		.byte	9
 4497 04bd 09       		.byte	9
 4498 04be 09       		.byte	9
 4499 04bf 09       		.byte	9
 4500 04c0 09       		.byte	9
 4501 04c1 09       		.byte	9
 4502 04c2 09       		.byte	9
 4503 04c3 00       		.byte	0
 4504 04c4 00       		.byte	0
 4505 04c5 00       		.byte	0
 4506 04c6 00       		.byte	0
 4507 04c7 00       		.byte	0
 4508 04c8 00       		.byte	0
 4509 04c9 00       		.byte	0
 4510 04ca 00       		.byte	0
 4511 04cb 00       		.byte	0
 4512 04cc 09       		.byte	9
 4513 04cd 09       		.byte	9
 4514 04ce 09       		.byte	9
 4515 04cf 09       		.byte	9
 4516 04d0 09       		.byte	9
 4517 04d1 09       		.byte	9
 4518 04d2 09       		.byte	9
 4519 04d3 09       		.byte	9
 4520 04d4 09       		.byte	9
 4521 04d5 09       		.byte	9
 4522 04d6 09       		.byte	9
 4523 04d7 09       		.byte	9
 4524 04d8 09       		.byte	9
 4525 04d9 09       		.byte	9
 4526 04da 09       		.byte	9
 4527 04db 09       		.byte	9
 4528 04dc 00       		.byte	0
 4529 04dd 00       		.byte	0
 4530 04de 00       		.byte	0
 4531 04df 00       		.byte	0
 4532 04e0 00       		.byte	0
 4533 04e1 00       		.byte	0
 4534 04e2 00       		.byte	0
 4535 04e3 09       		.byte	9
 4536 04e4 09       		.byte	9
 4537 04e5 09       		.byte	9
 4538 04e6 09       		.byte	9
 4539 04e7 09       		.byte	9
 4540 04e8 09       		.byte	9
 4541 04e9 09       		.byte	9
 4542 04ea 09       		.byte	9
 4543 04eb 09       		.byte	9
 4544 04ec 09       		.byte	9
 4545 04ed 09       		.byte	9
 4546 04ee 09       		.byte	9
 4547 04ef 09       		.byte	9
 4548 04f0 09       		.byte	9
 4549 04f1 09       		.byte	9
 4550 04f2 09       		.byte	9
 4551 04f3 09       		.byte	9
 4552 04f4 09       		.byte	9
 4553 04f5 00       		.byte	0
 4554 04f6 00       		.byte	0
 4555 04f7 00       		.byte	0
 4556 04f8 00       		.byte	0
 4557 04f9 00       		.byte	0
 4558 04fa 09       		.byte	9
 4559 04fb 09       		.byte	9
 4560 04fc 09       		.byte	9
 4561 04fd 09       		.byte	9
 4562 04fe 09       		.byte	9
 4563 04ff 09       		.byte	9
 4564 0500 09       		.byte	9
 4565 0501 09       		.byte	9
 4566 0502 09       		.byte	9
 4567 0503 09       		.byte	9
 4568 0504 09       		.byte	9
 4569 0505 09       		.byte	9
 4570 0506 09       		.byte	9
 4571 0507 09       		.byte	9
 4572 0508 09       		.byte	9
 4573 0509 09       		.byte	9
 4574 050a 09       		.byte	9
 4575 050b 09       		.byte	9
 4576 050c 09       		.byte	9
 4577 050d 09       		.byte	9
 4578 050e 00       		.byte	0
 4579 050f 00       		.byte	0
 4580 0510 00       		.byte	0
 4581 0511 09       		.byte	9
 4582 0512 09       		.byte	9
 4583 0513 09       		.byte	9
 4584 0514 09       		.byte	9
 4585 0515 09       		.byte	9
 4586 0516 09       		.byte	9
 4587 0517 09       		.byte	9
 4588 0518 09       		.byte	9
 4589 0519 09       		.byte	9
 4590 051a 09       		.byte	9
 4591 051b 09       		.byte	9
 4592 051c 09       		.byte	9
 4593 051d 09       		.byte	9
 4594 051e 09       		.byte	9
 4595 051f 09       		.byte	9
 4596 0520 09       		.byte	9
 4597 0521 09       		.byte	9
 4598 0522 09       		.byte	9
 4599 0523 09       		.byte	9
 4600 0524 09       		.byte	9
 4601 0525 09       		.byte	9
 4602 0526 09       		.byte	9
 4603 0527 00       		.byte	0
 4604 0528 00       		.byte	0
 4605 0529 09       		.byte	9
 4606 052a 09       		.byte	9
 4607 052b 09       		.byte	9
 4608 052c 09       		.byte	9
 4609 052d 09       		.byte	9
 4610 052e 09       		.byte	9
 4611 052f 09       		.byte	9
 4612 0530 09       		.byte	9
 4613 0531 09       		.byte	9
 4614 0532 09       		.byte	9
 4615 0533 09       		.byte	9
 4616 0534 09       		.byte	9
 4617 0535 09       		.byte	9
 4618 0536 09       		.byte	9
 4619 0537 09       		.byte	9
 4620 0538 09       		.byte	9
 4621 0539 09       		.byte	9
 4622 053a 09       		.byte	9
 4623 053b 09       		.byte	9
 4624 053c 09       		.byte	9
 4625 053d 09       		.byte	9
 4626 053e 09       		.byte	9
 4627 053f 00       		.byte	0
 4628 0540 00       		.byte	0
 4629 0541 09       		.byte	9
 4630 0542 09       		.byte	9
 4631 0543 09       		.byte	9
 4632 0544 09       		.byte	9
 4633 0545 09       		.byte	9
 4634 0546 09       		.byte	9
 4635 0547 09       		.byte	9
 4636 0548 09       		.byte	9
 4637 0549 09       		.byte	9
 4638 054a 09       		.byte	9
 4639 054b 09       		.byte	9
 4640 054c 09       		.byte	9
 4641 054d 09       		.byte	9
 4642 054e 09       		.byte	9
 4643 054f 09       		.byte	9
 4644 0550 09       		.byte	9
 4645 0551 09       		.byte	9
 4646 0552 09       		.byte	9
 4647 0553 09       		.byte	9
 4648 0554 09       		.byte	9
 4649 0555 09       		.byte	9
 4650 0556 09       		.byte	9
 4651 0557 00       		.byte	0
 4652 0558 09       		.byte	9
 4653 0559 09       		.byte	9
 4654 055a 09       		.byte	9
 4655 055b 09       		.byte	9
 4656 055c 09       		.byte	9
 4657 055d 09       		.byte	9
 4658 055e 09       		.byte	9
 4659 055f 09       		.byte	9
 4660 0560 09       		.byte	9
 4661 0561 09       		.byte	9
 4662 0562 09       		.byte	9
 4663 0563 09       		.byte	9
 4664 0564 09       		.byte	9
 4665 0565 09       		.byte	9
 4666 0566 09       		.byte	9
 4667 0567 09       		.byte	9
 4668 0568 09       		.byte	9
 4669 0569 09       		.byte	9
 4670 056a 09       		.byte	9
 4671 056b 09       		.byte	9
 4672 056c 09       		.byte	9
 4673 056d 09       		.byte	9
 4674 056e 09       		.byte	9
 4675 056f 09       		.byte	9
 4676 0570 09       		.byte	9
 4677 0571 09       		.byte	9
 4678 0572 09       		.byte	9
 4679 0573 09       		.byte	9
 4680 0574 09       		.byte	9
 4681 0575 09       		.byte	9
 4682 0576 09       		.byte	9
 4683 0577 09       		.byte	9
 4684 0578 09       		.byte	9
 4685 0579 09       		.byte	9
 4686 057a 09       		.byte	9
 4687 057b 09       		.byte	9
 4688 057c 09       		.byte	9
 4689 057d 09       		.byte	9
 4690 057e 09       		.byte	9
 4691 057f 09       		.byte	9
 4692 0580 09       		.byte	9
 4693 0581 09       		.byte	9
 4694 0582 09       		.byte	9
 4695 0583 09       		.byte	9
 4696 0584 09       		.byte	9
 4697 0585 09       		.byte	9
 4698 0586 09       		.byte	9
 4699 0587 09       		.byte	9
 4700 0588 09       		.byte	9
 4701 0589 09       		.byte	9
 4702 058a 09       		.byte	9
 4703 058b 09       		.byte	9
 4704 058c 09       		.byte	9
 4705 058d 09       		.byte	9
 4706 058e 09       		.byte	9
 4707 058f 09       		.byte	9
 4708 0590 09       		.byte	9
 4709 0591 09       		.byte	9
 4710 0592 09       		.byte	9
 4711 0593 09       		.byte	9
 4712 0594 09       		.byte	9
 4713 0595 09       		.byte	9
 4714 0596 09       		.byte	9
 4715 0597 09       		.byte	9
 4716 0598 09       		.byte	9
 4717 0599 09       		.byte	9
 4718 059a 09       		.byte	9
 4719 059b 09       		.byte	9
 4720 059c 09       		.byte	9
 4721 059d 09       		.byte	9
 4722 059e 09       		.byte	9
 4723 059f 09       		.byte	9
 4724 05a0 09       		.byte	9
 4725 05a1 09       		.byte	9
 4726 05a2 09       		.byte	9
 4727 05a3 09       		.byte	9
 4728 05a4 09       		.byte	9
 4729 05a5 09       		.byte	9
 4730 05a6 09       		.byte	9
 4731 05a7 09       		.byte	9
 4732 05a8 09       		.byte	9
 4733 05a9 09       		.byte	9
 4734 05aa 09       		.byte	9
 4735 05ab 09       		.byte	9
 4736 05ac 09       		.byte	9
 4737 05ad 09       		.byte	9
 4738 05ae 09       		.byte	9
 4739 05af 09       		.byte	9
 4740 05b0 09       		.byte	9
 4741 05b1 09       		.byte	9
 4742 05b2 09       		.byte	9
 4743 05b3 09       		.byte	9
 4744 05b4 09       		.byte	9
 4745 05b5 09       		.byte	9
 4746 05b6 09       		.byte	9
 4747 05b7 09       		.byte	9
 4748 05b8 09       		.byte	9
 4749 05b9 09       		.byte	9
 4750 05ba 09       		.byte	9
 4751 05bb 09       		.byte	9
 4752 05bc 09       		.byte	9
 4753 05bd 09       		.byte	9
 4754 05be 09       		.byte	9
 4755 05bf 09       		.byte	9
 4756 05c0 09       		.byte	9
 4757 05c1 09       		.byte	9
 4758 05c2 09       		.byte	9
 4759 05c3 09       		.byte	9
 4760 05c4 09       		.byte	9
 4761 05c5 09       		.byte	9
 4762 05c6 09       		.byte	9
 4763 05c7 09       		.byte	9
 4764 05c8 09       		.byte	9
 4765 05c9 09       		.byte	9
 4766 05ca 09       		.byte	9
 4767 05cb 09       		.byte	9
 4768 05cc 09       		.byte	9
 4769 05cd 09       		.byte	9
 4770 05ce 09       		.byte	9
 4771 05cf 09       		.byte	9
 4772 05d0 09       		.byte	9
 4773 05d1 09       		.byte	9
 4774 05d2 09       		.byte	9
 4775 05d3 09       		.byte	9
 4776 05d4 09       		.byte	9
 4777 05d5 09       		.byte	9
 4778 05d6 09       		.byte	9
 4779 05d7 09       		.byte	9
 4780 05d8 09       		.byte	9
 4781 05d9 09       		.byte	9
 4782 05da 09       		.byte	9
 4783 05db 09       		.byte	9
 4784 05dc 09       		.byte	9
 4785 05dd 09       		.byte	9
 4786 05de 09       		.byte	9
 4787 05df 09       		.byte	9
 4788 05e0 09       		.byte	9
 4789 05e1 09       		.byte	9
 4790 05e2 09       		.byte	9
 4791 05e3 09       		.byte	9
 4792 05e4 09       		.byte	9
 4793 05e5 09       		.byte	9
 4794 05e6 09       		.byte	9
 4795 05e7 09       		.byte	9
 4796 05e8 00       		.byte	0
 4797 05e9 09       		.byte	9
 4798 05ea 09       		.byte	9
 4799 05eb 09       		.byte	9
 4800 05ec 09       		.byte	9
 4801 05ed 09       		.byte	9
 4802 05ee 09       		.byte	9
 4803 05ef 09       		.byte	9
 4804 05f0 09       		.byte	9
 4805 05f1 09       		.byte	9
 4806 05f2 09       		.byte	9
 4807 05f3 09       		.byte	9
 4808 05f4 09       		.byte	9
 4809 05f5 09       		.byte	9
 4810 05f6 09       		.byte	9
 4811 05f7 09       		.byte	9
 4812 05f8 09       		.byte	9
 4813 05f9 09       		.byte	9
 4814 05fa 09       		.byte	9
 4815 05fb 09       		.byte	9
 4816 05fc 09       		.byte	9
 4817 05fd 09       		.byte	9
 4818 05fe 09       		.byte	9
 4819 05ff 00       		.byte	0
 4820 0600 00       		.byte	0
 4821 0601 09       		.byte	9
 4822 0602 09       		.byte	9
 4823 0603 09       		.byte	9
 4824 0604 09       		.byte	9
 4825 0605 09       		.byte	9
 4826 0606 09       		.byte	9
 4827 0607 09       		.byte	9
 4828 0608 09       		.byte	9
 4829 0609 09       		.byte	9
 4830 060a 09       		.byte	9
 4831 060b 09       		.byte	9
 4832 060c 09       		.byte	9
 4833 060d 09       		.byte	9
 4834 060e 09       		.byte	9
 4835 060f 09       		.byte	9
 4836 0610 09       		.byte	9
 4837 0611 09       		.byte	9
 4838 0612 09       		.byte	9
 4839 0613 09       		.byte	9
 4840 0614 09       		.byte	9
 4841 0615 09       		.byte	9
 4842 0616 09       		.byte	9
 4843 0617 00       		.byte	0
 4844 0618 00       		.byte	0
 4845 0619 09       		.byte	9
 4846 061a 09       		.byte	9
 4847 061b 09       		.byte	9
 4848 061c 09       		.byte	9
 4849 061d 09       		.byte	9
 4850 061e 09       		.byte	9
 4851 061f 09       		.byte	9
 4852 0620 09       		.byte	9
 4853 0621 09       		.byte	9
 4854 0622 09       		.byte	9
 4855 0623 09       		.byte	9
 4856 0624 09       		.byte	9
 4857 0625 09       		.byte	9
 4858 0626 09       		.byte	9
 4859 0627 09       		.byte	9
 4860 0628 09       		.byte	9
 4861 0629 09       		.byte	9
 4862 062a 09       		.byte	9
 4863 062b 09       		.byte	9
 4864 062c 09       		.byte	9
 4865 062d 09       		.byte	9
 4866 062e 09       		.byte	9
 4867 062f 00       		.byte	0
 4868 0630 00       		.byte	0
 4869 0631 00       		.byte	0
 4870 0632 09       		.byte	9
 4871 0633 09       		.byte	9
 4872 0634 09       		.byte	9
 4873 0635 09       		.byte	9
 4874 0636 09       		.byte	9
 4875 0637 09       		.byte	9
 4876 0638 09       		.byte	9
 4877 0639 09       		.byte	9
 4878 063a 09       		.byte	9
 4879 063b 09       		.byte	9
 4880 063c 09       		.byte	9
 4881 063d 09       		.byte	9
 4882 063e 09       		.byte	9
 4883 063f 09       		.byte	9
 4884 0640 09       		.byte	9
 4885 0641 09       		.byte	9
 4886 0642 09       		.byte	9
 4887 0643 09       		.byte	9
 4888 0644 09       		.byte	9
 4889 0645 09       		.byte	9
 4890 0646 00       		.byte	0
 4891 0647 00       		.byte	0
 4892 0648 00       		.byte	0
 4893 0649 00       		.byte	0
 4894 064a 00       		.byte	0
 4895 064b 09       		.byte	9
 4896 064c 09       		.byte	9
 4897 064d 09       		.byte	9
 4898 064e 09       		.byte	9
 4899 064f 09       		.byte	9
 4900 0650 09       		.byte	9
 4901 0651 09       		.byte	9
 4902 0652 09       		.byte	9
 4903 0653 09       		.byte	9
 4904 0654 09       		.byte	9
 4905 0655 09       		.byte	9
 4906 0656 09       		.byte	9
 4907 0657 09       		.byte	9
 4908 0658 09       		.byte	9
 4909 0659 09       		.byte	9
 4910 065a 09       		.byte	9
 4911 065b 09       		.byte	9
 4912 065c 09       		.byte	9
 4913 065d 00       		.byte	0
 4914 065e 00       		.byte	0
 4915 065f 00       		.byte	0
 4916 0660 00       		.byte	0
 4917 0661 00       		.byte	0
 4918 0662 00       		.byte	0
 4919 0663 00       		.byte	0
 4920 0664 09       		.byte	9
 4921 0665 09       		.byte	9
 4922 0666 09       		.byte	9
 4923 0667 09       		.byte	9
 4924 0668 09       		.byte	9
 4925 0669 09       		.byte	9
 4926 066a 09       		.byte	9
 4927 066b 09       		.byte	9
 4928 066c 09       		.byte	9
 4929 066d 09       		.byte	9
 4930 066e 09       		.byte	9
 4931 066f 09       		.byte	9
 4932 0670 09       		.byte	9
 4933 0671 09       		.byte	9
 4934 0672 09       		.byte	9
 4935 0673 09       		.byte	9
 4936 0674 00       		.byte	0
 4937 0675 00       		.byte	0
 4938 0676 00       		.byte	0
 4939 0677 00       		.byte	0
 4940 0678 00       		.byte	0
 4941 0679 00       		.byte	0
 4942 067a 00       		.byte	0
 4943 067b 00       		.byte	0
 4944 067c 00       		.byte	0
 4945 067d 09       		.byte	9
 4946 067e 09       		.byte	9
 4947 067f 09       		.byte	9
 4948 0680 09       		.byte	9
 4949 0681 09       		.byte	9
 4950 0682 09       		.byte	9
 4951 0683 09       		.byte	9
 4952 0684 09       		.byte	9
 4953 0685 09       		.byte	9
 4954 0686 09       		.byte	9
 4955 0687 09       		.byte	9
 4956 0688 09       		.byte	9
 4957 0689 09       		.byte	9
 4958 068a 09       		.byte	9
 4959 068b 00       		.byte	0
 4960 068c 00       		.byte	0
 4961 068d 00       		.byte	0
 4962 068e 00       		.byte	0
 4963 068f 00       		.byte	0
 4964 0690 00       		.byte	0
 4965 0691 00       		.byte	0
 4966 0692 00       		.byte	0
 4967 0693 00       		.byte	0
 4968 0694 00       		.byte	0
 4969 0695 00       		.byte	0
 4970 0696 09       		.byte	9
 4971 0697 09       		.byte	9
 4972 0698 09       		.byte	9
 4973 0699 09       		.byte	9
 4974 069a 09       		.byte	9
 4975 069b 09       		.byte	9
 4976 069c 09       		.byte	9
 4977 069d 09       		.byte	9
 4978 069e 09       		.byte	9
 4979 069f 09       		.byte	9
 4980 06a0 09       		.byte	9
 4981 06a1 09       		.byte	9
 4982 06a2 00       		.byte	0
 4983 06a3 00       		.byte	0
 4984 06a4 00       		.byte	0
 4985 06a5 00       		.byte	0
 4986 06a6 00       		.byte	0
 4987 06a7 00       		.byte	0
 4988 06a8 00       		.byte	0
 4989 06a9 00       		.byte	0
 4990 06aa 00       		.byte	0
 4991 06ab 00       		.byte	0
 4992 06ac 00       		.byte	0
 4993 06ad 00       		.byte	0
 4994 06ae 00       		.byte	0
 4995 06af 00       		.byte	0
 4996 06b0 00       		.byte	0
 4997 06b1 09       		.byte	9
 4998 06b2 09       		.byte	9
 4999 06b3 09       		.byte	9
 5000 06b4 09       		.byte	9
 5001 06b5 09       		.byte	9
 5002 06b6 09       		.byte	9
 5003 06b7 00       		.byte	0
 5004 06b8 00       		.byte	0
 5005 06b9 00       		.byte	0
 5006 06ba 00       		.byte	0
 5007 06bb 00       		.byte	0
 5008 06bc 00       		.byte	0
 5009 06bd 00       		.byte	0
 5010 06be 00       		.byte	0
 5011 06bf 00       		.byte	0
 5012              		.data
 5013              		.align	2
 5014              		.set	.LANCHOR0,. + 0
 5017              	Stru_Bitmap_fichaBlanca:
 5018 0000 10       		.byte	16
 5019 0001 04       		.byte	4
 5020 0002 1800     		.short	24
 5021 0004 1800     		.short	24
 5022 0006 0000     		.space	2
 5023 0008 FF000000 		.word	255
 5024 000c 00000000 		.word	fichaBlancaMap
 5027              	Stru_Bitmap_fichaNegra:
 5028 0010 10       		.byte	16
 5029 0011 04       		.byte	4
 5030 0012 1800     		.short	24
 5031 0014 1800     		.short	24
 5032 0016 0000     		.space	2
 5033 0018 FF000000 		.word	255
 5034 001c 00000000 		.word	fichaNegraMap
 5037              	Stru_Bitmap_fichaGris:
 5038 0020 10       		.byte	16
 5039 0021 04       		.byte	4
 5040 0022 1800     		.short	24
 5041 0024 1800     		.short	24
 5042 0026 0000     		.space	2
 5043 0028 FF000000 		.word	255
 5044 002c 00000000 		.word	fichaGrisMap
 5045              		.section	.rodata.str1.4,"aMS",%progbits,1
 5046              		.align	2
 5047              	.LC0:
 5048 0000 5469656D 		.ascii	"Tiempo total\000"
 5048      706F2074 
 5048      6F74616C 
 5048      00
 5049 000d 000000   		.space	3
 5050              	.LC1:
 5051 0010 6465206A 		.ascii	"de juego:\000"
 5051      7565676F 
 5051      3A00
 5052 001a 0000     		.space	2
 5053              	.LC2:
 5054 001c 5469656D 		.ascii	"Tiempo para\000"
 5054      706F2070 
 5054      61726100 
 5055              	.LC3:
 5056 0028 63616C63 		.ascii	"calculos:\000"
 5056      756C6F73 
 5056      3A00
 5057 0032 0000     		.space	2
 5058              	.LC4:
 5059 0034 702E766F 		.ascii	"p.volteo:\000"
 5059      6C74656F 
 5059      3A00
 5060 003e 0000     		.space	2
 5061              	.LC5:
 5062 0040 4E756D65 		.ascii	"Numero inv.\000"
 5062      726F2069 
 5062      6E762E00 
 5063              	.LC6:
 5064 004c 2D3E2054 		.ascii	"-> TOCA LA PANTALLA PARA HACER TU JUGADA\000"
 5064      4F434120 
 5064      4C412050 
 5064      414E5441 
 5064      4C4C4120 
 5065 0075 000000   		.space	3
 5066              	.LC7:
 5067 0078 52455645 		.ascii	"REVERSI 8\000"
 5067      52534920 
 5067      3800
 5068 0082 0000     		.space	2
 5069              	.LC8:
 5070 0084 2D204120 		.ascii	"- A HIDEO KOJIMA GAME -\000"
 5070      48494445 
 5070      4F204B4F 
 5070      4A494D41 
 5070      2047414D 
 5071              	.LC9:
 5072 009c 5245474C 		.ascii	"REGLAS:\000"
 5072      41533A00 
 5073              	.LC10:
 5074 00a4 456E2063 		.ascii	"En cada turno, coloca una ficha que\000"
 5074      61646120 
 5074      7475726E 
 5074      6F2C2063 
 5074      6F6C6F63 
 5075              	.LC11:
 5076 00c8 766F6C74 		.ascii	"voltee alguna del rival.\000"
 5076      65652061 
 5076      6C67756E 
 5076      61206465 
 5076      6C207269 
 5077 00e1 000000   		.space	3
 5078              	.LC12:
 5079 00e4 456C206A 		.ascii	"El juego termina cuando nadie puede\000"
 5079      7565676F 
 5079      20746572 
 5079      6D696E61 
 5079      20637561 
 5080              	.LC13:
 5081 0108 6D6F7665 		.ascii	"mover. El jugador que tenga mas fichas\000"
 5081      722E2045 
 5081      6C206A75 
 5081      6761646F 
 5081      72207175 
 5082 012f 00       		.space	1
 5083              	.LC14:
 5084 0130 766F6C74 		.ascii	"volteadas con su color, gana.\000"
 5084      65616461 
 5084      7320636F 
 5084      6E207375 
 5084      20636F6C 
 5085 014e 0000     		.space	2
 5086              	.LC15:
 5087 0150 434F4E54 		.ascii	"CONTROLES\000"
 5087      524F4C45 
 5087      5300
 5088 015a 0000     		.space	2
 5089              	.LC16:
 5090 015c 2D53656C 		.ascii	"-Selecciona una posicion con los botones\000"
 5090      65636369 
 5090      6F6E6120 
 5090      756E6120 
 5090      706F7369 
 5091 0185 000000   		.space	3
 5092              	.LC17:
 5093 0188 20792063 		.ascii	" y coloca tu ficha tocando la pantalla.\000"
 5093      6F6C6F63 
 5093      61207475 
 5093      20666963 
 5093      68612074 
 5094              	.LC18:
 5095 01b0 2D50756C 		.ascii	"-Pulsa la tecla 0 del teclado para pasar turno\000"
 5095      7361206C 
 5095      61207465 
 5095      636C6120 
 5095      30206465 
 5096 01df 00       		.space	1
 5097              	.LC19:
 5098 01e0 2079206C 		.ascii	" y la 1 para terminar la partida actual\000"
 5098      61203120 
 5098      70617261 
 5098      20746572 
 5098      6D696E61 
 5099              	.LC20:
 5100 0208 50656472 		.ascii	"Pedro Jose Perez Garcia\000"
 5100      6F204A6F 
 5100      73652050 
 5100      6572657A 
 5100      20476172 
 5101              	.LC21:
 5102 0220 4665726E 		.ascii	"Fernando Penya Bes\000"
 5102      616E646F 
 5102      2050656E 
 5102      79612042 
 5102      657300
 5103 0233 00       		.space	1
 5104              	.LC22:
 5105 0234 54757320 		.ascii	"Tus fichas:\000"
 5105      66696368 
 5105      61733A00 
 5106              	.LC23:
 5107 0240 46696368 		.ascii	"Fichas de CPU:\000"
 5107      61732064 
 5107      65204350 
 5107      553A00
 5108 024f 00       		.space	1
 5109              	.LC24:
 5110 0250 544F4341 		.ascii	"TOCA LA PANTALLA\000"
 5110      204C4120 
 5110      50414E54 
 5110      414C4C41 
 5110      00
 5111 0261 000000   		.space	3
 5112              	.LC25:
 5113 0264 50415241 		.ascii	"PARA REINICIAR LA PARTIDA\000"
 5113      20524549 
 5113      4E494349 
 5113      4152204C 
 5113      41205041 
 5114 027e 0000     		.space	2
 5115              	.LC26:
 5116 0280 48415320 		.ascii	"HAS GANADO! :)\000"
 5116      47414E41 
 5116      444F2120 
 5116      3A2900
 5117 028f 00       		.space	1
 5118              	.LC27:
 5119 0290 48415320 		.ascii	"HAS PERDIDO :(\000"
 5119      50455244 
 5119      49444F20 
 5119      3A2800
 5120 029f 00       		.space	1
 5121              	.LC28:
 5122 02a0 48415320 		.ascii	"HAS EMPATADO :/\000"
 5122      454D5041 
 5122      5441444F 
 5122      203A2F00 
 5123              		.text
 5124              	.Letext0:
DEFINED SYMBOLS
                            *ABS*:00000000 elementos_pantalla.c
C:\Users\guest\AppData\Local\Temp\ccoc6muk.s:1232   .text:00000000 $a
C:\Users\guest\AppData\Local\Temp\ccoc6muk.s:1235   .text:00000000 pintar_cuadricula
C:\Users\guest\AppData\Local\Temp\ccoc6muk.s:1331   .text:000000e0 pintar_numeros_tablero
C:\Users\guest\AppData\Local\Temp\ccoc6muk.s:1528   .text:00000340 $d
C:\Users\guest\AppData\Local\Temp\ccoc6muk.s:1533   .text:00000348 $a
C:\Users\guest\AppData\Local\Temp\ccoc6muk.s:1536   .text:00000348 pintar_textos
C:\Users\guest\AppData\Local\Temp\ccoc6muk.s:1622   .text:0000041c $d
C:\Users\guest\AppData\Local\Temp\ccoc6muk.s:1632   .text:00000438 $a
C:\Users\guest\AppData\Local\Temp\ccoc6muk.s:1635   .text:00000438 pintar_ficha
C:\Users\guest\AppData\Local\Temp\ccoc6muk.s:1721   .text:000004ec $d
C:\Users\guest\AppData\Local\Temp\ccoc6muk.s:1727   .text:000004f8 $a
C:\Users\guest\AppData\Local\Temp\ccoc6muk.s:1730   .text:000004f8 borrar_ficha
C:\Users\guest\AppData\Local\Temp\ccoc6muk.s:1784   .text:00000558 mover_gris
C:\Users\guest\AppData\Local\Temp\ccoc6muk.s:1881   .text:0000060c $d
C:\Users\guest\AppData\Local\Temp\ccoc6muk.s:1885   .text:00000610 $a
C:\Users\guest\AppData\Local\Temp\ccoc6muk.s:1888   .text:00000610 pintar_profiling
C:\Users\guest\AppData\Local\Temp\ccoc6muk.s:2005   .text:00000730 pintar_jugando
C:\Users\guest\AppData\Local\Temp\ccoc6muk.s:2519   .text:00000ca4 $d
C:\Users\guest\AppData\Local\Temp\ccoc6muk.s:2532   .text:00000ccc $a
C:\Users\guest\AppData\Local\Temp\ccoc6muk.s:2535   .text:00000ccc pintar_prueba
C:\Users\guest\AppData\Local\Temp\ccoc6muk.s:2695   .text:00000e38 $d
C:\Users\guest\AppData\Local\Temp\ccoc6muk.s:2699   .text:00000e3c $a
C:\Users\guest\AppData\Local\Temp\ccoc6muk.s:2702   .text:00000e3c pintar_reglas
C:\Users\guest\AppData\Local\Temp\ccoc6muk.s:2820   .text:00000f88 $d
C:\Users\guest\AppData\Local\Temp\ccoc6muk.s:2838   .text:00000fc4 $a
C:\Users\guest\AppData\Local\Temp\ccoc6muk.s:2841   .text:00000fc4 pintar_resultados
C:\Users\guest\AppData\Local\Temp\ccoc6muk.s:2919   .text:00001080 $d
C:\Users\guest\AppData\Local\Temp\ccoc6muk.s:2926   .text:00001090 $a
C:\Users\guest\AppData\Local\Temp\ccoc6muk.s:2929   .text:00001090 pintar_fin_victoria
C:\Users\guest\AppData\Local\Temp\ccoc6muk.s:3022   .text:00001168 $d
C:\Users\guest\AppData\Local\Temp\ccoc6muk.s:3030   .text:0000117c $a
C:\Users\guest\AppData\Local\Temp\ccoc6muk.s:3033   .text:0000117c pintar_fin_derrota
C:\Users\guest\AppData\Local\Temp\ccoc6muk.s:3126   .text:00001254 $d
C:\Users\guest\AppData\Local\Temp\ccoc6muk.s:3134   .text:00001268 $a
C:\Users\guest\AppData\Local\Temp\ccoc6muk.s:3137   .text:00001268 pintar_fin_empate
C:\Users\guest\AppData\Local\Temp\ccoc6muk.s:3230   .text:00001340 $d
C:\Users\guest\AppData\Local\Temp\ccoc6muk.s:3238   .text:00001354 $a
C:\Users\guest\AppData\Local\Temp\ccoc6muk.s:3241   .text:00001354 iniciar_DMA
C:\Users\guest\AppData\Local\Temp\ccoc6muk.s:3277   .rodata:00000000 fichaBlancaMap
C:\Users\guest\AppData\Local\Temp\ccoc6muk.s:5017   .data:00000000 Stru_Bitmap_fichaBlanca
C:\Users\guest\AppData\Local\Temp\ccoc6muk.s:3856   .rodata:00000240 fichaNegraMap
C:\Users\guest\AppData\Local\Temp\ccoc6muk.s:5027   .data:00000010 Stru_Bitmap_fichaNegra
C:\Users\guest\AppData\Local\Temp\ccoc6muk.s:4435   .rodata:00000480 fichaGrisMap
C:\Users\guest\AppData\Local\Temp\ccoc6muk.s:5037   .data:00000020 Stru_Bitmap_fichaGris
C:\Users\guest\AppData\Local\Temp\ccoc6muk.s:3274   .rodata:00000000 $d
C:\Users\guest\AppData\Local\Temp\ccoc6muk.s:5013   .data:00000000 $d
C:\Users\guest\AppData\Local\Temp\ccoc6muk.s:5046   .rodata.str1.4:00000000 $d
                     .debug_frame:00000010 $d

UNDEFINED SYMBOLS
Lcd_Draw_Box
itoa
Lcd_DspAscII8x16
BitmapView
LcdClrRect
Lcd_Dma_Trans
Lcd_Clr
Delay
Lcd_Active_Clr
Lcd_DspAscII6x8
