   1              		.cpu arm7tdmi
   2              		.fpu softvfp
   3              		.eabi_attribute 20, 1
   4              		.eabi_attribute 21, 1
   5              		.eabi_attribute 23, 3
   6              		.eabi_attribute 24, 1
   7              		.eabi_attribute 25, 1
   8              		.eabi_attribute 26, 1
   9              		.eabi_attribute 30, 6
  10              		.eabi_attribute 18, 4
  11              		.file	"lcd.c"
  21              	.Ltext0:
  22              		.file 1 "../lcd.c"
 2137              		.align	2
 2138              		.global	Lcd_Init
 2140              	Lcd_Init:
 2141              	.LFB0:
   1:../lcd.c      **** /*********************************************************************************************
   2:../lcd.c      **** * Fichero:	lcd.c
   3:../lcd.c      **** * Autor:	
   4:../lcd.c      **** * Descrip:	funciones de visualizacion y control LCD
   5:../lcd.c      **** * Version:	<P6-ARM>
   6:../lcd.c      **** *********************************************************************************************/
   7:../lcd.c      **** 
   8:../lcd.c      **** /*--- ficheros de cabecera ---*/
   9:../lcd.c      **** #include "def.h"
  10:../lcd.c      **** #include "44b.h"
  11:../lcd.c      **** #include "44blib.h"
  12:../lcd.c      **** #include "lcd.h"
  13:../lcd.c      **** #include "Bmp.h"
  14:../lcd.c      **** #include "codigos_eventos.h"
  15:../lcd.c      **** 
  16:../lcd.c      **** /*--- definicion de macros ---*/
  17:../lcd.c      **** #define DMA_Byte  (0)
  18:../lcd.c      **** #define DMA_HW    (1)
  19:../lcd.c      **** #define DMA_Word  (2)
  20:../lcd.c      **** #define DW 		  DMA_Byte		//configura  ZDMA0 como media palabras
  21:../lcd.c      **** 	
  22:../lcd.c      **** /*--- variables externas ---*/
  23:../lcd.c      **** extern INT8U g_auc_Ascii8x16[];
  24:../lcd.c      **** extern INT8U g_auc_Ascii6x8[];
  25:../lcd.c      **** extern STRU_BITMAP Stru_Bitmap_gbMouse;
  26:../lcd.c      **** 
  27:../lcd.c      **** /*--- codigo de la funcion ---*/
  28:../lcd.c      **** void Lcd_Init(void)
  29:../lcd.c      **** {       
 2142              		.loc 1 29 0
 2143              		.cfi_startproc
 2144              		@ Function supports interworking.
 2145              		@ args = 0, pretend = 0, frame = 0
 2146              		@ frame_needed = 1, uses_anonymous_args = 0
 2147 0000 0DC0A0E1 		mov	ip, sp
 2148              	.LCFI0:
 2149              		.cfi_def_cfa_register 12
 2150 0004 00D82DE9 		stmfd	sp!, {fp, ip, lr, pc}
 2151 0008 04B04CE2 		sub	fp, ip, #4
 2152              		.cfi_offset 14, -8
 2153              		.cfi_offset 13, -12
 2154              		.cfi_offset 11, -16
 2155              	.LCFI1:
 2156              		.cfi_def_cfa 11, 4
  30:../lcd.c      **** 	rDITHMODE=0x1223a;
 2157              		.loc 1 30 0
 2158 000c FC309FE5 		ldr	r3, .L2
 2159 0010 FC209FE5 		ldr	r2, .L2+4
 2160 0014 002083E5 		str	r2, [r3, #0]
  31:../lcd.c      **** 	rDP1_2 =0x5a5a;      
 2161              		.loc 1 31 0
 2162 0018 F8309FE5 		ldr	r3, .L2+8
 2163 001c F8209FE5 		ldr	r2, .L2+12
 2164 0020 002083E5 		str	r2, [r3, #0]
  32:../lcd.c      **** 	rDP4_7 =0x366cd9b;
 2165              		.loc 1 32 0
 2166 0024 F4309FE5 		ldr	r3, .L2+16
 2167 0028 F4209FE5 		ldr	r2, .L2+20
 2168 002c 002083E5 		str	r2, [r3, #0]
  33:../lcd.c      **** 	rDP3_5 =0xda5a7;
 2169              		.loc 1 33 0
 2170 0030 F0309FE5 		ldr	r3, .L2+24
 2171 0034 F0209FE5 		ldr	r2, .L2+28
 2172 0038 002083E5 		str	r2, [r3, #0]
  34:../lcd.c      **** 	rDP2_3 =0xad7;
 2173              		.loc 1 34 0
 2174 003c EC309FE5 		ldr	r3, .L2+32
 2175 0040 EC209FE5 		ldr	r2, .L2+36
 2176 0044 002083E5 		str	r2, [r3, #0]
  35:../lcd.c      **** 	rDP5_7 =0xfeda5b7;
 2177              		.loc 1 35 0
 2178 0048 E8309FE5 		ldr	r3, .L2+40
 2179 004c E8209FE5 		ldr	r2, .L2+44
 2180 0050 002083E5 		str	r2, [r3, #0]
  36:../lcd.c      **** 	rDP3_4 =0xebd7;
 2181              		.loc 1 36 0
 2182 0054 E4309FE5 		ldr	r3, .L2+48
 2183 0058 E4209FE5 		ldr	r2, .L2+52
 2184 005c 002083E5 		str	r2, [r3, #0]
  37:../lcd.c      **** 	rDP4_5 =0xebfd7;
 2185              		.loc 1 37 0
 2186 0060 E0309FE5 		ldr	r3, .L2+56
 2187 0064 E0209FE5 		ldr	r2, .L2+60
 2188 0068 002083E5 		str	r2, [r3, #0]
  38:../lcd.c      **** 	rDP6_7 =0x7efdfbf;
 2189              		.loc 1 38 0
 2190 006c DC309FE5 		ldr	r3, .L2+64
 2191 0070 DC209FE5 		ldr	r2, .L2+68
 2192 0074 002083E5 		str	r2, [r3, #0]
  39:../lcd.c      **** 
  40:../lcd.c      **** 	rLCDCON1=(0)|(1<<5)|(MVAL_USED<<7)|(0x0<<8)|(0x0<<10)|(CLKVAL_GREY16<<12);
 2193              		.loc 1 40 0
 2194 0078 1F36A0E3 		mov	r3, #32505856
 2195 007c D4209FE5 		ldr	r2, .L2+72
 2196 0080 002083E5 		str	r2, [r3, #0]
  41:../lcd.c      **** 	rLCDCON2=(LINEVAL)|(HOZVAL<<10)|(10<<21); 
 2197              		.loc 1 41 0
 2198 0084 D0309FE5 		ldr	r3, .L2+76
 2199 0088 D0209FE5 		ldr	r2, .L2+80
 2200 008c 002083E5 		str	r2, [r3, #0]
  42:../lcd.c      **** 	rLCDSADDR1= (0x2<<27) | ( ((LCD_ACTIVE_BUFFER>>22)<<21 ) | M5D(LCD_ACTIVE_BUFFER>>1));
 2201              		.loc 1 42 0
 2202 0090 CC309FE5 		ldr	r3, .L2+84
 2203 0094 CC209FE5 		ldr	r2, .L2+88
 2204 0098 002083E5 		str	r2, [r3, #0]
  43:../lcd.c      ****  	rLCDSADDR2= M5D(((LCD_ACTIVE_BUFFER+(SCR_XSIZE*LCD_YSIZE/2))>>1)) | (MVAL<<21);
 2205              		.loc 1 43 0
 2206 009c C8309FE5 		ldr	r3, .L2+92
 2207 00a0 C8209FE5 		ldr	r2, .L2+96
 2208 00a4 002083E5 		str	r2, [r3, #0]
  44:../lcd.c      **** 	rLCDSADDR3= (LCD_XSIZE/4) | ( ((SCR_XSIZE-LCD_XSIZE)/4)<<9 );
 2209              		.loc 1 44 0
 2210 00a8 C4309FE5 		ldr	r3, .L2+100
 2211 00ac 5020A0E3 		mov	r2, #80
 2212 00b0 002083E5 		str	r2, [r3, #0]
  45:../lcd.c      **** 	// enable,4B_SNGL_SCAN,WDLY=8clk,WLH=8clk,
  46:../lcd.c      **** 	rLCDCON1=(1)|(1<<5)|(MVAL_USED<<7)|(0x3<<8)|(0x3<<10)|(CLKVAL_GREY16<<12);
 2213              		.loc 1 46 0
 2214 00b4 1F36A0E3 		mov	r3, #32505856
 2215 00b8 B8209FE5 		ldr	r2, .L2+104
 2216 00bc 002083E5 		str	r2, [r3, #0]
  47:../lcd.c      **** 	rBLUELUT=0xfa40;
 2217              		.loc 1 47 0
 2218 00c0 B4309FE5 		ldr	r3, .L2+108
 2219 00c4 B4209FE5 		ldr	r2, .L2+112
 2220 00c8 002083E5 		str	r2, [r3, #0]
  48:../lcd.c      **** 	//Enable LCD Logic and EL back-light.
  49:../lcd.c      **** 	rPDATE=rPDATE&0x0e;
 2221              		.loc 1 49 0
 2222 00cc B0309FE5 		ldr	r3, .L2+116
 2223 00d0 AC209FE5 		ldr	r2, .L2+116
 2224 00d4 002092E5 		ldr	r2, [r2, #0]
 2225 00d8 0E2002E2 		and	r2, r2, #14
 2226 00dc 002083E5 		str	r2, [r3, #0]
  50:../lcd.c      **** 	
  51:../lcd.c      **** 	//DMA ISR
  52:../lcd.c      **** 	rINTMSK &= ~(BIT_GLOBAL|BIT_ZDMA0);
 2227              		.loc 1 52 0
 2228 00e0 A0209FE5 		ldr	r2, .L2+120
 2229 00e4 9C309FE5 		ldr	r3, .L2+120
 2230 00e8 003093E5 		ldr	r3, [r3, #0]
 2231 00ec 0133C3E3 		bic	r3, r3, #67108864
 2232 00f0 0237C3E3 		bic	r3, r3, #524288
 2233 00f4 003082E5 		str	r3, [r2, #0]
  53:../lcd.c      ****     pISR_ZDMA0=(int)Zdma0Done;
 2234              		.loc 1 53 0
 2235 00f8 8C309FE5 		ldr	r3, .L2+124
 2236 00fc 8C209FE5 		ldr	r2, .L2+128
 2237 0100 002083E5 		str	r2, [r3, #0]
  54:../lcd.c      **** }
 2238              		.loc 1 54 0
 2239 0104 0CD04BE2 		sub	sp, fp, #12
 2240 0108 00689DE8 		ldmfd	sp, {fp, sp, lr}
 2241 010c 1EFF2FE1 		bx	lr
 2242              	.L3:
 2243              		.align	2
 2244              	.L2:
 2245 0110 4400F001 		.word	32505924
 2246 0114 3A220100 		.word	74298
 2247 0118 2000F001 		.word	32505888
 2248 011c 5A5A0000 		.word	23130
 2249 0120 2400F001 		.word	32505892
 2250 0124 9BCD6603 		.word	57068955
 2251 0128 2800F001 		.word	32505896
 2252 012c A7A50D00 		.word	894375
 2253 0130 2C00F001 		.word	32505900
 2254 0134 D70A0000 		.word	2775
 2255 0138 3000F001 		.word	32505904
 2256 013c B7A5ED0F 		.word	267232695
 2257 0140 3400F001 		.word	32505908
 2258 0144 D7EB0000 		.word	60375
 2259 0148 3800F001 		.word	32505912
 2260 014c D7BF0E00 		.word	966615
 2261 0150 3C00F001 		.word	32505916
 2262 0154 BFDFEF07 		.word	133160895
 2263 0158 20C00000 		.word	49184
 2264 015c 0400F001 		.word	32505860
 2265 0160 EF3C4101 		.word	21052655
 2266 0164 0800F001 		.word	32505864
 2267 0168 00001816 		.word	370671616
 2268 016c 0C00F001 		.word	32505868
 2269 0170 004BB801 		.word	28855040
 2270 0174 1000F001 		.word	32505872
 2271 0178 21CF0000 		.word	53025
 2272 017c 1C00F001 		.word	32505884
 2273 0180 40FA0000 		.word	64064
 2274 0184 2C00D201 		.word	30539820
 2275 0188 0C00E001 		.word	31457292
 2276 018c 6CFF7F0C 		.word	209715052
 2277 0190 00000000 		.word	Zdma0Done
 2278              		.cfi_endproc
 2279              	.LFE0:
 2281              		.align	2
 2282              		.global	Lcd_Active_Clr
 2284              	Lcd_Active_Clr:
 2285              	.LFB1:
  55:../lcd.c      **** 
  56:../lcd.c      **** /*********************************************************************************************
  57:../lcd.c      **** * name:		Lcd_Active_Clr()
  58:../lcd.c      **** * func:		clear LCD screen
  59:../lcd.c      **** * para:		none 
  60:../lcd.c      **** * ret:		none
  61:../lcd.c      **** * modify:
  62:../lcd.c      **** * comment:		
  63:../lcd.c      **** *********************************************************************************************/
  64:../lcd.c      **** void Lcd_Active_Clr(void)
  65:../lcd.c      **** {
 2286              		.loc 1 65 0
 2287              		.cfi_startproc
 2288              		@ Function supports interworking.
 2289              		@ args = 0, pretend = 0, frame = 8
 2290              		@ frame_needed = 1, uses_anonymous_args = 0
 2291 0194 0DC0A0E1 		mov	ip, sp
 2292              	.LCFI2:
 2293              		.cfi_def_cfa_register 12
 2294 0198 00D82DE9 		stmfd	sp!, {fp, ip, lr, pc}
 2295 019c 04B04CE2 		sub	fp, ip, #4
 2296              		.cfi_offset 14, -8
 2297              		.cfi_offset 13, -12
 2298              		.cfi_offset 11, -16
 2299              	.LCFI3:
 2300              		.cfi_def_cfa 11, 4
 2301 01a0 08D04DE2 		sub	sp, sp, #8
  66:../lcd.c      **** 	INT32U i;
  67:../lcd.c      **** 	INT32U *pDisp = (INT32U *)LCD_ACTIVE_BUFFER;
 2302              		.loc 1 67 0
 2303 01a4 C336A0E3 		mov	r3, #204472320
 2304 01a8 14300BE5 		str	r3, [fp, #-20]
  68:../lcd.c      **** 	
  69:../lcd.c      **** 	for( i = 0; i < (SCR_XSIZE*SCR_YSIZE/2/4); i++ )
 2305              		.loc 1 69 0
 2306 01ac 0030A0E3 		mov	r3, #0
 2307 01b0 10300BE5 		str	r3, [fp, #-16]
 2308 01b4 080000EA 		b	.L5
 2309              	.L6:
  70:../lcd.c      **** 	{
  71:../lcd.c      **** 		*pDisp++ = WHITE;
 2310              		.loc 1 71 0 discriminator 2
 2311 01b8 14301BE5 		ldr	r3, [fp, #-20]
 2312 01bc 0020A0E3 		mov	r2, #0
 2313 01c0 002083E5 		str	r2, [r3, #0]
 2314 01c4 14301BE5 		ldr	r3, [fp, #-20]
 2315 01c8 043083E2 		add	r3, r3, #4
 2316 01cc 14300BE5 		str	r3, [fp, #-20]
  69:../lcd.c      **** 	for( i = 0; i < (SCR_XSIZE*SCR_YSIZE/2/4); i++ )
 2317              		.loc 1 69 0 discriminator 2
 2318 01d0 10301BE5 		ldr	r3, [fp, #-16]
 2319 01d4 013083E2 		add	r3, r3, #1
 2320 01d8 10300BE5 		str	r3, [fp, #-16]
 2321              	.L5:
  69:../lcd.c      **** 	for( i = 0; i < (SCR_XSIZE*SCR_YSIZE/2/4); i++ )
 2322              		.loc 1 69 0 is_stmt 0 discriminator 1
 2323 01dc 10201BE5 		ldr	r2, [fp, #-16]
 2324 01e0 10309FE5 		ldr	r3, .L7
 2325 01e4 030052E1 		cmp	r2, r3
 2326 01e8 F2FFFF9A 		bls	.L6
  72:../lcd.c      **** 	}
  73:../lcd.c      **** }
 2327              		.loc 1 73 0 is_stmt 1
 2328 01ec 0CD04BE2 		sub	sp, fp, #12
 2329 01f0 00689DE8 		ldmfd	sp, {fp, sp, lr}
 2330 01f4 1EFF2FE1 		bx	lr
 2331              	.L8:
 2332              		.align	2
 2333              	.L7:
 2334 01f8 7F250000 		.word	9599
 2335              		.cfi_endproc
 2336              	.LFE1:
 2338              		.align	2
 2339              		.global	LCD_GetPixel
 2341              	LCD_GetPixel:
 2342              	.LFB2:
  74:../lcd.c      **** 
  75:../lcd.c      **** /*********************************************************************************************
  76:../lcd.c      **** * name:		Lcd_GetPixel()
  77:../lcd.c      **** * func:		Get appointed point's color value
  78:../lcd.c      **** * para:		usX,usY -- pot's X-Y coordinate 
  79:../lcd.c      **** * ret:		pot's color value
  80:../lcd.c      **** * modify:
  81:../lcd.c      **** * comment:		
  82:../lcd.c      **** *********************************************************************************************/
  83:../lcd.c      **** INT8U LCD_GetPixel(INT16U usX, INT16U usY)
  84:../lcd.c      **** {
 2343              		.loc 1 84 0
 2344              		.cfi_startproc
 2345              		@ Function supports interworking.
 2346              		@ args = 0, pretend = 0, frame = 16
 2347              		@ frame_needed = 1, uses_anonymous_args = 0
 2348 01fc 0DC0A0E1 		mov	ip, sp
 2349              	.LCFI4:
 2350              		.cfi_def_cfa_register 12
 2351 0200 00D82DE9 		stmfd	sp!, {fp, ip, lr, pc}
 2352 0204 04B04CE2 		sub	fp, ip, #4
 2353              		.cfi_offset 14, -8
 2354              		.cfi_offset 13, -12
 2355              		.cfi_offset 11, -16
 2356              	.LCFI5:
 2357              		.cfi_def_cfa 11, 4
 2358 0208 10D04DE2 		sub	sp, sp, #16
 2359 020c 0020A0E1 		mov	r2, r0
 2360 0210 0130A0E1 		mov	r3, r1
 2361 0214 B6214BE1 		strh	r2, [fp, #-22]	@ movhi
 2362 0218 B8314BE1 		strh	r3, [fp, #-24]	@ movhi
  85:../lcd.c      **** 	INT8U ucColor;
  86:../lcd.c      **** 
  87:../lcd.c      **** 	ucColor = *((INT8U*)(LCD_VIRTUAL_BUFFER + usY*SCR_XSIZE/2 + usX/8*4 + 3 - (usX%8)/2));
 2363              		.loc 1 87 0
 2364 021c B8215BE1 		ldrh	r2, [fp, #-24]
 2365 0220 0230A0E1 		mov	r3, r2
 2366 0224 0331A0E1 		mov	r3, r3, asl #2
 2367 0228 023083E0 		add	r3, r3, r2
 2368 022c 0333A0E1 		mov	r3, r3, asl #6
 2369 0230 A32FA0E1 		mov	r2, r3, lsr #31
 2370 0234 033082E0 		add	r3, r2, r3
 2371 0238 C330A0E1 		mov	r3, r3, asr #1
 2372 023c C33683E2 		add	r3, r3, #204472320
 2373 0240 963C83E2 		add	r3, r3, #38400
 2374 0244 B6215BE1 		ldrh	r2, [fp, #-22]
 2375 0248 A221A0E1 		mov	r2, r2, lsr #3
 2376 024c 0228A0E1 		mov	r2, r2, asl #16
 2377 0250 2228A0E1 		mov	r2, r2, lsr #16
 2378 0254 0221A0E1 		mov	r2, r2, asl #2
 2379 0258 023083E0 		add	r3, r3, r2
 2380 025c 032083E2 		add	r2, r3, #3
 2381 0260 B6315BE1 		ldrh	r3, [fp, #-22]	@ movhi
 2382 0264 073003E2 		and	r3, r3, #7
 2383 0268 0338A0E1 		mov	r3, r3, asl #16
 2384 026c 2338A0E1 		mov	r3, r3, lsr #16
 2385 0270 A330A0E1 		mov	r3, r3, lsr #1
 2386 0274 0338A0E1 		mov	r3, r3, asl #16
 2387 0278 2338A0E1 		mov	r3, r3, lsr #16
 2388 027c 023063E0 		rsb	r3, r3, r2
 2389 0280 0030D3E5 		ldrb	r3, [r3, #0]
 2390 0284 0D304BE5 		strb	r3, [fp, #-13]
  88:../lcd.c      **** 	ucColor = (ucColor >> ((1-(usX%2))*4)) & 0x0f;
 2391              		.loc 1 88 0
 2392 0288 0D205BE5 		ldrb	r2, [fp, #-13]	@ zero_extendqisi2
 2393 028c B6315BE1 		ldrh	r3, [fp, #-22]
 2394 0290 013003E2 		and	r3, r3, #1
 2395 0294 000053E3 		cmp	r3, #0
 2396 0298 0100001A 		bne	.L10
 2397              		.loc 1 88 0 is_stmt 0 discriminator 1
 2398 029c 0430A0E3 		mov	r3, #4
 2399 02a0 000000EA 		b	.L11
 2400              	.L10:
 2401              		.loc 1 88 0 discriminator 2
 2402 02a4 0030A0E3 		mov	r3, #0
 2403              	.L11:
 2404              		.loc 1 88 0 discriminator 3
 2405 02a8 5233A0E1 		mov	r3, r2, asr r3
 2406 02ac FF3003E2 		and	r3, r3, #255
 2407 02b0 0F3003E2 		and	r3, r3, #15
 2408 02b4 0D304BE5 		strb	r3, [fp, #-13]
  89:../lcd.c      **** 	return ucColor;
 2409              		.loc 1 89 0 is_stmt 1 discriminator 3
 2410 02b8 0D305BE5 		ldrb	r3, [fp, #-13]	@ zero_extendqisi2
  90:../lcd.c      **** }
 2411              		.loc 1 90 0 discriminator 3
 2412 02bc 0300A0E1 		mov	r0, r3
 2413 02c0 0CD04BE2 		sub	sp, fp, #12
 2414 02c4 00689DE8 		ldmfd	sp, {fp, sp, lr}
 2415 02c8 1EFF2FE1 		bx	lr
 2416              		.cfi_endproc
 2417              	.LFE2:
 2419              		.align	2
 2420              		.global	Lcd_Clr
 2422              	Lcd_Clr:
 2423              	.LFB3:
  91:../lcd.c      **** 
  92:../lcd.c      **** /*********************************************************************************************
  93:../lcd.c      **** * name:		Lcd_Active_Clr()
  94:../lcd.c      **** * func:		clear virtual screen
  95:../lcd.c      **** * para:		none 
  96:../lcd.c      **** * ret:		none
  97:../lcd.c      **** * modify:
  98:../lcd.c      **** * comment:		
  99:../lcd.c      **** *********************************************************************************************/
 100:../lcd.c      **** void Lcd_Clr(void)
 101:../lcd.c      **** {
 2424              		.loc 1 101 0
 2425              		.cfi_startproc
 2426              		@ Function supports interworking.
 2427              		@ args = 0, pretend = 0, frame = 8
 2428              		@ frame_needed = 1, uses_anonymous_args = 0
 2429 02cc 0DC0A0E1 		mov	ip, sp
 2430              	.LCFI6:
 2431              		.cfi_def_cfa_register 12
 2432 02d0 00D82DE9 		stmfd	sp!, {fp, ip, lr, pc}
 2433 02d4 04B04CE2 		sub	fp, ip, #4
 2434              		.cfi_offset 14, -8
 2435              		.cfi_offset 13, -12
 2436              		.cfi_offset 11, -16
 2437              	.LCFI7:
 2438              		.cfi_def_cfa 11, 4
 2439 02d8 08D04DE2 		sub	sp, sp, #8
 102:../lcd.c      **** 	INT32U i;
 103:../lcd.c      **** 	INT32U *pDisp = (INT32U *)LCD_VIRTUAL_BUFFER;
 2440              		.loc 1 103 0
 2441 02dc 4C309FE5 		ldr	r3, .L15
 2442 02e0 14300BE5 		str	r3, [fp, #-20]
 104:../lcd.c      **** 	
 105:../lcd.c      **** 	for( i = 0; i < (SCR_XSIZE*SCR_YSIZE/2/4); i++ )
 2443              		.loc 1 105 0
 2444 02e4 0030A0E3 		mov	r3, #0
 2445 02e8 10300BE5 		str	r3, [fp, #-16]
 2446 02ec 080000EA 		b	.L13
 2447              	.L14:
 106:../lcd.c      **** 	{
 107:../lcd.c      **** 		*pDisp++ = WHITE;
 2448              		.loc 1 107 0 discriminator 2
 2449 02f0 14301BE5 		ldr	r3, [fp, #-20]
 2450 02f4 0020A0E3 		mov	r2, #0
 2451 02f8 002083E5 		str	r2, [r3, #0]
 2452 02fc 14301BE5 		ldr	r3, [fp, #-20]
 2453 0300 043083E2 		add	r3, r3, #4
 2454 0304 14300BE5 		str	r3, [fp, #-20]
 105:../lcd.c      **** 	for( i = 0; i < (SCR_XSIZE*SCR_YSIZE/2/4); i++ )
 2455              		.loc 1 105 0 discriminator 2
 2456 0308 10301BE5 		ldr	r3, [fp, #-16]
 2457 030c 013083E2 		add	r3, r3, #1
 2458 0310 10300BE5 		str	r3, [fp, #-16]
 2459              	.L13:
 105:../lcd.c      **** 	for( i = 0; i < (SCR_XSIZE*SCR_YSIZE/2/4); i++ )
 2460              		.loc 1 105 0 is_stmt 0 discriminator 1
 2461 0314 10201BE5 		ldr	r2, [fp, #-16]
 2462 0318 14309FE5 		ldr	r3, .L15+4
 2463 031c 030052E1 		cmp	r2, r3
 2464 0320 F2FFFF9A 		bls	.L14
 108:../lcd.c      **** 	}
 109:../lcd.c      **** }
 2465              		.loc 1 109 0 is_stmt 1
 2466 0324 0CD04BE2 		sub	sp, fp, #12
 2467 0328 00689DE8 		ldmfd	sp, {fp, sp, lr}
 2468 032c 1EFF2FE1 		bx	lr
 2469              	.L16:
 2470              		.align	2
 2471              	.L15:
 2472 0330 0096300C 		.word	204510720
 2473 0334 7F250000 		.word	9599
 2474              		.cfi_endproc
 2475              	.LFE3:
 2477              		.align	2
 2478              		.global	LcdClrRect
 2480              	LcdClrRect:
 2481              	.LFB4:
 110:../lcd.c      **** 
 111:../lcd.c      **** /*********************************************************************************************
 112:../lcd.c      **** * name:		LcdClrRect()
 113:../lcd.c      **** * func:		fill appointed area with appointed color
 114:../lcd.c      **** * para:		usLeft,usTop,usRight,usBottom -- area's rectangle acme coordinate
 115:../lcd.c      **** *			ucColor -- appointed color value
 116:../lcd.c      **** * ret:		none
 117:../lcd.c      **** * modify:
 118:../lcd.c      **** * comment:	also as clear screen function 
 119:../lcd.c      **** *********************************************************************************************/
 120:../lcd.c      **** void LcdClrRect(INT16 usLeft, INT16 usTop, INT16 usRight, INT16 usBottom, INT8U ucColor)
 121:../lcd.c      **** {
 2482              		.loc 1 121 0
 2483              		.cfi_startproc
 2484              		@ Function supports interworking.
 2485              		@ args = 4, pretend = 0, frame = 24
 2486              		@ frame_needed = 1, uses_anonymous_args = 0
 2487 0338 0DC0A0E1 		mov	ip, sp
 2488              	.LCFI8:
 2489              		.cfi_def_cfa_register 12
 2490 033c 00D82DE9 		stmfd	sp!, {fp, ip, lr, pc}
 2491 0340 04B04CE2 		sub	fp, ip, #4
 2492              		.cfi_offset 14, -8
 2493              		.cfi_offset 13, -12
 2494              		.cfi_offset 11, -16
 2495              	.LCFI9:
 2496              		.cfi_def_cfa 11, 4
 2497 0344 18D04DE2 		sub	sp, sp, #24
 2498 0348 BE014BE1 		strh	r0, [fp, #-30]	@ movhi
 2499 034c B0124BE1 		strh	r1, [fp, #-32]	@ movhi
 2500 0350 B2224BE1 		strh	r2, [fp, #-34]	@ movhi
 2501 0354 B4324BE1 		strh	r3, [fp, #-36]	@ movhi
 122:../lcd.c      **** 	INT16 i,k,l,m;
 123:../lcd.c      **** 	
 124:../lcd.c      **** 	INT32U ulColor = (ucColor << 28) | (ucColor << 24) | (ucColor << 20) | (ucColor << 16) | 
 2502              		.loc 1 124 0
 2503 0358 0430DBE5 		ldrb	r3, [fp, #4]	@ zero_extendqisi2
 2504 035c 032EA0E1 		mov	r2, r3, asl #28
 2505 0360 0430DBE5 		ldrb	r3, [fp, #4]	@ zero_extendqisi2
 2506 0364 033CA0E1 		mov	r3, r3, asl #24
 2507 0368 032082E1 		orr	r2, r2, r3
 2508 036c 0430DBE5 		ldrb	r3, [fp, #4]	@ zero_extendqisi2
 2509 0370 033AA0E1 		mov	r3, r3, asl #20
 2510 0374 032082E1 		orr	r2, r2, r3
 2511 0378 0430DBE5 		ldrb	r3, [fp, #4]	@ zero_extendqisi2
 2512 037c 0338A0E1 		mov	r3, r3, asl #16
 2513 0380 032082E1 		orr	r2, r2, r3
 125:../lcd.c      **** 				     (ucColor << 12) | (ucColor << 8) | (ucColor << 4) | ucColor;
 2514              		.loc 1 125 0
 2515 0384 0430DBE5 		ldrb	r3, [fp, #4]	@ zero_extendqisi2
 2516 0388 0336A0E1 		mov	r3, r3, asl #12
 124:../lcd.c      **** 	INT32U ulColor = (ucColor << 28) | (ucColor << 24) | (ucColor << 20) | (ucColor << 16) | 
 2517              		.loc 1 124 0
 2518 038c 032082E1 		orr	r2, r2, r3
 2519              		.loc 1 125 0
 2520 0390 0430DBE5 		ldrb	r3, [fp, #4]	@ zero_extendqisi2
 2521 0394 0334A0E1 		mov	r3, r3, asl #8
 2522 0398 032082E1 		orr	r2, r2, r3
 2523 039c 0430DBE5 		ldrb	r3, [fp, #4]	@ zero_extendqisi2
 2524 03a0 0332A0E1 		mov	r3, r3, asl #4
 2525 03a4 032082E1 		orr	r2, r2, r3
 2526 03a8 0430DBE5 		ldrb	r3, [fp, #4]	@ zero_extendqisi2
 2527 03ac 033082E1 		orr	r3, r2, r3
 124:../lcd.c      **** 	INT32U ulColor = (ucColor << 28) | (ucColor << 24) | (ucColor << 20) | (ucColor << 16) | 
 2528              		.loc 1 124 0
 2529 03b0 18300BE5 		str	r3, [fp, #-24]
 126:../lcd.c      **** 
 127:../lcd.c      **** 	i = k = l = m = 0;	
 2530              		.loc 1 127 0
 2531 03b4 0030A0E3 		mov	r3, #0
 2532 03b8 B4314BE1 		strh	r3, [fp, #-20]	@ movhi
 2533 03bc B4315BE1 		ldrh	r3, [fp, #-20]	@ movhi
 2534 03c0 B2314BE1 		strh	r3, [fp, #-18]	@ movhi
 2535 03c4 B2315BE1 		ldrh	r3, [fp, #-18]	@ movhi
 2536 03c8 B0314BE1 		strh	r3, [fp, #-16]	@ movhi
 2537 03cc B0315BE1 		ldrh	r3, [fp, #-16]	@ movhi
 2538 03d0 BE304BE1 		strh	r3, [fp, #-14]	@ movhi
 128:../lcd.c      **** 	if( (usRight-usLeft) <= 8 )
 2539              		.loc 1 128 0
 2540 03d4 F2225BE1 		ldrsh	r2, [fp, #-34]
 2541 03d8 FE315BE1 		ldrsh	r3, [fp, #-30]
 2542 03dc 023063E0 		rsb	r3, r3, r2
 2543 03e0 080053E3 		cmp	r3, #8
 2544 03e4 5F0000CA 		bgt	.L18
 129:../lcd.c      **** 	{
 130:../lcd.c      **** 		for( i=usTop; i<=usBottom; i++)
 2545              		.loc 1 130 0
 2546 03e8 B0325BE1 		ldrh	r3, [fp, #-32]	@ movhi
 2547 03ec BE304BE1 		strh	r3, [fp, #-14]	@ movhi
 2548 03f0 570000EA 		b	.L19
 2549              	.L22:
 131:../lcd.c      **** 		{
 132:../lcd.c      **** 			for( m=usLeft; m<=usRight; m++)
 2550              		.loc 1 132 0
 2551 03f4 BE315BE1 		ldrh	r3, [fp, #-30]	@ movhi
 2552 03f8 B4314BE1 		strh	r3, [fp, #-20]	@ movhi
 2553 03fc 4D0000EA 		b	.L20
 2554              	.L21:
 133:../lcd.c      **** 			{
 134:../lcd.c      **** 				(LCD_PutPixel(m, i, ucColor));
 2555              		.loc 1 134 0 discriminator 2
 2556 0400 FE205BE1 		ldrsh	r2, [fp, #-14]
 2557 0404 0230A0E1 		mov	r3, r2
 2558 0408 0331A0E1 		mov	r3, r3, asl #2
 2559 040c 023083E0 		add	r3, r3, r2
 2560 0410 0333A0E1 		mov	r3, r3, asl #6
 2561 0414 A32FA0E1 		mov	r2, r3, lsr #31
 2562 0418 033082E0 		add	r3, r2, r3
 2563 041c C330A0E1 		mov	r3, r3, asr #1
 2564 0420 C32683E2 		add	r2, r3, #204472320
 2565 0424 962C82E2 		add	r2, r2, #38400
 2566 0428 F4315BE1 		ldrsh	r3, [fp, #-20]
 2567 042c 071083E2 		add	r1, r3, #7
 2568 0430 000053E3 		cmp	r3, #0
 2569 0434 0130A0B1 		movlt	r3, r1
 2570 0438 C331A0E1 		mov	r3, r3, asr #3
 2571 043c 0338A0E1 		mov	r3, r3, asl #16
 2572 0440 2338A0E1 		mov	r3, r3, lsr #16
 2573 0444 0338A0E1 		mov	r3, r3, asl #16
 2574 0448 4338A0E1 		mov	r3, r3, asr #16
 2575 044c 0331A0E1 		mov	r3, r3, asl #2
 2576 0450 033082E0 		add	r3, r2, r3
 2577 0454 0310A0E1 		mov	r1, r3
 2578 0458 FE205BE1 		ldrsh	r2, [fp, #-14]
 2579 045c 0230A0E1 		mov	r3, r2
 2580 0460 0331A0E1 		mov	r3, r3, asl #2
 2581 0464 023083E0 		add	r3, r3, r2
 2582 0468 0333A0E1 		mov	r3, r3, asl #6
 2583 046c A32FA0E1 		mov	r2, r3, lsr #31
 2584 0470 033082E0 		add	r3, r2, r3
 2585 0474 C330A0E1 		mov	r3, r3, asr #1
 2586 0478 C32683E2 		add	r2, r3, #204472320
 2587 047c 962C82E2 		add	r2, r2, #38400
 2588 0480 F4315BE1 		ldrsh	r3, [fp, #-20]
 2589 0484 070083E2 		add	r0, r3, #7
 2590 0488 000053E3 		cmp	r3, #0
 2591 048c 0030A0B1 		movlt	r3, r0
 2592 0490 C331A0E1 		mov	r3, r3, asr #3
 2593 0494 0338A0E1 		mov	r3, r3, asl #16
 2594 0498 2338A0E1 		mov	r3, r3, lsr #16
 2595 049c 0338A0E1 		mov	r3, r3, asl #16
 2596 04a0 4338A0E1 		mov	r3, r3, asr #16
 2597 04a4 0331A0E1 		mov	r3, r3, asl #2
 2598 04a8 033082E0 		add	r3, r2, r3
 2599 04ac 000093E5 		ldr	r0, [r3, #0]
 2600 04b0 F4215BE1 		ldrsh	r2, [fp, #-20]
 2601 04b4 C23FA0E1 		mov	r3, r2, asr #31
 2602 04b8 A33EA0E1 		mov	r3, r3, lsr #29
 2603 04bc 032082E0 		add	r2, r2, r3
 2604 04c0 072002E2 		and	r2, r2, #7
 2605 04c4 023063E0 		rsb	r3, r3, r2
 2606 04c8 0338A0E1 		mov	r3, r3, asl #16
 2607 04cc 2338A0E1 		mov	r3, r3, lsr #16
 2608 04d0 0338A0E1 		mov	r3, r3, asl #16
 2609 04d4 4338A0E1 		mov	r3, r3, asr #16
 2610 04d8 0331A0E1 		mov	r3, r3, asl #2
 2611 04dc 0F22A0E3 		mov	r2, #-268435456
 2612 04e0 3233A0E1 		mov	r3, r2, lsr r3
 2613 04e4 0330E0E1 		mvn	r3, r3
 2614 04e8 030000E0 		and	r0, r0, r3
 2615 04ec 04C0DBE5 		ldrb	ip, [fp, #4]	@ zero_extendqisi2
 2616 04f0 F4215BE1 		ldrsh	r2, [fp, #-20]
 2617 04f4 C23FA0E1 		mov	r3, r2, asr #31
 2618 04f8 A33EA0E1 		mov	r3, r3, lsr #29
 2619 04fc 032082E0 		add	r2, r2, r3
 2620 0500 072002E2 		and	r2, r2, #7
 2621 0504 023063E0 		rsb	r3, r3, r2
 2622 0508 0338A0E1 		mov	r3, r3, asl #16
 2623 050c 2338A0E1 		mov	r3, r3, lsr #16
 2624 0510 0338A0E1 		mov	r3, r3, asl #16
 2625 0514 4338A0E1 		mov	r3, r3, asr #16
 2626 0518 073063E2 		rsb	r3, r3, #7
 2627 051c 0331A0E1 		mov	r3, r3, asl #2
 2628 0520 1C33A0E1 		mov	r3, ip, asl r3
 2629 0524 033080E1 		orr	r3, r0, r3
 2630 0528 003081E5 		str	r3, [r1, #0]
 132:../lcd.c      **** 			for( m=usLeft; m<=usRight; m++)
 2631              		.loc 1 132 0 discriminator 2
 2632 052c B4315BE1 		ldrh	r3, [fp, #-20]	@ movhi
 2633 0530 013083E2 		add	r3, r3, #1
 2634 0534 B4314BE1 		strh	r3, [fp, #-20]	@ movhi
 2635              	.L20:
 132:../lcd.c      **** 			for( m=usLeft; m<=usRight; m++)
 2636              		.loc 1 132 0 is_stmt 0 discriminator 1
 2637 0538 F4215BE1 		ldrsh	r2, [fp, #-20]
 2638 053c F2325BE1 		ldrsh	r3, [fp, #-34]
 2639 0540 030052E1 		cmp	r2, r3
 2640 0544 ADFFFFDA 		ble	.L21
 130:../lcd.c      **** 		for( i=usTop; i<=usBottom; i++)
 2641              		.loc 1 130 0 is_stmt 1
 2642 0548 BE305BE1 		ldrh	r3, [fp, #-14]	@ movhi
 2643 054c 013083E2 		add	r3, r3, #1
 2644 0550 BE304BE1 		strh	r3, [fp, #-14]	@ movhi
 2645              	.L19:
 130:../lcd.c      **** 		for( i=usTop; i<=usBottom; i++)
 2646              		.loc 1 130 0 is_stmt 0 discriminator 1
 2647 0554 FE205BE1 		ldrsh	r2, [fp, #-14]
 2648 0558 F4325BE1 		ldrsh	r3, [fp, #-36]
 2649 055c 030052E1 		cmp	r2, r3
 2650 0560 A3FFFFDA 		ble	.L22
 135:../lcd.c      **** 			}
 136:../lcd.c      **** 		}	
 137:../lcd.c      **** 		return;
 2651              		.loc 1 137 0 is_stmt 1
 2652 0564 040100EA 		b	.L17
 2653              	.L18:
 138:../lcd.c      **** 	}
 139:../lcd.c      **** 
 140:../lcd.c      **** 	/* check borderline */
 141:../lcd.c      **** 	if( 0 == (usLeft%8) )
 2654              		.loc 1 141 0
 2655 0568 BE315BE1 		ldrh	r3, [fp, #-30]
 2656 056c 073003E2 		and	r3, r3, #7
 2657 0570 0338A0E1 		mov	r3, r3, asl #16
 2658 0574 2338A0E1 		mov	r3, r3, lsr #16
 2659 0578 000053E3 		cmp	r3, #0
 2660 057c 0200001A 		bne	.L24
 142:../lcd.c      **** 		k=usLeft;
 2661              		.loc 1 142 0
 2662 0580 BE315BE1 		ldrh	r3, [fp, #-30]	@ movhi
 2663 0584 B0314BE1 		strh	r3, [fp, #-16]	@ movhi
 2664 0588 0F0000EA 		b	.L25
 2665              	.L24:
 143:../lcd.c      **** 	else
 144:../lcd.c      **** 	{
 145:../lcd.c      **** 		k=(usLeft/8)*8+8;
 2666              		.loc 1 145 0
 2667 058c FE315BE1 		ldrsh	r3, [fp, #-30]
 2668 0590 072083E2 		add	r2, r3, #7
 2669 0594 000053E3 		cmp	r3, #0
 2670 0598 0230A0B1 		movlt	r3, r2
 2671 059c C331A0E1 		mov	r3, r3, asr #3
 2672 05a0 0338A0E1 		mov	r3, r3, asl #16
 2673 05a4 2338A0E1 		mov	r3, r3, lsr #16
 2674 05a8 0338A0E1 		mov	r3, r3, asl #16
 2675 05ac 4338A0E1 		mov	r3, r3, asr #16
 2676 05b0 013083E2 		add	r3, r3, #1
 2677 05b4 0338A0E1 		mov	r3, r3, asl #16
 2678 05b8 2338A0E1 		mov	r3, r3, lsr #16
 2679 05bc 8331A0E1 		mov	r3, r3, asl #3
 2680 05c0 0338A0E1 		mov	r3, r3, asl #16
 2681 05c4 2338A0E1 		mov	r3, r3, lsr #16
 2682 05c8 B0314BE1 		strh	r3, [fp, #-16]	@ movhi
 2683              	.L25:
 146:../lcd.c      **** 	}
 147:../lcd.c      **** 	if( 0 == (usRight%8) )
 2684              		.loc 1 147 0
 2685 05cc B2325BE1 		ldrh	r3, [fp, #-34]
 2686 05d0 073003E2 		and	r3, r3, #7
 2687 05d4 0338A0E1 		mov	r3, r3, asl #16
 2688 05d8 2338A0E1 		mov	r3, r3, lsr #16
 2689 05dc 000053E3 		cmp	r3, #0
 2690 05e0 0200001A 		bne	.L26
 148:../lcd.c      **** 		l= usRight;
 2691              		.loc 1 148 0
 2692 05e4 B2325BE1 		ldrh	r3, [fp, #-34]	@ movhi
 2693 05e8 B2314BE1 		strh	r3, [fp, #-18]	@ movhi
 2694 05ec 0C0000EA 		b	.L27
 2695              	.L26:
 149:../lcd.c      **** 	else
 150:../lcd.c      **** 	{
 151:../lcd.c      **** 		l=(usRight/8)*8;
 2696              		.loc 1 151 0
 2697 05f0 F2325BE1 		ldrsh	r3, [fp, #-34]
 2698 05f4 072083E2 		add	r2, r3, #7
 2699 05f8 000053E3 		cmp	r3, #0
 2700 05fc 0230A0B1 		movlt	r3, r2
 2701 0600 C331A0E1 		mov	r3, r3, asr #3
 2702 0604 0338A0E1 		mov	r3, r3, asl #16
 2703 0608 2338A0E1 		mov	r3, r3, lsr #16
 2704 060c 0338A0E1 		mov	r3, r3, asl #16
 2705 0610 2338A0E1 		mov	r3, r3, lsr #16
 2706 0614 8331A0E1 		mov	r3, r3, asl #3
 2707 0618 0338A0E1 		mov	r3, r3, asl #16
 2708 061c 2338A0E1 		mov	r3, r3, lsr #16
 2709 0620 B2314BE1 		strh	r3, [fp, #-18]	@ movhi
 2710              	.L27:
 152:../lcd.c      **** 	}
 153:../lcd.c      **** 
 154:../lcd.c      **** 	for( i=usTop; i<=usBottom; i++ )
 2711              		.loc 1 154 0
 2712 0624 B0325BE1 		ldrh	r3, [fp, #-32]	@ movhi
 2713 0628 BE304BE1 		strh	r3, [fp, #-14]	@ movhi
 2714 062c CE0000EA 		b	.L28
 2715              	.L35:
 155:../lcd.c      **** 	{
 156:../lcd.c      **** 		for( m=usLeft; m<=(k-1); m++ )
 2716              		.loc 1 156 0
 2717 0630 BE315BE1 		ldrh	r3, [fp, #-30]	@ movhi
 2718 0634 B4314BE1 		strh	r3, [fp, #-20]	@ movhi
 2719 0638 4D0000EA 		b	.L29
 2720              	.L30:
 157:../lcd.c      **** 		{
 158:../lcd.c      **** 			(LCD_PutPixel(m, i, ucColor));
 2721              		.loc 1 158 0 discriminator 2
 2722 063c FE205BE1 		ldrsh	r2, [fp, #-14]
 2723 0640 0230A0E1 		mov	r3, r2
 2724 0644 0331A0E1 		mov	r3, r3, asl #2
 2725 0648 023083E0 		add	r3, r3, r2
 2726 064c 0333A0E1 		mov	r3, r3, asl #6
 2727 0650 A32FA0E1 		mov	r2, r3, lsr #31
 2728 0654 033082E0 		add	r3, r2, r3
 2729 0658 C330A0E1 		mov	r3, r3, asr #1
 2730 065c C32683E2 		add	r2, r3, #204472320
 2731 0660 962C82E2 		add	r2, r2, #38400
 2732 0664 F4315BE1 		ldrsh	r3, [fp, #-20]
 2733 0668 071083E2 		add	r1, r3, #7
 2734 066c 000053E3 		cmp	r3, #0
 2735 0670 0130A0B1 		movlt	r3, r1
 2736 0674 C331A0E1 		mov	r3, r3, asr #3
 2737 0678 0338A0E1 		mov	r3, r3, asl #16
 2738 067c 2338A0E1 		mov	r3, r3, lsr #16
 2739 0680 0338A0E1 		mov	r3, r3, asl #16
 2740 0684 4338A0E1 		mov	r3, r3, asr #16
 2741 0688 0331A0E1 		mov	r3, r3, asl #2
 2742 068c 033082E0 		add	r3, r2, r3
 2743 0690 0310A0E1 		mov	r1, r3
 2744 0694 FE205BE1 		ldrsh	r2, [fp, #-14]
 2745 0698 0230A0E1 		mov	r3, r2
 2746 069c 0331A0E1 		mov	r3, r3, asl #2
 2747 06a0 023083E0 		add	r3, r3, r2
 2748 06a4 0333A0E1 		mov	r3, r3, asl #6
 2749 06a8 A32FA0E1 		mov	r2, r3, lsr #31
 2750 06ac 033082E0 		add	r3, r2, r3
 2751 06b0 C330A0E1 		mov	r3, r3, asr #1
 2752 06b4 C32683E2 		add	r2, r3, #204472320
 2753 06b8 962C82E2 		add	r2, r2, #38400
 2754 06bc F4315BE1 		ldrsh	r3, [fp, #-20]
 2755 06c0 070083E2 		add	r0, r3, #7
 2756 06c4 000053E3 		cmp	r3, #0
 2757 06c8 0030A0B1 		movlt	r3, r0
 2758 06cc C331A0E1 		mov	r3, r3, asr #3
 2759 06d0 0338A0E1 		mov	r3, r3, asl #16
 2760 06d4 2338A0E1 		mov	r3, r3, lsr #16
 2761 06d8 0338A0E1 		mov	r3, r3, asl #16
 2762 06dc 4338A0E1 		mov	r3, r3, asr #16
 2763 06e0 0331A0E1 		mov	r3, r3, asl #2
 2764 06e4 033082E0 		add	r3, r2, r3
 2765 06e8 000093E5 		ldr	r0, [r3, #0]
 2766 06ec F4215BE1 		ldrsh	r2, [fp, #-20]
 2767 06f0 C23FA0E1 		mov	r3, r2, asr #31
 2768 06f4 A33EA0E1 		mov	r3, r3, lsr #29
 2769 06f8 032082E0 		add	r2, r2, r3
 2770 06fc 072002E2 		and	r2, r2, #7
 2771 0700 023063E0 		rsb	r3, r3, r2
 2772 0704 0338A0E1 		mov	r3, r3, asl #16
 2773 0708 2338A0E1 		mov	r3, r3, lsr #16
 2774 070c 0338A0E1 		mov	r3, r3, asl #16
 2775 0710 4338A0E1 		mov	r3, r3, asr #16
 2776 0714 0331A0E1 		mov	r3, r3, asl #2
 2777 0718 0F22A0E3 		mov	r2, #-268435456
 2778 071c 3233A0E1 		mov	r3, r2, lsr r3
 2779 0720 0330E0E1 		mvn	r3, r3
 2780 0724 030000E0 		and	r0, r0, r3
 2781 0728 04C0DBE5 		ldrb	ip, [fp, #4]	@ zero_extendqisi2
 2782 072c F4215BE1 		ldrsh	r2, [fp, #-20]
 2783 0730 C23FA0E1 		mov	r3, r2, asr #31
 2784 0734 A33EA0E1 		mov	r3, r3, lsr #29
 2785 0738 032082E0 		add	r2, r2, r3
 2786 073c 072002E2 		and	r2, r2, #7
 2787 0740 023063E0 		rsb	r3, r3, r2
 2788 0744 0338A0E1 		mov	r3, r3, asl #16
 2789 0748 2338A0E1 		mov	r3, r3, lsr #16
 2790 074c 0338A0E1 		mov	r3, r3, asl #16
 2791 0750 4338A0E1 		mov	r3, r3, asr #16
 2792 0754 073063E2 		rsb	r3, r3, #7
 2793 0758 0331A0E1 		mov	r3, r3, asl #2
 2794 075c 1C33A0E1 		mov	r3, ip, asl r3
 2795 0760 033080E1 		orr	r3, r0, r3
 2796 0764 003081E5 		str	r3, [r1, #0]
 156:../lcd.c      **** 		for( m=usLeft; m<=(k-1); m++ )
 2797              		.loc 1 156 0 discriminator 2
 2798 0768 B4315BE1 		ldrh	r3, [fp, #-20]	@ movhi
 2799 076c 013083E2 		add	r3, r3, #1
 2800 0770 B4314BE1 		strh	r3, [fp, #-20]	@ movhi
 2801              	.L29:
 156:../lcd.c      **** 		for( m=usLeft; m<=(k-1); m++ )
 2802              		.loc 1 156 0 is_stmt 0 discriminator 1
 2803 0774 F4215BE1 		ldrsh	r2, [fp, #-20]
 2804 0778 F0315BE1 		ldrsh	r3, [fp, #-16]
 2805 077c 013043E2 		sub	r3, r3, #1
 2806 0780 030052E1 		cmp	r2, r3
 2807 0784 ACFFFFDA 		ble	.L30
 159:../lcd.c      **** 		}
 160:../lcd.c      **** 		for( m=k; m<l; m+=8 )
 2808              		.loc 1 160 0 is_stmt 1
 2809 0788 B0315BE1 		ldrh	r3, [fp, #-16]	@ movhi
 2810 078c B4314BE1 		strh	r3, [fp, #-20]	@ movhi
 2811 0790 190000EA 		b	.L31
 2812              	.L32:
 161:../lcd.c      **** 		{
 162:../lcd.c      **** 			(*(INT32U*)(LCD_VIRTUAL_BUFFER + i * SCR_XSIZE / 2 + m / 2)) = ulColor;
 2813              		.loc 1 162 0 discriminator 2
 2814 0794 FE205BE1 		ldrsh	r2, [fp, #-14]
 2815 0798 0230A0E1 		mov	r3, r2
 2816 079c 0331A0E1 		mov	r3, r3, asl #2
 2817 07a0 023083E0 		add	r3, r3, r2
 2818 07a4 0333A0E1 		mov	r3, r3, asl #6
 2819 07a8 A32FA0E1 		mov	r2, r3, lsr #31
 2820 07ac 033082E0 		add	r3, r2, r3
 2821 07b0 C330A0E1 		mov	r3, r3, asr #1
 2822 07b4 C33683E2 		add	r3, r3, #204472320
 2823 07b8 963C83E2 		add	r3, r3, #38400
 2824 07bc F4215BE1 		ldrsh	r2, [fp, #-20]
 2825 07c0 A21FA0E1 		mov	r1, r2, lsr #31
 2826 07c4 022081E0 		add	r2, r1, r2
 2827 07c8 C220A0E1 		mov	r2, r2, asr #1
 2828 07cc 0228A0E1 		mov	r2, r2, asl #16
 2829 07d0 2228A0E1 		mov	r2, r2, lsr #16
 2830 07d4 0228A0E1 		mov	r2, r2, asl #16
 2831 07d8 4228A0E1 		mov	r2, r2, asr #16
 2832 07dc 023083E0 		add	r3, r3, r2
 2833 07e0 18201BE5 		ldr	r2, [fp, #-24]
 2834 07e4 002083E5 		str	r2, [r3, #0]
 160:../lcd.c      **** 		for( m=k; m<l; m+=8 )
 2835              		.loc 1 160 0 discriminator 2
 2836 07e8 B4315BE1 		ldrh	r3, [fp, #-20]
 2837 07ec 083083E2 		add	r3, r3, #8
 2838 07f0 0338A0E1 		mov	r3, r3, asl #16
 2839 07f4 2338A0E1 		mov	r3, r3, lsr #16
 2840 07f8 B4314BE1 		strh	r3, [fp, #-20]	@ movhi
 2841              	.L31:
 160:../lcd.c      **** 		for( m=k; m<l; m+=8 )
 2842              		.loc 1 160 0 is_stmt 0 discriminator 1
 2843 07fc F4215BE1 		ldrsh	r2, [fp, #-20]
 2844 0800 F2315BE1 		ldrsh	r3, [fp, #-18]
 2845 0804 030052E1 		cmp	r2, r3
 2846 0808 E1FFFFBA 		blt	.L32
 163:../lcd.c      **** 		}
 164:../lcd.c      **** 		for( m=l; m<=usRight; m++ )
 2847              		.loc 1 164 0 is_stmt 1
 2848 080c B2315BE1 		ldrh	r3, [fp, #-18]	@ movhi
 2849 0810 B4314BE1 		strh	r3, [fp, #-20]	@ movhi
 2850 0814 4D0000EA 		b	.L33
 2851              	.L34:
 165:../lcd.c      **** 		{
 166:../lcd.c      **** 			(LCD_PutPixel(m, i, ucColor));
 2852              		.loc 1 166 0 discriminator 2
 2853 0818 FE205BE1 		ldrsh	r2, [fp, #-14]
 2854 081c 0230A0E1 		mov	r3, r2
 2855 0820 0331A0E1 		mov	r3, r3, asl #2
 2856 0824 023083E0 		add	r3, r3, r2
 2857 0828 0333A0E1 		mov	r3, r3, asl #6
 2858 082c A32FA0E1 		mov	r2, r3, lsr #31
 2859 0830 033082E0 		add	r3, r2, r3
 2860 0834 C330A0E1 		mov	r3, r3, asr #1
 2861 0838 C32683E2 		add	r2, r3, #204472320
 2862 083c 962C82E2 		add	r2, r2, #38400
 2863 0840 F4315BE1 		ldrsh	r3, [fp, #-20]
 2864 0844 071083E2 		add	r1, r3, #7
 2865 0848 000053E3 		cmp	r3, #0
 2866 084c 0130A0B1 		movlt	r3, r1
 2867 0850 C331A0E1 		mov	r3, r3, asr #3
 2868 0854 0338A0E1 		mov	r3, r3, asl #16
 2869 0858 2338A0E1 		mov	r3, r3, lsr #16
 2870 085c 0338A0E1 		mov	r3, r3, asl #16
 2871 0860 4338A0E1 		mov	r3, r3, asr #16
 2872 0864 0331A0E1 		mov	r3, r3, asl #2
 2873 0868 033082E0 		add	r3, r2, r3
 2874 086c 0310A0E1 		mov	r1, r3
 2875 0870 FE205BE1 		ldrsh	r2, [fp, #-14]
 2876 0874 0230A0E1 		mov	r3, r2
 2877 0878 0331A0E1 		mov	r3, r3, asl #2
 2878 087c 023083E0 		add	r3, r3, r2
 2879 0880 0333A0E1 		mov	r3, r3, asl #6
 2880 0884 A32FA0E1 		mov	r2, r3, lsr #31
 2881 0888 033082E0 		add	r3, r2, r3
 2882 088c C330A0E1 		mov	r3, r3, asr #1
 2883 0890 C32683E2 		add	r2, r3, #204472320
 2884 0894 962C82E2 		add	r2, r2, #38400
 2885 0898 F4315BE1 		ldrsh	r3, [fp, #-20]
 2886 089c 070083E2 		add	r0, r3, #7
 2887 08a0 000053E3 		cmp	r3, #0
 2888 08a4 0030A0B1 		movlt	r3, r0
 2889 08a8 C331A0E1 		mov	r3, r3, asr #3
 2890 08ac 0338A0E1 		mov	r3, r3, asl #16
 2891 08b0 2338A0E1 		mov	r3, r3, lsr #16
 2892 08b4 0338A0E1 		mov	r3, r3, asl #16
 2893 08b8 4338A0E1 		mov	r3, r3, asr #16
 2894 08bc 0331A0E1 		mov	r3, r3, asl #2
 2895 08c0 033082E0 		add	r3, r2, r3
 2896 08c4 000093E5 		ldr	r0, [r3, #0]
 2897 08c8 F4215BE1 		ldrsh	r2, [fp, #-20]
 2898 08cc C23FA0E1 		mov	r3, r2, asr #31
 2899 08d0 A33EA0E1 		mov	r3, r3, lsr #29
 2900 08d4 032082E0 		add	r2, r2, r3
 2901 08d8 072002E2 		and	r2, r2, #7
 2902 08dc 023063E0 		rsb	r3, r3, r2
 2903 08e0 0338A0E1 		mov	r3, r3, asl #16
 2904 08e4 2338A0E1 		mov	r3, r3, lsr #16
 2905 08e8 0338A0E1 		mov	r3, r3, asl #16
 2906 08ec 4338A0E1 		mov	r3, r3, asr #16
 2907 08f0 0331A0E1 		mov	r3, r3, asl #2
 2908 08f4 0F22A0E3 		mov	r2, #-268435456
 2909 08f8 3233A0E1 		mov	r3, r2, lsr r3
 2910 08fc 0330E0E1 		mvn	r3, r3
 2911 0900 030000E0 		and	r0, r0, r3
 2912 0904 04C0DBE5 		ldrb	ip, [fp, #4]	@ zero_extendqisi2
 2913 0908 F4215BE1 		ldrsh	r2, [fp, #-20]
 2914 090c C23FA0E1 		mov	r3, r2, asr #31
 2915 0910 A33EA0E1 		mov	r3, r3, lsr #29
 2916 0914 032082E0 		add	r2, r2, r3
 2917 0918 072002E2 		and	r2, r2, #7
 2918 091c 023063E0 		rsb	r3, r3, r2
 2919 0920 0338A0E1 		mov	r3, r3, asl #16
 2920 0924 2338A0E1 		mov	r3, r3, lsr #16
 2921 0928 0338A0E1 		mov	r3, r3, asl #16
 2922 092c 4338A0E1 		mov	r3, r3, asr #16
 2923 0930 073063E2 		rsb	r3, r3, #7
 2924 0934 0331A0E1 		mov	r3, r3, asl #2
 2925 0938 1C33A0E1 		mov	r3, ip, asl r3
 2926 093c 033080E1 		orr	r3, r0, r3
 2927 0940 003081E5 		str	r3, [r1, #0]
 164:../lcd.c      **** 		for( m=l; m<=usRight; m++ )
 2928              		.loc 1 164 0 discriminator 2
 2929 0944 B4315BE1 		ldrh	r3, [fp, #-20]	@ movhi
 2930 0948 013083E2 		add	r3, r3, #1
 2931 094c B4314BE1 		strh	r3, [fp, #-20]	@ movhi
 2932              	.L33:
 164:../lcd.c      **** 		for( m=l; m<=usRight; m++ )
 2933              		.loc 1 164 0 is_stmt 0 discriminator 1
 2934 0950 F4215BE1 		ldrsh	r2, [fp, #-20]
 2935 0954 F2325BE1 		ldrsh	r3, [fp, #-34]
 2936 0958 030052E1 		cmp	r2, r3
 2937 095c ADFFFFDA 		ble	.L34
 154:../lcd.c      **** 	for( i=usTop; i<=usBottom; i++ )
 2938              		.loc 1 154 0 is_stmt 1
 2939 0960 BE305BE1 		ldrh	r3, [fp, #-14]	@ movhi
 2940 0964 013083E2 		add	r3, r3, #1
 2941 0968 BE304BE1 		strh	r3, [fp, #-14]	@ movhi
 2942              	.L28:
 154:../lcd.c      **** 	for( i=usTop; i<=usBottom; i++ )
 2943              		.loc 1 154 0 is_stmt 0 discriminator 1
 2944 096c FE205BE1 		ldrsh	r2, [fp, #-14]
 2945 0970 F4325BE1 		ldrsh	r3, [fp, #-36]
 2946 0974 030052E1 		cmp	r2, r3
 2947 0978 2CFFFFDA 		ble	.L35
 2948              	.L17:
 167:../lcd.c      **** 		}
 168:../lcd.c      **** 	}
 169:../lcd.c      **** }
 2949              		.loc 1 169 0 is_stmt 1
 2950 097c 0CD04BE2 		sub	sp, fp, #12
 2951 0980 00689DE8 		ldmfd	sp, {fp, sp, lr}
 2952 0984 1EFF2FE1 		bx	lr
 2953              		.cfi_endproc
 2954              	.LFE4:
 2956              		.align	2
 2957              		.global	Lcd_Draw_Box
 2959              	Lcd_Draw_Box:
 2960              	.LFB5:
 170:../lcd.c      **** 
 171:../lcd.c      **** /*********************************************************************************************
 172:../lcd.c      **** * name:		Lcd_Draw_Box()
 173:../lcd.c      **** * func:		Draw rectangle with appointed color
 174:../lcd.c      **** * para:		usLeft,usTop,usRight,usBottom -- rectangle's acme coordinate
 175:../lcd.c      **** *			ucColor -- appointed color value
 176:../lcd.c      **** * ret:		none
 177:../lcd.c      **** * modify:
 178:../lcd.c      **** * comment:		
 179:../lcd.c      **** *********************************************************************************************/
 180:../lcd.c      **** void Lcd_Draw_Box(INT16 usLeft, INT16 usTop, INT16 usRight, INT16 usBottom, INT8U ucColor)
 181:../lcd.c      **** {
 2961              		.loc 1 181 0
 2962              		.cfi_startproc
 2963              		@ Function supports interworking.
 2964              		@ args = 4, pretend = 0, frame = 8
 2965              		@ frame_needed = 1, uses_anonymous_args = 0
 2966 0988 0DC0A0E1 		mov	ip, sp
 2967              	.LCFI10:
 2968              		.cfi_def_cfa_register 12
 2969 098c 00D82DE9 		stmfd	sp!, {fp, ip, lr, pc}
 2970 0990 04B04CE2 		sub	fp, ip, #4
 2971              		.cfi_offset 14, -8
 2972              		.cfi_offset 13, -12
 2973              		.cfi_offset 11, -16
 2974              	.LCFI11:
 2975              		.cfi_def_cfa 11, 4
 2976 0994 10D04DE2 		sub	sp, sp, #16
 2977 0998 BE004BE1 		strh	r0, [fp, #-14]	@ movhi
 2978 099c B0114BE1 		strh	r1, [fp, #-16]	@ movhi
 2979 09a0 B2214BE1 		strh	r2, [fp, #-18]	@ movhi
 2980 09a4 B4314BE1 		strh	r3, [fp, #-20]	@ movhi
 182:../lcd.c      **** 	Lcd_Draw_HLine(usLeft, usRight,  usTop,    ucColor, 1);
 2981              		.loc 1 182 0
 2982 09a8 FE005BE1 		ldrsh	r0, [fp, #-14]
 2983 09ac F2115BE1 		ldrsh	r1, [fp, #-18]
 2984 09b0 F0215BE1 		ldrsh	r2, [fp, #-16]
 2985 09b4 0430DBE5 		ldrb	r3, [fp, #4]	@ zero_extendqisi2
 2986 09b8 01C0A0E3 		mov	ip, #1
 2987 09bc 00C08DE5 		str	ip, [sp, #0]
 2988 09c0 FEFFFFEB 		bl	Lcd_Draw_HLine
 183:../lcd.c      **** 	Lcd_Draw_HLine(usLeft, usRight,  usBottom, ucColor, 1);
 2989              		.loc 1 183 0
 2990 09c4 FE005BE1 		ldrsh	r0, [fp, #-14]
 2991 09c8 F2115BE1 		ldrsh	r1, [fp, #-18]
 2992 09cc F4215BE1 		ldrsh	r2, [fp, #-20]
 2993 09d0 0430DBE5 		ldrb	r3, [fp, #4]	@ zero_extendqisi2
 2994 09d4 01C0A0E3 		mov	ip, #1
 2995 09d8 00C08DE5 		str	ip, [sp, #0]
 2996 09dc FEFFFFEB 		bl	Lcd_Draw_HLine
 184:../lcd.c      **** 	Lcd_Draw_VLine(usTop,  usBottom, usLeft,   ucColor, 1);
 2997              		.loc 1 184 0
 2998 09e0 F0015BE1 		ldrsh	r0, [fp, #-16]
 2999 09e4 F4115BE1 		ldrsh	r1, [fp, #-20]
 3000 09e8 FE205BE1 		ldrsh	r2, [fp, #-14]
 3001 09ec 0430DBE5 		ldrb	r3, [fp, #4]	@ zero_extendqisi2
 3002 09f0 01C0A0E3 		mov	ip, #1
 3003 09f4 00C08DE5 		str	ip, [sp, #0]
 3004 09f8 FEFFFFEB 		bl	Lcd_Draw_VLine
 185:../lcd.c      **** 	Lcd_Draw_VLine(usTop,  usBottom, usRight,  ucColor, 1);
 3005              		.loc 1 185 0
 3006 09fc F0015BE1 		ldrsh	r0, [fp, #-16]
 3007 0a00 F4115BE1 		ldrsh	r1, [fp, #-20]
 3008 0a04 F2215BE1 		ldrsh	r2, [fp, #-18]
 3009 0a08 0430DBE5 		ldrb	r3, [fp, #4]	@ zero_extendqisi2
 3010 0a0c 01C0A0E3 		mov	ip, #1
 3011 0a10 00C08DE5 		str	ip, [sp, #0]
 3012 0a14 FEFFFFEB 		bl	Lcd_Draw_VLine
 186:../lcd.c      **** }
 3013              		.loc 1 186 0
 3014 0a18 0CD04BE2 		sub	sp, fp, #12
 3015 0a1c 00689DE8 		ldmfd	sp, {fp, sp, lr}
 3016 0a20 1EFF2FE1 		bx	lr
 3017              		.cfi_endproc
 3018              	.LFE5:
 3020              		.global	__aeabi_idiv
 3021              		.align	2
 3022              		.global	Lcd_Draw_Line
 3024              	Lcd_Draw_Line:
 3025              	.LFB6:
 187:../lcd.c      **** 
 188:../lcd.c      **** /*********************************************************************************************
 189:../lcd.c      **** * name:		Lcd_Draw_Line()
 190:../lcd.c      **** * func:		Draw line with appointed color
 191:../lcd.c      **** * para:		usX0,usY0 -- line's start point coordinate
 192:../lcd.c      **** *			usX1,usY1 -- line's end point coordinate
 193:../lcd.c      **** *			ucColor -- appointed color value
 194:../lcd.c      **** *			usWidth -- line's width
 195:../lcd.c      **** * ret:		none
 196:../lcd.c      **** * modify:
 197:../lcd.c      **** * comment:		
 198:../lcd.c      **** *********************************************************************************************/
 199:../lcd.c      **** void Lcd_Draw_Line(INT16 usX0, INT16 usY0, INT16 usX1, INT16 usY1, INT8U ucColor, INT16U usWidth)
 200:../lcd.c      **** {
 3026              		.loc 1 200 0
 3027              		.cfi_startproc
 3028              		@ Function supports interworking.
 3029              		@ args = 8, pretend = 0, frame = 32
 3030              		@ frame_needed = 1, uses_anonymous_args = 0
 3031 0a24 0DC0A0E1 		mov	ip, sp
 3032              	.LCFI12:
 3033              		.cfi_def_cfa_register 12
 3034 0a28 00D82DE9 		stmfd	sp!, {fp, ip, lr, pc}
 3035 0a2c 04B04CE2 		sub	fp, ip, #4
 3036              		.cfi_offset 14, -8
 3037              		.cfi_offset 13, -12
 3038              		.cfi_offset 11, -16
 3039              	.LCFI13:
 3040              		.cfi_def_cfa 11, 4
 3041 0a30 28D04DE2 		sub	sp, sp, #40
 3042 0a34 B6024BE1 		strh	r0, [fp, #-38]	@ movhi
 3043 0a38 B8124BE1 		strh	r1, [fp, #-40]	@ movhi
 3044 0a3c BA224BE1 		strh	r2, [fp, #-42]	@ movhi
 3045 0a40 BC324BE1 		strh	r3, [fp, #-44]	@ movhi
 201:../lcd.c      **** 	INT16 usDx;
 202:../lcd.c      **** 	INT16 usDy;
 203:../lcd.c      **** 	INT16 y_sign;
 204:../lcd.c      **** 	INT16 x_sign;
 205:../lcd.c      **** 	INT16 decision;
 206:../lcd.c      **** 	INT16 wCurx, wCury, wNextx, wNexty, wpy, wpx;
 207:../lcd.c      **** 
 208:../lcd.c      **** 	if( usY0 == usY1 )
 3046              		.loc 1 208 0
 3047 0a44 F8225BE1 		ldrsh	r2, [fp, #-40]
 3048 0a48 FC325BE1 		ldrsh	r3, [fp, #-44]
 3049 0a4c 030052E1 		cmp	r2, r3
 3050 0a50 0700001A 		bne	.L38
 209:../lcd.c      **** 	{
 210:../lcd.c      **** 		Lcd_Draw_HLine (usX0, usX1, usY0, ucColor, usWidth);
 3051              		.loc 1 210 0
 3052 0a54 F6025BE1 		ldrsh	r0, [fp, #-38]
 3053 0a58 FA125BE1 		ldrsh	r1, [fp, #-42]
 3054 0a5c F8225BE1 		ldrsh	r2, [fp, #-40]
 3055 0a60 0430DBE5 		ldrb	r3, [fp, #4]	@ zero_extendqisi2
 3056 0a64 B8C0DBE1 		ldrh	ip, [fp, #8]
 3057 0a68 00C08DE5 		str	ip, [sp, #0]
 3058 0a6c FEFFFFEB 		bl	Lcd_Draw_HLine
 211:../lcd.c      **** 		return;
 3059              		.loc 1 211 0
 3060 0a70 3E0200EA 		b	.L37
 3061              	.L38:
 212:../lcd.c      **** 	}
 213:../lcd.c      **** 	if( usX0 == usX1 )
 3062              		.loc 1 213 0
 3063 0a74 F6225BE1 		ldrsh	r2, [fp, #-38]
 3064 0a78 FA325BE1 		ldrsh	r3, [fp, #-42]
 3065 0a7c 030052E1 		cmp	r2, r3
 3066 0a80 0700001A 		bne	.L40
 214:../lcd.c      **** 	{
 215:../lcd.c      **** 		Lcd_Draw_VLine (usY0, usY1, usX0, ucColor, usWidth);
 3067              		.loc 1 215 0
 3068 0a84 F8025BE1 		ldrsh	r0, [fp, #-40]
 3069 0a88 FC125BE1 		ldrsh	r1, [fp, #-44]
 3070 0a8c F6225BE1 		ldrsh	r2, [fp, #-38]
 3071 0a90 0430DBE5 		ldrb	r3, [fp, #4]	@ zero_extendqisi2
 3072 0a94 B8C0DBE1 		ldrh	ip, [fp, #8]
 3073 0a98 00C08DE5 		str	ip, [sp, #0]
 3074 0a9c FEFFFFEB 		bl	Lcd_Draw_VLine
 216:../lcd.c      **** 		return;
 3075              		.loc 1 216 0
 3076 0aa0 320200EA 		b	.L37
 3077              	.L40:
 217:../lcd.c      **** 	}
 218:../lcd.c      **** 	usDx = abs(usX0 - usX1);
 3078              		.loc 1 218 0
 3079 0aa4 F6225BE1 		ldrsh	r2, [fp, #-38]
 3080 0aa8 FA325BE1 		ldrsh	r3, [fp, #-42]
 3081 0aac 023063E0 		rsb	r3, r3, r2
 3082 0ab0 000053E3 		cmp	r3, #0
 3083 0ab4 003063B2 		rsblt	r3, r3, #0
 3084 0ab8 BC314BE1 		strh	r3, [fp, #-28]	@ movhi
 219:../lcd.c      **** 	usDy = abs(usY0 - usY1);
 3085              		.loc 1 219 0
 3086 0abc F8225BE1 		ldrsh	r2, [fp, #-40]
 3087 0ac0 FC325BE1 		ldrsh	r3, [fp, #-44]
 3088 0ac4 023063E0 		rsb	r3, r3, r2
 3089 0ac8 000053E3 		cmp	r3, #0
 3090 0acc 003063B2 		rsblt	r3, r3, #0
 3091 0ad0 BE314BE1 		strh	r3, [fp, #-30]	@ movhi
 220:../lcd.c      **** 	if( ((usDx >= usDy && (usX0 > usX1)) ||
 3092              		.loc 1 220 0
 3093 0ad4 FC215BE1 		ldrsh	r2, [fp, #-28]
 3094 0ad8 FE315BE1 		ldrsh	r3, [fp, #-30]
 3095 0adc 030052E1 		cmp	r2, r3
 3096 0ae0 030000BA 		blt	.L41
 3097              		.loc 1 220 0 is_stmt 0 discriminator 1
 3098 0ae4 F6225BE1 		ldrsh	r2, [fp, #-38]
 3099 0ae8 FA325BE1 		ldrsh	r3, [fp, #-42]
 3100 0aec 030052E1 		cmp	r2, r3
 3101 0af0 070000CA 		bgt	.L42
 3102              	.L41:
 3103              		.loc 1 220 0 discriminator 2
 3104 0af4 FE215BE1 		ldrsh	r2, [fp, #-30]
 3105 0af8 FC315BE1 		ldrsh	r3, [fp, #-28]
 3106 0afc 030052E1 		cmp	r2, r3
 3107 0b00 1B0000DA 		ble	.L43
 221:../lcd.c      ****         ((usDy > usDx) && (usY0 > usY1))) )
 3108              		.loc 1 221 0 is_stmt 1
 3109 0b04 F8225BE1 		ldrsh	r2, [fp, #-40]
 3110 0b08 FC325BE1 		ldrsh	r3, [fp, #-44]
 3111 0b0c 030052E1 		cmp	r2, r3
 3112 0b10 170000DA 		ble	.L43
 3113              	.L42:
 222:../lcd.c      ****     {
 223:../lcd.c      ****         GUISWAP(usX1, usX0);
 3114              		.loc 1 223 0
 3115 0b14 BA225BE1 		ldrh	r2, [fp, #-42]	@ movhi
 3116 0b18 B6325BE1 		ldrh	r3, [fp, #-38]	@ movhi
 3117 0b1c 033022E0 		eor	r3, r2, r3
 3118 0b20 BA324BE1 		strh	r3, [fp, #-42]	@ movhi
 3119 0b24 B6225BE1 		ldrh	r2, [fp, #-38]	@ movhi
 3120 0b28 BA325BE1 		ldrh	r3, [fp, #-42]	@ movhi
 3121 0b2c 033022E0 		eor	r3, r2, r3
 3122 0b30 B6324BE1 		strh	r3, [fp, #-38]	@ movhi
 3123 0b34 BA225BE1 		ldrh	r2, [fp, #-42]	@ movhi
 3124 0b38 B6325BE1 		ldrh	r3, [fp, #-38]	@ movhi
 3125 0b3c 033022E0 		eor	r3, r2, r3
 3126 0b40 BA324BE1 		strh	r3, [fp, #-42]	@ movhi
 224:../lcd.c      ****         GUISWAP(usY1, usY0);
 3127              		.loc 1 224 0
 3128 0b44 BC225BE1 		ldrh	r2, [fp, #-44]	@ movhi
 3129 0b48 B8325BE1 		ldrh	r3, [fp, #-40]	@ movhi
 3130 0b4c 033022E0 		eor	r3, r2, r3
 3131 0b50 BC324BE1 		strh	r3, [fp, #-44]	@ movhi
 3132 0b54 B8225BE1 		ldrh	r2, [fp, #-40]	@ movhi
 3133 0b58 BC325BE1 		ldrh	r3, [fp, #-44]	@ movhi
 3134 0b5c 033022E0 		eor	r3, r2, r3
 3135 0b60 B8324BE1 		strh	r3, [fp, #-40]	@ movhi
 3136 0b64 BC225BE1 		ldrh	r2, [fp, #-44]	@ movhi
 3137 0b68 B8325BE1 		ldrh	r3, [fp, #-40]	@ movhi
 3138 0b6c 033022E0 		eor	r3, r2, r3
 3139 0b70 BC324BE1 		strh	r3, [fp, #-44]	@ movhi
 3140              	.L43:
 225:../lcd.c      ****     }
 226:../lcd.c      ****     y_sign = (usY1 - usY0) / usDy;
 3141              		.loc 1 226 0
 3142 0b74 FC225BE1 		ldrsh	r2, [fp, #-44]
 3143 0b78 F8325BE1 		ldrsh	r3, [fp, #-40]
 3144 0b7c 022063E0 		rsb	r2, r3, r2
 3145 0b80 FE315BE1 		ldrsh	r3, [fp, #-30]
 3146 0b84 0200A0E1 		mov	r0, r2
 3147 0b88 0310A0E1 		mov	r1, r3
 3148 0b8c FEFFFFEB 		bl	__aeabi_idiv
 3149 0b90 0030A0E1 		mov	r3, r0
 3150 0b94 B0324BE1 		strh	r3, [fp, #-32]	@ movhi
 227:../lcd.c      ****     x_sign = (usX1 - usX0) / usDx;
 3151              		.loc 1 227 0
 3152 0b98 FA225BE1 		ldrsh	r2, [fp, #-42]
 3153 0b9c F6325BE1 		ldrsh	r3, [fp, #-38]
 3154 0ba0 022063E0 		rsb	r2, r3, r2
 3155 0ba4 FC315BE1 		ldrsh	r3, [fp, #-28]
 3156 0ba8 0200A0E1 		mov	r0, r2
 3157 0bac 0310A0E1 		mov	r1, r3
 3158 0bb0 FEFFFFEB 		bl	__aeabi_idiv
 3159 0bb4 0030A0E1 		mov	r3, r0
 3160 0bb8 B2324BE1 		strh	r3, [fp, #-34]	@ movhi
 228:../lcd.c      **** 
 229:../lcd.c      ****     if( usDx >= usDy )
 3161              		.loc 1 229 0
 3162 0bbc FC215BE1 		ldrsh	r2, [fp, #-28]
 3163 0bc0 FE315BE1 		ldrsh	r3, [fp, #-30]
 3164 0bc4 030052E1 		cmp	r2, r3
 3165 0bc8 F40000BA 		blt	.L44
 230:../lcd.c      ****     {
 231:../lcd.c      ****         for( wCurx = usX0, wCury = usY0, wNextx = usX1,
 3166              		.loc 1 231 0
 3167 0bcc B6325BE1 		ldrh	r3, [fp, #-38]	@ movhi
 3168 0bd0 B0314BE1 		strh	r3, [fp, #-16]	@ movhi
 3169 0bd4 B8325BE1 		ldrh	r3, [fp, #-40]	@ movhi
 3170 0bd8 B2314BE1 		strh	r3, [fp, #-18]	@ movhi
 3171 0bdc BA325BE1 		ldrh	r3, [fp, #-42]	@ movhi
 3172 0be0 B4314BE1 		strh	r3, [fp, #-20]	@ movhi
 232:../lcd.c      ****              wNexty = usY1, decision = (usDx >> 1);
 3173              		.loc 1 232 0
 3174 0be4 BC325BE1 		ldrh	r3, [fp, #-44]	@ movhi
 3175 0be8 B6314BE1 		strh	r3, [fp, #-22]	@ movhi
 3176 0bec FC315BE1 		ldrsh	r3, [fp, #-28]
 3177 0bf0 C330A0E1 		mov	r3, r3, asr #1
 3178 0bf4 BE304BE1 		strh	r3, [fp, #-14]	@ movhi
 231:../lcd.c      ****         for( wCurx = usX0, wCury = usY0, wNextx = usX1,
 3179              		.loc 1 231 0
 3180 0bf8 E30000EA 		b	.L45
 3181              	.L51:
 233:../lcd.c      ****              wCurx <= wNextx; wCurx++, wNextx--, decision += usDy )
 234:../lcd.c      ****         {
 235:../lcd.c      ****             if( decision >= usDx )
 3182              		.loc 1 235 0
 3183 0bfc FE205BE1 		ldrsh	r2, [fp, #-14]
 3184 0c00 FC315BE1 		ldrsh	r3, [fp, #-28]
 3185 0c04 030052E1 		cmp	r2, r3
 3186 0c08 110000BA 		blt	.L46
 236:../lcd.c      ****             {
 237:../lcd.c      ****                 decision -= usDx;
 3187              		.loc 1 237 0
 3188 0c0c BE205BE1 		ldrh	r2, [fp, #-14]
 3189 0c10 BC315BE1 		ldrh	r3, [fp, #-28]
 3190 0c14 023063E0 		rsb	r3, r3, r2
 3191 0c18 0338A0E1 		mov	r3, r3, asl #16
 3192 0c1c 2338A0E1 		mov	r3, r3, lsr #16
 3193 0c20 BE304BE1 		strh	r3, [fp, #-14]	@ movhi
 238:../lcd.c      ****                 wCury += y_sign;
 3194              		.loc 1 238 0
 3195 0c24 B2215BE1 		ldrh	r2, [fp, #-18]
 3196 0c28 B0325BE1 		ldrh	r3, [fp, #-32]
 3197 0c2c 033082E0 		add	r3, r2, r3
 3198 0c30 0338A0E1 		mov	r3, r3, asl #16
 3199 0c34 2338A0E1 		mov	r3, r3, lsr #16
 3200 0c38 B2314BE1 		strh	r3, [fp, #-18]	@ movhi
 239:../lcd.c      ****                 wNexty -= y_sign;
 3201              		.loc 1 239 0
 3202 0c3c B6215BE1 		ldrh	r2, [fp, #-22]
 3203 0c40 B0325BE1 		ldrh	r3, [fp, #-32]
 3204 0c44 023063E0 		rsb	r3, r3, r2
 3205 0c48 0338A0E1 		mov	r3, r3, asl #16
 3206 0c4c 2338A0E1 		mov	r3, r3, lsr #16
 3207 0c50 B6314BE1 		strh	r3, [fp, #-22]	@ movhi
 3208              	.L46:
 240:../lcd.c      ****             }
 241:../lcd.c      ****             for( wpy = wCury - usWidth / 2;
 3209              		.loc 1 241 0
 3210 0c54 B2215BE1 		ldrh	r2, [fp, #-18]
 3211 0c58 B830DBE1 		ldrh	r3, [fp, #8]
 3212 0c5c A330A0E1 		mov	r3, r3, lsr #1
 3213 0c60 0338A0E1 		mov	r3, r3, asl #16
 3214 0c64 2338A0E1 		mov	r3, r3, lsr #16
 3215 0c68 023063E0 		rsb	r3, r3, r2
 3216 0c6c 0338A0E1 		mov	r3, r3, asl #16
 3217 0c70 2338A0E1 		mov	r3, r3, lsr #16
 3218 0c74 B8314BE1 		strh	r3, [fp, #-24]	@ movhi
 3219 0c78 4D0000EA 		b	.L47
 3220              	.L48:
 242:../lcd.c      ****                  wpy <= wCury + usWidth / 2; wpy++ )
 243:../lcd.c      ****             {
 244:../lcd.c      ****                 (LCD_PutPixel(wCurx, wpy, ucColor));
 3221              		.loc 1 244 0
 3222 0c7c F8215BE1 		ldrsh	r2, [fp, #-24]
 3223 0c80 0230A0E1 		mov	r3, r2
 3224 0c84 0331A0E1 		mov	r3, r3, asl #2
 3225 0c88 023083E0 		add	r3, r3, r2
 3226 0c8c 0333A0E1 		mov	r3, r3, asl #6
 3227 0c90 A32FA0E1 		mov	r2, r3, lsr #31
 3228 0c94 033082E0 		add	r3, r2, r3
 3229 0c98 C330A0E1 		mov	r3, r3, asr #1
 3230 0c9c C32683E2 		add	r2, r3, #204472320
 3231 0ca0 962C82E2 		add	r2, r2, #38400
 3232 0ca4 F0315BE1 		ldrsh	r3, [fp, #-16]
 3233 0ca8 071083E2 		add	r1, r3, #7
 3234 0cac 000053E3 		cmp	r3, #0
 3235 0cb0 0130A0B1 		movlt	r3, r1
 3236 0cb4 C331A0E1 		mov	r3, r3, asr #3
 3237 0cb8 0338A0E1 		mov	r3, r3, asl #16
 3238 0cbc 2338A0E1 		mov	r3, r3, lsr #16
 3239 0cc0 0338A0E1 		mov	r3, r3, asl #16
 3240 0cc4 4338A0E1 		mov	r3, r3, asr #16
 3241 0cc8 0331A0E1 		mov	r3, r3, asl #2
 3242 0ccc 033082E0 		add	r3, r2, r3
 3243 0cd0 0310A0E1 		mov	r1, r3
 3244 0cd4 F8215BE1 		ldrsh	r2, [fp, #-24]
 3245 0cd8 0230A0E1 		mov	r3, r2
 3246 0cdc 0331A0E1 		mov	r3, r3, asl #2
 3247 0ce0 023083E0 		add	r3, r3, r2
 3248 0ce4 0333A0E1 		mov	r3, r3, asl #6
 3249 0ce8 A32FA0E1 		mov	r2, r3, lsr #31
 3250 0cec 033082E0 		add	r3, r2, r3
 3251 0cf0 C330A0E1 		mov	r3, r3, asr #1
 3252 0cf4 C32683E2 		add	r2, r3, #204472320
 3253 0cf8 962C82E2 		add	r2, r2, #38400
 3254 0cfc F0315BE1 		ldrsh	r3, [fp, #-16]
 3255 0d00 070083E2 		add	r0, r3, #7
 3256 0d04 000053E3 		cmp	r3, #0
 3257 0d08 0030A0B1 		movlt	r3, r0
 3258 0d0c C331A0E1 		mov	r3, r3, asr #3
 3259 0d10 0338A0E1 		mov	r3, r3, asl #16
 3260 0d14 2338A0E1 		mov	r3, r3, lsr #16
 3261 0d18 0338A0E1 		mov	r3, r3, asl #16
 3262 0d1c 4338A0E1 		mov	r3, r3, asr #16
 3263 0d20 0331A0E1 		mov	r3, r3, asl #2
 3264 0d24 033082E0 		add	r3, r2, r3
 3265 0d28 000093E5 		ldr	r0, [r3, #0]
 3266 0d2c F0215BE1 		ldrsh	r2, [fp, #-16]
 3267 0d30 C23FA0E1 		mov	r3, r2, asr #31
 3268 0d34 A33EA0E1 		mov	r3, r3, lsr #29
 3269 0d38 032082E0 		add	r2, r2, r3
 3270 0d3c 072002E2 		and	r2, r2, #7
 3271 0d40 023063E0 		rsb	r3, r3, r2
 3272 0d44 0338A0E1 		mov	r3, r3, asl #16
 3273 0d48 2338A0E1 		mov	r3, r3, lsr #16
 3274 0d4c 0338A0E1 		mov	r3, r3, asl #16
 3275 0d50 4338A0E1 		mov	r3, r3, asr #16
 3276 0d54 0331A0E1 		mov	r3, r3, asl #2
 3277 0d58 0F22A0E3 		mov	r2, #-268435456
 3278 0d5c 3233A0E1 		mov	r3, r2, lsr r3
 3279 0d60 0330E0E1 		mvn	r3, r3
 3280 0d64 030000E0 		and	r0, r0, r3
 3281 0d68 04C0DBE5 		ldrb	ip, [fp, #4]	@ zero_extendqisi2
 3282 0d6c F0215BE1 		ldrsh	r2, [fp, #-16]
 3283 0d70 C23FA0E1 		mov	r3, r2, asr #31
 3284 0d74 A33EA0E1 		mov	r3, r3, lsr #29
 3285 0d78 032082E0 		add	r2, r2, r3
 3286 0d7c 072002E2 		and	r2, r2, #7
 3287 0d80 023063E0 		rsb	r3, r3, r2
 3288 0d84 0338A0E1 		mov	r3, r3, asl #16
 3289 0d88 2338A0E1 		mov	r3, r3, lsr #16
 3290 0d8c 0338A0E1 		mov	r3, r3, asl #16
 3291 0d90 4338A0E1 		mov	r3, r3, asr #16
 3292 0d94 073063E2 		rsb	r3, r3, #7
 3293 0d98 0331A0E1 		mov	r3, r3, asl #2
 3294 0d9c 1C33A0E1 		mov	r3, ip, asl r3
 3295 0da0 033080E1 		orr	r3, r0, r3
 3296 0da4 003081E5 		str	r3, [r1, #0]
 242:../lcd.c      ****                  wpy <= wCury + usWidth / 2; wpy++ )
 3297              		.loc 1 242 0
 3298 0da8 B8315BE1 		ldrh	r3, [fp, #-24]	@ movhi
 3299 0dac 013083E2 		add	r3, r3, #1
 3300 0db0 B8314BE1 		strh	r3, [fp, #-24]	@ movhi
 3301              	.L47:
 242:../lcd.c      ****                  wpy <= wCury + usWidth / 2; wpy++ )
 3302              		.loc 1 242 0 is_stmt 0 discriminator 1
 3303 0db4 F8215BE1 		ldrsh	r2, [fp, #-24]
 3304 0db8 F2115BE1 		ldrsh	r1, [fp, #-18]
 3305 0dbc B830DBE1 		ldrh	r3, [fp, #8]
 3306 0dc0 A330A0E1 		mov	r3, r3, lsr #1
 3307 0dc4 0338A0E1 		mov	r3, r3, asl #16
 3308 0dc8 2338A0E1 		mov	r3, r3, lsr #16
 3309 0dcc 033081E0 		add	r3, r1, r3
 241:../lcd.c      ****             for( wpy = wCury - usWidth / 2;
 3310              		.loc 1 241 0 is_stmt 1 discriminator 1
 3311 0dd0 030052E1 		cmp	r2, r3
 3312 0dd4 A8FFFFDA 		ble	.L48
 245:../lcd.c      ****             }
 246:../lcd.c      **** 
 247:../lcd.c      ****             for( wpy = wNexty - usWidth / 2;
 3313              		.loc 1 247 0
 3314 0dd8 B6215BE1 		ldrh	r2, [fp, #-22]
 3315 0ddc B830DBE1 		ldrh	r3, [fp, #8]
 3316 0de0 A330A0E1 		mov	r3, r3, lsr #1
 3317 0de4 0338A0E1 		mov	r3, r3, asl #16
 3318 0de8 2338A0E1 		mov	r3, r3, lsr #16
 3319 0dec 023063E0 		rsb	r3, r3, r2
 3320 0df0 0338A0E1 		mov	r3, r3, asl #16
 3321 0df4 2338A0E1 		mov	r3, r3, lsr #16
 3322 0df8 B8314BE1 		strh	r3, [fp, #-24]	@ movhi
 3323 0dfc 4D0000EA 		b	.L49
 3324              	.L50:
 248:../lcd.c      ****                  wpy <= wNexty + usWidth / 2; wpy++ )
 249:../lcd.c      ****             {
 250:../lcd.c      ****                 (LCD_PutPixel(wNextx, wpy, ucColor));
 3325              		.loc 1 250 0
 3326 0e00 F8215BE1 		ldrsh	r2, [fp, #-24]
 3327 0e04 0230A0E1 		mov	r3, r2
 3328 0e08 0331A0E1 		mov	r3, r3, asl #2
 3329 0e0c 023083E0 		add	r3, r3, r2
 3330 0e10 0333A0E1 		mov	r3, r3, asl #6
 3331 0e14 A32FA0E1 		mov	r2, r3, lsr #31
 3332 0e18 033082E0 		add	r3, r2, r3
 3333 0e1c C330A0E1 		mov	r3, r3, asr #1
 3334 0e20 C32683E2 		add	r2, r3, #204472320
 3335 0e24 962C82E2 		add	r2, r2, #38400
 3336 0e28 F4315BE1 		ldrsh	r3, [fp, #-20]
 3337 0e2c 071083E2 		add	r1, r3, #7
 3338 0e30 000053E3 		cmp	r3, #0
 3339 0e34 0130A0B1 		movlt	r3, r1
 3340 0e38 C331A0E1 		mov	r3, r3, asr #3
 3341 0e3c 0338A0E1 		mov	r3, r3, asl #16
 3342 0e40 2338A0E1 		mov	r3, r3, lsr #16
 3343 0e44 0338A0E1 		mov	r3, r3, asl #16
 3344 0e48 4338A0E1 		mov	r3, r3, asr #16
 3345 0e4c 0331A0E1 		mov	r3, r3, asl #2
 3346 0e50 033082E0 		add	r3, r2, r3
 3347 0e54 0310A0E1 		mov	r1, r3
 3348 0e58 F8215BE1 		ldrsh	r2, [fp, #-24]
 3349 0e5c 0230A0E1 		mov	r3, r2
 3350 0e60 0331A0E1 		mov	r3, r3, asl #2
 3351 0e64 023083E0 		add	r3, r3, r2
 3352 0e68 0333A0E1 		mov	r3, r3, asl #6
 3353 0e6c A32FA0E1 		mov	r2, r3, lsr #31
 3354 0e70 033082E0 		add	r3, r2, r3
 3355 0e74 C330A0E1 		mov	r3, r3, asr #1
 3356 0e78 C32683E2 		add	r2, r3, #204472320
 3357 0e7c 962C82E2 		add	r2, r2, #38400
 3358 0e80 F4315BE1 		ldrsh	r3, [fp, #-20]
 3359 0e84 070083E2 		add	r0, r3, #7
 3360 0e88 000053E3 		cmp	r3, #0
 3361 0e8c 0030A0B1 		movlt	r3, r0
 3362 0e90 C331A0E1 		mov	r3, r3, asr #3
 3363 0e94 0338A0E1 		mov	r3, r3, asl #16
 3364 0e98 2338A0E1 		mov	r3, r3, lsr #16
 3365 0e9c 0338A0E1 		mov	r3, r3, asl #16
 3366 0ea0 4338A0E1 		mov	r3, r3, asr #16
 3367 0ea4 0331A0E1 		mov	r3, r3, asl #2
 3368 0ea8 033082E0 		add	r3, r2, r3
 3369 0eac 000093E5 		ldr	r0, [r3, #0]
 3370 0eb0 F4215BE1 		ldrsh	r2, [fp, #-20]
 3371 0eb4 C23FA0E1 		mov	r3, r2, asr #31
 3372 0eb8 A33EA0E1 		mov	r3, r3, lsr #29
 3373 0ebc 032082E0 		add	r2, r2, r3
 3374 0ec0 072002E2 		and	r2, r2, #7
 3375 0ec4 023063E0 		rsb	r3, r3, r2
 3376 0ec8 0338A0E1 		mov	r3, r3, asl #16
 3377 0ecc 2338A0E1 		mov	r3, r3, lsr #16
 3378 0ed0 0338A0E1 		mov	r3, r3, asl #16
 3379 0ed4 4338A0E1 		mov	r3, r3, asr #16
 3380 0ed8 0331A0E1 		mov	r3, r3, asl #2
 3381 0edc 0F22A0E3 		mov	r2, #-268435456
 3382 0ee0 3233A0E1 		mov	r3, r2, lsr r3
 3383 0ee4 0330E0E1 		mvn	r3, r3
 3384 0ee8 030000E0 		and	r0, r0, r3
 3385 0eec 04C0DBE5 		ldrb	ip, [fp, #4]	@ zero_extendqisi2
 3386 0ef0 F4215BE1 		ldrsh	r2, [fp, #-20]
 3387 0ef4 C23FA0E1 		mov	r3, r2, asr #31
 3388 0ef8 A33EA0E1 		mov	r3, r3, lsr #29
 3389 0efc 032082E0 		add	r2, r2, r3
 3390 0f00 072002E2 		and	r2, r2, #7
 3391 0f04 023063E0 		rsb	r3, r3, r2
 3392 0f08 0338A0E1 		mov	r3, r3, asl #16
 3393 0f0c 2338A0E1 		mov	r3, r3, lsr #16
 3394 0f10 0338A0E1 		mov	r3, r3, asl #16
 3395 0f14 4338A0E1 		mov	r3, r3, asr #16
 3396 0f18 073063E2 		rsb	r3, r3, #7
 3397 0f1c 0331A0E1 		mov	r3, r3, asl #2
 3398 0f20 1C33A0E1 		mov	r3, ip, asl r3
 3399 0f24 033080E1 		orr	r3, r0, r3
 3400 0f28 003081E5 		str	r3, [r1, #0]
 248:../lcd.c      ****                  wpy <= wNexty + usWidth / 2; wpy++ )
 3401              		.loc 1 248 0
 3402 0f2c B8315BE1 		ldrh	r3, [fp, #-24]	@ movhi
 3403 0f30 013083E2 		add	r3, r3, #1
 3404 0f34 B8314BE1 		strh	r3, [fp, #-24]	@ movhi
 3405              	.L49:
 248:../lcd.c      ****                  wpy <= wNexty + usWidth / 2; wpy++ )
 3406              		.loc 1 248 0 is_stmt 0 discriminator 1
 3407 0f38 F8215BE1 		ldrsh	r2, [fp, #-24]
 3408 0f3c F6115BE1 		ldrsh	r1, [fp, #-22]
 3409 0f40 B830DBE1 		ldrh	r3, [fp, #8]
 3410 0f44 A330A0E1 		mov	r3, r3, lsr #1
 3411 0f48 0338A0E1 		mov	r3, r3, asl #16
 3412 0f4c 2338A0E1 		mov	r3, r3, lsr #16
 3413 0f50 033081E0 		add	r3, r1, r3
 247:../lcd.c      ****             for( wpy = wNexty - usWidth / 2;
 3414              		.loc 1 247 0 is_stmt 1 discriminator 1
 3415 0f54 030052E1 		cmp	r2, r3
 3416 0f58 A8FFFFDA 		ble	.L50
 233:../lcd.c      ****              wCurx <= wNextx; wCurx++, wNextx--, decision += usDy )
 3417              		.loc 1 233 0
 3418 0f5c B0315BE1 		ldrh	r3, [fp, #-16]	@ movhi
 3419 0f60 013083E2 		add	r3, r3, #1
 3420 0f64 B0314BE1 		strh	r3, [fp, #-16]	@ movhi
 3421 0f68 B4315BE1 		ldrh	r3, [fp, #-20]	@ movhi
 3422 0f6c 013043E2 		sub	r3, r3, #1
 3423 0f70 B4314BE1 		strh	r3, [fp, #-20]	@ movhi
 3424 0f74 BE205BE1 		ldrh	r2, [fp, #-14]
 3425 0f78 BE315BE1 		ldrh	r3, [fp, #-30]
 3426 0f7c 033082E0 		add	r3, r2, r3
 3427 0f80 0338A0E1 		mov	r3, r3, asl #16
 3428 0f84 2338A0E1 		mov	r3, r3, lsr #16
 3429 0f88 BE304BE1 		strh	r3, [fp, #-14]	@ movhi
 3430              	.L45:
 231:../lcd.c      ****         for( wCurx = usX0, wCury = usY0, wNextx = usX1,
 3431              		.loc 1 231 0 discriminator 1
 3432 0f8c F0215BE1 		ldrsh	r2, [fp, #-16]
 3433 0f90 F4315BE1 		ldrsh	r3, [fp, #-20]
 3434 0f94 030052E1 		cmp	r2, r3
 3435 0f98 17FFFFDA 		ble	.L51
 231:../lcd.c      ****         for( wCurx = usX0, wCury = usY0, wNextx = usX1,
 3436              		.loc 1 231 0 is_stmt 0
 3437 0f9c F30000EA 		b	.L37
 3438              	.L44:
 251:../lcd.c      ****             }
 252:../lcd.c      ****         }
 253:../lcd.c      ****     }
 254:../lcd.c      ****     else
 255:../lcd.c      ****     {
 256:../lcd.c      ****         for( wCurx = usX0, wCury = usY0, wNextx = usX1,
 3439              		.loc 1 256 0 is_stmt 1
 3440 0fa0 B6325BE1 		ldrh	r3, [fp, #-38]	@ movhi
 3441 0fa4 B0314BE1 		strh	r3, [fp, #-16]	@ movhi
 3442 0fa8 B8325BE1 		ldrh	r3, [fp, #-40]	@ movhi
 3443 0fac B2314BE1 		strh	r3, [fp, #-18]	@ movhi
 3444 0fb0 BA325BE1 		ldrh	r3, [fp, #-42]	@ movhi
 3445 0fb4 B4314BE1 		strh	r3, [fp, #-20]	@ movhi
 257:../lcd.c      ****              wNexty = usY1, decision = (usDy >> 1);
 3446              		.loc 1 257 0
 3447 0fb8 BC325BE1 		ldrh	r3, [fp, #-44]	@ movhi
 3448 0fbc B6314BE1 		strh	r3, [fp, #-22]	@ movhi
 3449 0fc0 FE315BE1 		ldrsh	r3, [fp, #-30]
 3450 0fc4 C330A0E1 		mov	r3, r3, asr #1
 3451 0fc8 BE304BE1 		strh	r3, [fp, #-14]	@ movhi
 256:../lcd.c      ****         for( wCurx = usX0, wCury = usY0, wNextx = usX1,
 3452              		.loc 1 256 0
 3453 0fcc E30000EA 		b	.L52
 3454              	.L58:
 258:../lcd.c      ****              wCury <= wNexty; wCury++, wNexty--, decision += usDx )
 259:../lcd.c      ****         {
 260:../lcd.c      ****             if( decision >= usDy )
 3455              		.loc 1 260 0
 3456 0fd0 FE205BE1 		ldrsh	r2, [fp, #-14]
 3457 0fd4 FE315BE1 		ldrsh	r3, [fp, #-30]
 3458 0fd8 030052E1 		cmp	r2, r3
 3459 0fdc 110000BA 		blt	.L53
 261:../lcd.c      ****             {
 262:../lcd.c      ****                 decision -= usDy;
 3460              		.loc 1 262 0
 3461 0fe0 BE205BE1 		ldrh	r2, [fp, #-14]
 3462 0fe4 BE315BE1 		ldrh	r3, [fp, #-30]
 3463 0fe8 023063E0 		rsb	r3, r3, r2
 3464 0fec 0338A0E1 		mov	r3, r3, asl #16
 3465 0ff0 2338A0E1 		mov	r3, r3, lsr #16
 3466 0ff4 BE304BE1 		strh	r3, [fp, #-14]	@ movhi
 263:../lcd.c      ****                 wCurx += x_sign;
 3467              		.loc 1 263 0
 3468 0ff8 B0215BE1 		ldrh	r2, [fp, #-16]
 3469 0ffc B2325BE1 		ldrh	r3, [fp, #-34]
 3470 1000 033082E0 		add	r3, r2, r3
 3471 1004 0338A0E1 		mov	r3, r3, asl #16
 3472 1008 2338A0E1 		mov	r3, r3, lsr #16
 3473 100c B0314BE1 		strh	r3, [fp, #-16]	@ movhi
 264:../lcd.c      ****                 wNextx -= x_sign;
 3474              		.loc 1 264 0
 3475 1010 B4215BE1 		ldrh	r2, [fp, #-20]
 3476 1014 B2325BE1 		ldrh	r3, [fp, #-34]
 3477 1018 023063E0 		rsb	r3, r3, r2
 3478 101c 0338A0E1 		mov	r3, r3, asl #16
 3479 1020 2338A0E1 		mov	r3, r3, lsr #16
 3480 1024 B4314BE1 		strh	r3, [fp, #-20]	@ movhi
 3481              	.L53:
 265:../lcd.c      ****             }
 266:../lcd.c      ****             for( wpx = wCurx - usWidth / 2;
 3482              		.loc 1 266 0
 3483 1028 B0215BE1 		ldrh	r2, [fp, #-16]
 3484 102c B830DBE1 		ldrh	r3, [fp, #8]
 3485 1030 A330A0E1 		mov	r3, r3, lsr #1
 3486 1034 0338A0E1 		mov	r3, r3, asl #16
 3487 1038 2338A0E1 		mov	r3, r3, lsr #16
 3488 103c 023063E0 		rsb	r3, r3, r2
 3489 1040 0338A0E1 		mov	r3, r3, asl #16
 3490 1044 2338A0E1 		mov	r3, r3, lsr #16
 3491 1048 BA314BE1 		strh	r3, [fp, #-26]	@ movhi
 3492 104c 4D0000EA 		b	.L54
 3493              	.L55:
 267:../lcd.c      ****                  wpx <= wCurx + usWidth / 2; wpx++ )
 268:../lcd.c      ****             {
 269:../lcd.c      ****                 (LCD_PutPixel(wpx, wCury, ucColor));
 3494              		.loc 1 269 0
 3495 1050 F2215BE1 		ldrsh	r2, [fp, #-18]
 3496 1054 0230A0E1 		mov	r3, r2
 3497 1058 0331A0E1 		mov	r3, r3, asl #2
 3498 105c 023083E0 		add	r3, r3, r2
 3499 1060 0333A0E1 		mov	r3, r3, asl #6
 3500 1064 A32FA0E1 		mov	r2, r3, lsr #31
 3501 1068 033082E0 		add	r3, r2, r3
 3502 106c C330A0E1 		mov	r3, r3, asr #1
 3503 1070 C32683E2 		add	r2, r3, #204472320
 3504 1074 962C82E2 		add	r2, r2, #38400
 3505 1078 FA315BE1 		ldrsh	r3, [fp, #-26]
 3506 107c 071083E2 		add	r1, r3, #7
 3507 1080 000053E3 		cmp	r3, #0
 3508 1084 0130A0B1 		movlt	r3, r1
 3509 1088 C331A0E1 		mov	r3, r3, asr #3
 3510 108c 0338A0E1 		mov	r3, r3, asl #16
 3511 1090 2338A0E1 		mov	r3, r3, lsr #16
 3512 1094 0338A0E1 		mov	r3, r3, asl #16
 3513 1098 4338A0E1 		mov	r3, r3, asr #16
 3514 109c 0331A0E1 		mov	r3, r3, asl #2
 3515 10a0 033082E0 		add	r3, r2, r3
 3516 10a4 0310A0E1 		mov	r1, r3
 3517 10a8 F2215BE1 		ldrsh	r2, [fp, #-18]
 3518 10ac 0230A0E1 		mov	r3, r2
 3519 10b0 0331A0E1 		mov	r3, r3, asl #2
 3520 10b4 023083E0 		add	r3, r3, r2
 3521 10b8 0333A0E1 		mov	r3, r3, asl #6
 3522 10bc A32FA0E1 		mov	r2, r3, lsr #31
 3523 10c0 033082E0 		add	r3, r2, r3
 3524 10c4 C330A0E1 		mov	r3, r3, asr #1
 3525 10c8 C32683E2 		add	r2, r3, #204472320
 3526 10cc 962C82E2 		add	r2, r2, #38400
 3527 10d0 FA315BE1 		ldrsh	r3, [fp, #-26]
 3528 10d4 070083E2 		add	r0, r3, #7
 3529 10d8 000053E3 		cmp	r3, #0
 3530 10dc 0030A0B1 		movlt	r3, r0
 3531 10e0 C331A0E1 		mov	r3, r3, asr #3
 3532 10e4 0338A0E1 		mov	r3, r3, asl #16
 3533 10e8 2338A0E1 		mov	r3, r3, lsr #16
 3534 10ec 0338A0E1 		mov	r3, r3, asl #16
 3535 10f0 4338A0E1 		mov	r3, r3, asr #16
 3536 10f4 0331A0E1 		mov	r3, r3, asl #2
 3537 10f8 033082E0 		add	r3, r2, r3
 3538 10fc 000093E5 		ldr	r0, [r3, #0]
 3539 1100 FA215BE1 		ldrsh	r2, [fp, #-26]
 3540 1104 C23FA0E1 		mov	r3, r2, asr #31
 3541 1108 A33EA0E1 		mov	r3, r3, lsr #29
 3542 110c 032082E0 		add	r2, r2, r3
 3543 1110 072002E2 		and	r2, r2, #7
 3544 1114 023063E0 		rsb	r3, r3, r2
 3545 1118 0338A0E1 		mov	r3, r3, asl #16
 3546 111c 2338A0E1 		mov	r3, r3, lsr #16
 3547 1120 0338A0E1 		mov	r3, r3, asl #16
 3548 1124 4338A0E1 		mov	r3, r3, asr #16
 3549 1128 0331A0E1 		mov	r3, r3, asl #2
 3550 112c 0F22A0E3 		mov	r2, #-268435456
 3551 1130 3233A0E1 		mov	r3, r2, lsr r3
 3552 1134 0330E0E1 		mvn	r3, r3
 3553 1138 030000E0 		and	r0, r0, r3
 3554 113c 04C0DBE5 		ldrb	ip, [fp, #4]	@ zero_extendqisi2
 3555 1140 FA215BE1 		ldrsh	r2, [fp, #-26]
 3556 1144 C23FA0E1 		mov	r3, r2, asr #31
 3557 1148 A33EA0E1 		mov	r3, r3, lsr #29
 3558 114c 032082E0 		add	r2, r2, r3
 3559 1150 072002E2 		and	r2, r2, #7
 3560 1154 023063E0 		rsb	r3, r3, r2
 3561 1158 0338A0E1 		mov	r3, r3, asl #16
 3562 115c 2338A0E1 		mov	r3, r3, lsr #16
 3563 1160 0338A0E1 		mov	r3, r3, asl #16
 3564 1164 4338A0E1 		mov	r3, r3, asr #16
 3565 1168 073063E2 		rsb	r3, r3, #7
 3566 116c 0331A0E1 		mov	r3, r3, asl #2
 3567 1170 1C33A0E1 		mov	r3, ip, asl r3
 3568 1174 033080E1 		orr	r3, r0, r3
 3569 1178 003081E5 		str	r3, [r1, #0]
 267:../lcd.c      ****                  wpx <= wCurx + usWidth / 2; wpx++ )
 3570              		.loc 1 267 0
 3571 117c BA315BE1 		ldrh	r3, [fp, #-26]	@ movhi
 3572 1180 013083E2 		add	r3, r3, #1
 3573 1184 BA314BE1 		strh	r3, [fp, #-26]	@ movhi
 3574              	.L54:
 267:../lcd.c      ****                  wpx <= wCurx + usWidth / 2; wpx++ )
 3575              		.loc 1 267 0 is_stmt 0 discriminator 1
 3576 1188 FA215BE1 		ldrsh	r2, [fp, #-26]
 3577 118c F0115BE1 		ldrsh	r1, [fp, #-16]
 3578 1190 B830DBE1 		ldrh	r3, [fp, #8]
 3579 1194 A330A0E1 		mov	r3, r3, lsr #1
 3580 1198 0338A0E1 		mov	r3, r3, asl #16
 3581 119c 2338A0E1 		mov	r3, r3, lsr #16
 3582 11a0 033081E0 		add	r3, r1, r3
 266:../lcd.c      ****             for( wpx = wCurx - usWidth / 2;
 3583              		.loc 1 266 0 is_stmt 1 discriminator 1
 3584 11a4 030052E1 		cmp	r2, r3
 3585 11a8 A8FFFFDA 		ble	.L55
 270:../lcd.c      ****             }
 271:../lcd.c      **** 
 272:../lcd.c      ****             for( wpx = wNextx - usWidth / 2;
 3586              		.loc 1 272 0
 3587 11ac B4215BE1 		ldrh	r2, [fp, #-20]
 3588 11b0 B830DBE1 		ldrh	r3, [fp, #8]
 3589 11b4 A330A0E1 		mov	r3, r3, lsr #1
 3590 11b8 0338A0E1 		mov	r3, r3, asl #16
 3591 11bc 2338A0E1 		mov	r3, r3, lsr #16
 3592 11c0 023063E0 		rsb	r3, r3, r2
 3593 11c4 0338A0E1 		mov	r3, r3, asl #16
 3594 11c8 2338A0E1 		mov	r3, r3, lsr #16
 3595 11cc BA314BE1 		strh	r3, [fp, #-26]	@ movhi
 3596 11d0 4D0000EA 		b	.L56
 3597              	.L57:
 273:../lcd.c      ****                  wpx <= wNextx + usWidth / 2; wpx++ )
 274:../lcd.c      ****             {
 275:../lcd.c      ****                 (LCD_PutPixel(wpx, wNexty, ucColor));
 3598              		.loc 1 275 0
 3599 11d4 F6215BE1 		ldrsh	r2, [fp, #-22]
 3600 11d8 0230A0E1 		mov	r3, r2
 3601 11dc 0331A0E1 		mov	r3, r3, asl #2
 3602 11e0 023083E0 		add	r3, r3, r2
 3603 11e4 0333A0E1 		mov	r3, r3, asl #6
 3604 11e8 A32FA0E1 		mov	r2, r3, lsr #31
 3605 11ec 033082E0 		add	r3, r2, r3
 3606 11f0 C330A0E1 		mov	r3, r3, asr #1
 3607 11f4 C32683E2 		add	r2, r3, #204472320
 3608 11f8 962C82E2 		add	r2, r2, #38400
 3609 11fc FA315BE1 		ldrsh	r3, [fp, #-26]
 3610 1200 071083E2 		add	r1, r3, #7
 3611 1204 000053E3 		cmp	r3, #0
 3612 1208 0130A0B1 		movlt	r3, r1
 3613 120c C331A0E1 		mov	r3, r3, asr #3
 3614 1210 0338A0E1 		mov	r3, r3, asl #16
 3615 1214 2338A0E1 		mov	r3, r3, lsr #16
 3616 1218 0338A0E1 		mov	r3, r3, asl #16
 3617 121c 4338A0E1 		mov	r3, r3, asr #16
 3618 1220 0331A0E1 		mov	r3, r3, asl #2
 3619 1224 033082E0 		add	r3, r2, r3
 3620 1228 0310A0E1 		mov	r1, r3
 3621 122c F6215BE1 		ldrsh	r2, [fp, #-22]
 3622 1230 0230A0E1 		mov	r3, r2
 3623 1234 0331A0E1 		mov	r3, r3, asl #2
 3624 1238 023083E0 		add	r3, r3, r2
 3625 123c 0333A0E1 		mov	r3, r3, asl #6
 3626 1240 A32FA0E1 		mov	r2, r3, lsr #31
 3627 1244 033082E0 		add	r3, r2, r3
 3628 1248 C330A0E1 		mov	r3, r3, asr #1
 3629 124c C32683E2 		add	r2, r3, #204472320
 3630 1250 962C82E2 		add	r2, r2, #38400
 3631 1254 FA315BE1 		ldrsh	r3, [fp, #-26]
 3632 1258 070083E2 		add	r0, r3, #7
 3633 125c 000053E3 		cmp	r3, #0
 3634 1260 0030A0B1 		movlt	r3, r0
 3635 1264 C331A0E1 		mov	r3, r3, asr #3
 3636 1268 0338A0E1 		mov	r3, r3, asl #16
 3637 126c 2338A0E1 		mov	r3, r3, lsr #16
 3638 1270 0338A0E1 		mov	r3, r3, asl #16
 3639 1274 4338A0E1 		mov	r3, r3, asr #16
 3640 1278 0331A0E1 		mov	r3, r3, asl #2
 3641 127c 033082E0 		add	r3, r2, r3
 3642 1280 000093E5 		ldr	r0, [r3, #0]
 3643 1284 FA215BE1 		ldrsh	r2, [fp, #-26]
 3644 1288 C23FA0E1 		mov	r3, r2, asr #31
 3645 128c A33EA0E1 		mov	r3, r3, lsr #29
 3646 1290 032082E0 		add	r2, r2, r3
 3647 1294 072002E2 		and	r2, r2, #7
 3648 1298 023063E0 		rsb	r3, r3, r2
 3649 129c 0338A0E1 		mov	r3, r3, asl #16
 3650 12a0 2338A0E1 		mov	r3, r3, lsr #16
 3651 12a4 0338A0E1 		mov	r3, r3, asl #16
 3652 12a8 4338A0E1 		mov	r3, r3, asr #16
 3653 12ac 0331A0E1 		mov	r3, r3, asl #2
 3654 12b0 0F22A0E3 		mov	r2, #-268435456
 3655 12b4 3233A0E1 		mov	r3, r2, lsr r3
 3656 12b8 0330E0E1 		mvn	r3, r3
 3657 12bc 030000E0 		and	r0, r0, r3
 3658 12c0 04C0DBE5 		ldrb	ip, [fp, #4]	@ zero_extendqisi2
 3659 12c4 FA215BE1 		ldrsh	r2, [fp, #-26]
 3660 12c8 C23FA0E1 		mov	r3, r2, asr #31
 3661 12cc A33EA0E1 		mov	r3, r3, lsr #29
 3662 12d0 032082E0 		add	r2, r2, r3
 3663 12d4 072002E2 		and	r2, r2, #7
 3664 12d8 023063E0 		rsb	r3, r3, r2
 3665 12dc 0338A0E1 		mov	r3, r3, asl #16
 3666 12e0 2338A0E1 		mov	r3, r3, lsr #16
 3667 12e4 0338A0E1 		mov	r3, r3, asl #16
 3668 12e8 4338A0E1 		mov	r3, r3, asr #16
 3669 12ec 073063E2 		rsb	r3, r3, #7
 3670 12f0 0331A0E1 		mov	r3, r3, asl #2
 3671 12f4 1C33A0E1 		mov	r3, ip, asl r3
 3672 12f8 033080E1 		orr	r3, r0, r3
 3673 12fc 003081E5 		str	r3, [r1, #0]
 273:../lcd.c      ****                  wpx <= wNextx + usWidth / 2; wpx++ )
 3674              		.loc 1 273 0
 3675 1300 BA315BE1 		ldrh	r3, [fp, #-26]	@ movhi
 3676 1304 013083E2 		add	r3, r3, #1
 3677 1308 BA314BE1 		strh	r3, [fp, #-26]	@ movhi
 3678              	.L56:
 273:../lcd.c      ****                  wpx <= wNextx + usWidth / 2; wpx++ )
 3679              		.loc 1 273 0 is_stmt 0 discriminator 1
 3680 130c FA215BE1 		ldrsh	r2, [fp, #-26]
 3681 1310 F4115BE1 		ldrsh	r1, [fp, #-20]
 3682 1314 B830DBE1 		ldrh	r3, [fp, #8]
 3683 1318 A330A0E1 		mov	r3, r3, lsr #1
 3684 131c 0338A0E1 		mov	r3, r3, asl #16
 3685 1320 2338A0E1 		mov	r3, r3, lsr #16
 3686 1324 033081E0 		add	r3, r1, r3
 272:../lcd.c      ****             for( wpx = wNextx - usWidth / 2;
 3687              		.loc 1 272 0 is_stmt 1 discriminator 1
 3688 1328 030052E1 		cmp	r2, r3
 3689 132c A8FFFFDA 		ble	.L57
 258:../lcd.c      ****              wCury <= wNexty; wCury++, wNexty--, decision += usDx )
 3690              		.loc 1 258 0
 3691 1330 B2315BE1 		ldrh	r3, [fp, #-18]	@ movhi
 3692 1334 013083E2 		add	r3, r3, #1
 3693 1338 B2314BE1 		strh	r3, [fp, #-18]	@ movhi
 3694 133c B6315BE1 		ldrh	r3, [fp, #-22]	@ movhi
 3695 1340 013043E2 		sub	r3, r3, #1
 3696 1344 B6314BE1 		strh	r3, [fp, #-22]	@ movhi
 3697 1348 BE205BE1 		ldrh	r2, [fp, #-14]
 3698 134c BC315BE1 		ldrh	r3, [fp, #-28]
 3699 1350 033082E0 		add	r3, r2, r3
 3700 1354 0338A0E1 		mov	r3, r3, asl #16
 3701 1358 2338A0E1 		mov	r3, r3, lsr #16
 3702 135c BE304BE1 		strh	r3, [fp, #-14]	@ movhi
 3703              	.L52:
 256:../lcd.c      ****         for( wCurx = usX0, wCury = usY0, wNextx = usX1,
 3704              		.loc 1 256 0 discriminator 1
 3705 1360 F2215BE1 		ldrsh	r2, [fp, #-18]
 3706 1364 F6315BE1 		ldrsh	r3, [fp, #-22]
 3707 1368 030052E1 		cmp	r2, r3
 3708 136c 17FFFFDA 		ble	.L58
 3709              	.L37:
 276:../lcd.c      ****             }
 277:../lcd.c      ****         }
 278:../lcd.c      ****     }
 279:../lcd.c      **** }
 3710              		.loc 1 279 0
 3711 1370 0CD04BE2 		sub	sp, fp, #12
 3712 1374 00689DE8 		ldmfd	sp, {fp, sp, lr}
 3713 1378 1EFF2FE1 		bx	lr
 3714              		.cfi_endproc
 3715              	.LFE6:
 3717              		.align	2
 3718              		.global	Lcd_Draw_HLine
 3720              	Lcd_Draw_HLine:
 3721              	.LFB7:
 280:../lcd.c      **** 
 281:../lcd.c      **** /*********************************************************************************************
 282:../lcd.c      **** * name:		Lcd_Draw_HLine()
 283:../lcd.c      **** * func:		Draw horizontal line with appointed color
 284:../lcd.c      **** * para:		usX0,usY0 -- line's start point coordinate
 285:../lcd.c      **** *			usX1 -- line's end point X-coordinate
 286:../lcd.c      **** *			ucColor -- appointed color value
 287:../lcd.c      **** *			usWidth -- line's width
 288:../lcd.c      **** * ret:		none
 289:../lcd.c      **** * modify:
 290:../lcd.c      **** * comment:		
 291:../lcd.c      **** *********************************************************************************************/
 292:../lcd.c      **** void Lcd_Draw_HLine(INT16 usX0, INT16 usX1, INT16 usY0, INT8U ucColor, INT16U usWidth)
 293:../lcd.c      **** {
 3722              		.loc 1 293 0
 3723              		.cfi_startproc
 3724              		@ Function supports interworking.
 3725              		@ args = 4, pretend = 0, frame = 16
 3726              		@ frame_needed = 1, uses_anonymous_args = 0
 3727 137c 0DC0A0E1 		mov	ip, sp
 3728              	.LCFI14:
 3729              		.cfi_def_cfa_register 12
 3730 1380 00D82DE9 		stmfd	sp!, {fp, ip, lr, pc}
 3731 1384 04B04CE2 		sub	fp, ip, #4
 3732              		.cfi_offset 14, -8
 3733              		.cfi_offset 13, -12
 3734              		.cfi_offset 11, -16
 3735              	.LCFI15:
 3736              		.cfi_def_cfa 11, 4
 3737 1388 10D04DE2 		sub	sp, sp, #16
 3738 138c B6014BE1 		strh	r0, [fp, #-22]	@ movhi
 3739 1390 B8114BE1 		strh	r1, [fp, #-24]	@ movhi
 3740 1394 BA214BE1 		strh	r2, [fp, #-26]	@ movhi
 3741 1398 1B304BE5 		strb	r3, [fp, #-27]
 294:../lcd.c      **** 	INT16 usLen;
 295:../lcd.c      **** 
 296:../lcd.c      ****     if( usX1 < usX0 )
 3742              		.loc 1 296 0
 3743 139c F8215BE1 		ldrsh	r2, [fp, #-24]
 3744 13a0 F6315BE1 		ldrsh	r3, [fp, #-22]
 3745 13a4 030052E1 		cmp	r2, r3
 3746 13a8 670000AA 		bge	.L65
 297:../lcd.c      ****     {
 298:../lcd.c      ****         GUISWAP (usX1, usX0);
 3747              		.loc 1 298 0
 3748 13ac B8215BE1 		ldrh	r2, [fp, #-24]	@ movhi
 3749 13b0 B6315BE1 		ldrh	r3, [fp, #-22]	@ movhi
 3750 13b4 033022E0 		eor	r3, r2, r3
 3751 13b8 B8314BE1 		strh	r3, [fp, #-24]	@ movhi
 3752 13bc B6215BE1 		ldrh	r2, [fp, #-22]	@ movhi
 3753 13c0 B8315BE1 		ldrh	r3, [fp, #-24]	@ movhi
 3754 13c4 033022E0 		eor	r3, r2, r3
 3755 13c8 B6314BE1 		strh	r3, [fp, #-22]	@ movhi
 3756 13cc B8215BE1 		ldrh	r2, [fp, #-24]	@ movhi
 3757 13d0 B6315BE1 		ldrh	r3, [fp, #-22]	@ movhi
 3758 13d4 033022E0 		eor	r3, r2, r3
 3759 13d8 B8314BE1 		strh	r3, [fp, #-24]	@ movhi
 299:../lcd.c      ****     }
 300:../lcd.c      **** 
 301:../lcd.c      ****     while( (usWidth--) > 0 )
 3760              		.loc 1 301 0
 3761 13dc 5B0000EA 		b	.L61
 3762              	.L64:
 302:../lcd.c      ****     {
 303:../lcd.c      ****         usLen = usX1 - usX0 + 1;
 3763              		.loc 1 303 0
 3764 13e0 B8215BE1 		ldrh	r2, [fp, #-24]
 3765 13e4 B6315BE1 		ldrh	r3, [fp, #-22]
 3766 13e8 023063E0 		rsb	r3, r3, r2
 3767 13ec 0338A0E1 		mov	r3, r3, asl #16
 3768 13f0 2338A0E1 		mov	r3, r3, lsr #16
 3769 13f4 013083E2 		add	r3, r3, #1
 3770 13f8 0338A0E1 		mov	r3, r3, asl #16
 3771 13fc 2338A0E1 		mov	r3, r3, lsr #16
 3772 1400 BE304BE1 		strh	r3, [fp, #-14]	@ movhi
 304:../lcd.c      ****         while( (usLen--) > 0 )
 3773              		.loc 1 304 0
 3774 1404 420000EA 		b	.L62
 3775              	.L63:
 305:../lcd.c      ****         {
 306:../lcd.c      ****         	(LCD_PutPixel(usX0 + usLen, usY0, ucColor));
 3776              		.loc 1 306 0
 3777 1408 FA215BE1 		ldrsh	r2, [fp, #-26]
 3778 140c 0230A0E1 		mov	r3, r2
 3779 1410 0331A0E1 		mov	r3, r3, asl #2
 3780 1414 023083E0 		add	r3, r3, r2
 3781 1418 0333A0E1 		mov	r3, r3, asl #6
 3782 141c A32FA0E1 		mov	r2, r3, lsr #31
 3783 1420 033082E0 		add	r3, r2, r3
 3784 1424 C330A0E1 		mov	r3, r3, asr #1
 3785 1428 C32683E2 		add	r2, r3, #204472320
 3786 142c 962C82E2 		add	r2, r2, #38400
 3787 1430 F6115BE1 		ldrsh	r1, [fp, #-22]
 3788 1434 FE305BE1 		ldrsh	r3, [fp, #-14]
 3789 1438 033081E0 		add	r3, r1, r3
 3790 143c 071083E2 		add	r1, r3, #7
 3791 1440 000053E3 		cmp	r3, #0
 3792 1444 0130A0B1 		movlt	r3, r1
 3793 1448 C331A0E1 		mov	r3, r3, asr #3
 3794 144c 0331A0E1 		mov	r3, r3, asl #2
 3795 1450 033082E0 		add	r3, r2, r3
 3796 1454 0310A0E1 		mov	r1, r3
 3797 1458 FA215BE1 		ldrsh	r2, [fp, #-26]
 3798 145c 0230A0E1 		mov	r3, r2
 3799 1460 0331A0E1 		mov	r3, r3, asl #2
 3800 1464 023083E0 		add	r3, r3, r2
 3801 1468 0333A0E1 		mov	r3, r3, asl #6
 3802 146c A32FA0E1 		mov	r2, r3, lsr #31
 3803 1470 033082E0 		add	r3, r2, r3
 3804 1474 C330A0E1 		mov	r3, r3, asr #1
 3805 1478 C32683E2 		add	r2, r3, #204472320
 3806 147c 962C82E2 		add	r2, r2, #38400
 3807 1480 F6015BE1 		ldrsh	r0, [fp, #-22]
 3808 1484 FE305BE1 		ldrsh	r3, [fp, #-14]
 3809 1488 033080E0 		add	r3, r0, r3
 3810 148c 070083E2 		add	r0, r3, #7
 3811 1490 000053E3 		cmp	r3, #0
 3812 1494 0030A0B1 		movlt	r3, r0
 3813 1498 C331A0E1 		mov	r3, r3, asr #3
 3814 149c 0331A0E1 		mov	r3, r3, asl #2
 3815 14a0 033082E0 		add	r3, r2, r3
 3816 14a4 000093E5 		ldr	r0, [r3, #0]
 3817 14a8 F6215BE1 		ldrsh	r2, [fp, #-22]
 3818 14ac FE305BE1 		ldrsh	r3, [fp, #-14]
 3819 14b0 032082E0 		add	r2, r2, r3
 3820 14b4 C23FA0E1 		mov	r3, r2, asr #31
 3821 14b8 A33EA0E1 		mov	r3, r3, lsr #29
 3822 14bc 032082E0 		add	r2, r2, r3
 3823 14c0 072002E2 		and	r2, r2, #7
 3824 14c4 023063E0 		rsb	r3, r3, r2
 3825 14c8 0331A0E1 		mov	r3, r3, asl #2
 3826 14cc 0F22A0E3 		mov	r2, #-268435456
 3827 14d0 3233A0E1 		mov	r3, r2, lsr r3
 3828 14d4 0330E0E1 		mvn	r3, r3
 3829 14d8 030000E0 		and	r0, r0, r3
 3830 14dc 1BC05BE5 		ldrb	ip, [fp, #-27]	@ zero_extendqisi2
 3831 14e0 F6215BE1 		ldrsh	r2, [fp, #-22]
 3832 14e4 FE305BE1 		ldrsh	r3, [fp, #-14]
 3833 14e8 032082E0 		add	r2, r2, r3
 3834 14ec C23FA0E1 		mov	r3, r2, asr #31
 3835 14f0 A33EA0E1 		mov	r3, r3, lsr #29
 3836 14f4 032082E0 		add	r2, r2, r3
 3837 14f8 072002E2 		and	r2, r2, #7
 3838 14fc 023063E0 		rsb	r3, r3, r2
 3839 1500 073063E2 		rsb	r3, r3, #7
 3840 1504 0331A0E1 		mov	r3, r3, asl #2
 3841 1508 1C33A0E1 		mov	r3, ip, asl r3
 3842 150c 033080E1 		orr	r3, r0, r3
 3843 1510 003081E5 		str	r3, [r1, #0]
 3844              	.L62:
 304:../lcd.c      ****         while( (usLen--) > 0 )
 3845              		.loc 1 304 0 discriminator 1
 3846 1514 FE305BE1 		ldrsh	r3, [fp, #-14]
 3847 1518 000053E3 		cmp	r3, #0
 3848 151c 0030A0D3 		movle	r3, #0
 3849 1520 0130A0C3 		movgt	r3, #1
 3850 1524 FF3003E2 		and	r3, r3, #255
 3851 1528 BE205BE1 		ldrh	r2, [fp, #-14]	@ movhi
 3852 152c 012042E2 		sub	r2, r2, #1
 3853 1530 BE204BE1 		strh	r2, [fp, #-14]	@ movhi
 3854 1534 000053E3 		cmp	r3, #0
 3855 1538 B2FFFF1A 		bne	.L63
 307:../lcd.c      ****         }
 308:../lcd.c      ****         usY0++;
 3856              		.loc 1 308 0
 3857 153c BA315BE1 		ldrh	r3, [fp, #-26]	@ movhi
 3858 1540 013083E2 		add	r3, r3, #1
 3859 1544 BA314BE1 		strh	r3, [fp, #-26]	@ movhi
 3860 1548 000000EA 		b	.L61
 3861              	.L65:
 301:../lcd.c      ****     while( (usWidth--) > 0 )
 3862              		.loc 1 301 0
 3863 154c 0000A0E1 		mov	r0, r0	@ nop
 3864              	.L61:
 301:../lcd.c      ****     while( (usWidth--) > 0 )
 3865              		.loc 1 301 0 is_stmt 0 discriminator 1
 3866 1550 B430DBE1 		ldrh	r3, [fp, #4]
 3867 1554 000053E3 		cmp	r3, #0
 3868 1558 0030A003 		moveq	r3, #0
 3869 155c 0130A013 		movne	r3, #1
 3870 1560 FF3003E2 		and	r3, r3, #255
 3871 1564 B420DBE1 		ldrh	r2, [fp, #4]	@ movhi
 3872 1568 012042E2 		sub	r2, r2, #1
 3873 156c B420CBE1 		strh	r2, [fp, #4]	@ movhi
 3874 1570 000053E3 		cmp	r3, #0
 3875 1574 99FFFF1A 		bne	.L64
 309:../lcd.c      ****     }
 310:../lcd.c      **** }
 3876              		.loc 1 310 0 is_stmt 1
 3877 1578 0CD04BE2 		sub	sp, fp, #12
 3878 157c 00689DE8 		ldmfd	sp, {fp, sp, lr}
 3879 1580 1EFF2FE1 		bx	lr
 3880              		.cfi_endproc
 3881              	.LFE7:
 3883              		.align	2
 3884              		.global	Lcd_Draw_VLine
 3886              	Lcd_Draw_VLine:
 3887              	.LFB8:
 311:../lcd.c      **** 
 312:../lcd.c      **** /*********************************************************************************************
 313:../lcd.c      **** * name:		Lcd_Draw_VLine()
 314:../lcd.c      **** * func:		Draw vertical line with appointed color
 315:../lcd.c      **** * para:		usX0,usY0 -- line's start point coordinate
 316:../lcd.c      **** *			usY1 -- line's end point Y-coordinate
 317:../lcd.c      **** *			ucColor -- appointed color value
 318:../lcd.c      **** *			usWidth -- line's width
 319:../lcd.c      **** * ret:		none
 320:../lcd.c      **** * modify:
 321:../lcd.c      **** * comment:		
 322:../lcd.c      **** *********************************************************************************************/
 323:../lcd.c      **** void Lcd_Draw_VLine (INT16 usY0, INT16 usY1, INT16 usX0, INT8U ucColor, INT16U usWidth)
 324:../lcd.c      **** {
 3888              		.loc 1 324 0
 3889              		.cfi_startproc
 3890              		@ Function supports interworking.
 3891              		@ args = 4, pretend = 0, frame = 16
 3892              		@ frame_needed = 1, uses_anonymous_args = 0
 3893 1584 0DC0A0E1 		mov	ip, sp
 3894              	.LCFI16:
 3895              		.cfi_def_cfa_register 12
 3896 1588 00D82DE9 		stmfd	sp!, {fp, ip, lr, pc}
 3897 158c 04B04CE2 		sub	fp, ip, #4
 3898              		.cfi_offset 14, -8
 3899              		.cfi_offset 13, -12
 3900              		.cfi_offset 11, -16
 3901              	.LCFI17:
 3902              		.cfi_def_cfa 11, 4
 3903 1590 10D04DE2 		sub	sp, sp, #16
 3904 1594 B6014BE1 		strh	r0, [fp, #-22]	@ movhi
 3905 1598 B8114BE1 		strh	r1, [fp, #-24]	@ movhi
 3906 159c BA214BE1 		strh	r2, [fp, #-26]	@ movhi
 3907 15a0 1B304BE5 		strb	r3, [fp, #-27]
 325:../lcd.c      **** 	INT16 usLen;
 326:../lcd.c      **** 
 327:../lcd.c      ****     if( usY1 < usY0 )
 3908              		.loc 1 327 0
 3909 15a4 F8215BE1 		ldrsh	r2, [fp, #-24]
 3910 15a8 F6315BE1 		ldrsh	r3, [fp, #-22]
 3911 15ac 030052E1 		cmp	r2, r3
 3912 15b0 730000AA 		bge	.L72
 328:../lcd.c      ****     {
 329:../lcd.c      ****         GUISWAP (usY1, usY0);
 3913              		.loc 1 329 0
 3914 15b4 B8215BE1 		ldrh	r2, [fp, #-24]	@ movhi
 3915 15b8 B6315BE1 		ldrh	r3, [fp, #-22]	@ movhi
 3916 15bc 033022E0 		eor	r3, r2, r3
 3917 15c0 B8314BE1 		strh	r3, [fp, #-24]	@ movhi
 3918 15c4 B6215BE1 		ldrh	r2, [fp, #-22]	@ movhi
 3919 15c8 B8315BE1 		ldrh	r3, [fp, #-24]	@ movhi
 3920 15cc 033022E0 		eor	r3, r2, r3
 3921 15d0 B6314BE1 		strh	r3, [fp, #-22]	@ movhi
 3922 15d4 B8215BE1 		ldrh	r2, [fp, #-24]	@ movhi
 3923 15d8 B6315BE1 		ldrh	r3, [fp, #-22]	@ movhi
 3924 15dc 033022E0 		eor	r3, r2, r3
 3925 15e0 B8314BE1 		strh	r3, [fp, #-24]	@ movhi
 330:../lcd.c      ****     }
 331:../lcd.c      **** 
 332:../lcd.c      ****     while( (usWidth--) > 0 )
 3926              		.loc 1 332 0
 3927 15e4 670000EA 		b	.L68
 3928              	.L71:
 333:../lcd.c      ****     {
 334:../lcd.c      ****         usLen = usY1 - usY0 + 1;
 3929              		.loc 1 334 0
 3930 15e8 B8215BE1 		ldrh	r2, [fp, #-24]
 3931 15ec B6315BE1 		ldrh	r3, [fp, #-22]
 3932 15f0 023063E0 		rsb	r3, r3, r2
 3933 15f4 0338A0E1 		mov	r3, r3, asl #16
 3934 15f8 2338A0E1 		mov	r3, r3, lsr #16
 3935 15fc 013083E2 		add	r3, r3, #1
 3936 1600 0338A0E1 		mov	r3, r3, asl #16
 3937 1604 2338A0E1 		mov	r3, r3, lsr #16
 3938 1608 BE304BE1 		strh	r3, [fp, #-14]	@ movhi
 335:../lcd.c      ****         while( (usLen--) > 0 )
 3939              		.loc 1 335 0
 3940 160c 4E0000EA 		b	.L69
 3941              	.L70:
 336:../lcd.c      ****         {
 337:../lcd.c      ****         	(LCD_PutPixel(usX0, usY0 + usLen, ucColor));
 3942              		.loc 1 337 0
 3943 1610 F6215BE1 		ldrsh	r2, [fp, #-22]
 3944 1614 FE305BE1 		ldrsh	r3, [fp, #-14]
 3945 1618 032082E0 		add	r2, r2, r3
 3946 161c 0230A0E1 		mov	r3, r2
 3947 1620 0331A0E1 		mov	r3, r3, asl #2
 3948 1624 023083E0 		add	r3, r3, r2
 3949 1628 0333A0E1 		mov	r3, r3, asl #6
 3950 162c A32FA0E1 		mov	r2, r3, lsr #31
 3951 1630 033082E0 		add	r3, r2, r3
 3952 1634 C330A0E1 		mov	r3, r3, asr #1
 3953 1638 C32683E2 		add	r2, r3, #204472320
 3954 163c 962C82E2 		add	r2, r2, #38400
 3955 1640 FA315BE1 		ldrsh	r3, [fp, #-26]
 3956 1644 071083E2 		add	r1, r3, #7
 3957 1648 000053E3 		cmp	r3, #0
 3958 164c 0130A0B1 		movlt	r3, r1
 3959 1650 C331A0E1 		mov	r3, r3, asr #3
 3960 1654 0338A0E1 		mov	r3, r3, asl #16
 3961 1658 2338A0E1 		mov	r3, r3, lsr #16
 3962 165c 0338A0E1 		mov	r3, r3, asl #16
 3963 1660 4338A0E1 		mov	r3, r3, asr #16
 3964 1664 0331A0E1 		mov	r3, r3, asl #2
 3965 1668 033082E0 		add	r3, r2, r3
 3966 166c 0310A0E1 		mov	r1, r3
 3967 1670 F6215BE1 		ldrsh	r2, [fp, #-22]
 3968 1674 FE305BE1 		ldrsh	r3, [fp, #-14]
 3969 1678 032082E0 		add	r2, r2, r3
 3970 167c 0230A0E1 		mov	r3, r2
 3971 1680 0331A0E1 		mov	r3, r3, asl #2
 3972 1684 023083E0 		add	r3, r3, r2
 3973 1688 0333A0E1 		mov	r3, r3, asl #6
 3974 168c A32FA0E1 		mov	r2, r3, lsr #31
 3975 1690 033082E0 		add	r3, r2, r3
 3976 1694 C330A0E1 		mov	r3, r3, asr #1
 3977 1698 C32683E2 		add	r2, r3, #204472320
 3978 169c 962C82E2 		add	r2, r2, #38400
 3979 16a0 FA315BE1 		ldrsh	r3, [fp, #-26]
 3980 16a4 070083E2 		add	r0, r3, #7
 3981 16a8 000053E3 		cmp	r3, #0
 3982 16ac 0030A0B1 		movlt	r3, r0
 3983 16b0 C331A0E1 		mov	r3, r3, asr #3
 3984 16b4 0338A0E1 		mov	r3, r3, asl #16
 3985 16b8 2338A0E1 		mov	r3, r3, lsr #16
 3986 16bc 0338A0E1 		mov	r3, r3, asl #16
 3987 16c0 4338A0E1 		mov	r3, r3, asr #16
 3988 16c4 0331A0E1 		mov	r3, r3, asl #2
 3989 16c8 033082E0 		add	r3, r2, r3
 3990 16cc 000093E5 		ldr	r0, [r3, #0]
 3991 16d0 FA215BE1 		ldrsh	r2, [fp, #-26]
 3992 16d4 C23FA0E1 		mov	r3, r2, asr #31
 3993 16d8 A33EA0E1 		mov	r3, r3, lsr #29
 3994 16dc 032082E0 		add	r2, r2, r3
 3995 16e0 072002E2 		and	r2, r2, #7
 3996 16e4 023063E0 		rsb	r3, r3, r2
 3997 16e8 0338A0E1 		mov	r3, r3, asl #16
 3998 16ec 2338A0E1 		mov	r3, r3, lsr #16
 3999 16f0 0338A0E1 		mov	r3, r3, asl #16
 4000 16f4 4338A0E1 		mov	r3, r3, asr #16
 4001 16f8 0331A0E1 		mov	r3, r3, asl #2
 4002 16fc 0F22A0E3 		mov	r2, #-268435456
 4003 1700 3233A0E1 		mov	r3, r2, lsr r3
 4004 1704 0330E0E1 		mvn	r3, r3
 4005 1708 030000E0 		and	r0, r0, r3
 4006 170c 1BC05BE5 		ldrb	ip, [fp, #-27]	@ zero_extendqisi2
 4007 1710 FA215BE1 		ldrsh	r2, [fp, #-26]
 4008 1714 C23FA0E1 		mov	r3, r2, asr #31
 4009 1718 A33EA0E1 		mov	r3, r3, lsr #29
 4010 171c 032082E0 		add	r2, r2, r3
 4011 1720 072002E2 		and	r2, r2, #7
 4012 1724 023063E0 		rsb	r3, r3, r2
 4013 1728 0338A0E1 		mov	r3, r3, asl #16
 4014 172c 2338A0E1 		mov	r3, r3, lsr #16
 4015 1730 0338A0E1 		mov	r3, r3, asl #16
 4016 1734 4338A0E1 		mov	r3, r3, asr #16
 4017 1738 073063E2 		rsb	r3, r3, #7
 4018 173c 0331A0E1 		mov	r3, r3, asl #2
 4019 1740 1C33A0E1 		mov	r3, ip, asl r3
 4020 1744 033080E1 		orr	r3, r0, r3
 4021 1748 003081E5 		str	r3, [r1, #0]
 4022              	.L69:
 335:../lcd.c      ****         while( (usLen--) > 0 )
 4023              		.loc 1 335 0 discriminator 1
 4024 174c FE305BE1 		ldrsh	r3, [fp, #-14]
 4025 1750 000053E3 		cmp	r3, #0
 4026 1754 0030A0D3 		movle	r3, #0
 4027 1758 0130A0C3 		movgt	r3, #1
 4028 175c FF3003E2 		and	r3, r3, #255
 4029 1760 BE205BE1 		ldrh	r2, [fp, #-14]	@ movhi
 4030 1764 012042E2 		sub	r2, r2, #1
 4031 1768 BE204BE1 		strh	r2, [fp, #-14]	@ movhi
 4032 176c 000053E3 		cmp	r3, #0
 4033 1770 A6FFFF1A 		bne	.L70
 338:../lcd.c      ****         }
 339:../lcd.c      ****         usX0++;
 4034              		.loc 1 339 0
 4035 1774 BA315BE1 		ldrh	r3, [fp, #-26]	@ movhi
 4036 1778 013083E2 		add	r3, r3, #1
 4037 177c BA314BE1 		strh	r3, [fp, #-26]	@ movhi
 4038 1780 000000EA 		b	.L68
 4039              	.L72:
 332:../lcd.c      ****     while( (usWidth--) > 0 )
 4040              		.loc 1 332 0
 4041 1784 0000A0E1 		mov	r0, r0	@ nop
 4042              	.L68:
 332:../lcd.c      ****     while( (usWidth--) > 0 )
 4043              		.loc 1 332 0 is_stmt 0 discriminator 1
 4044 1788 B430DBE1 		ldrh	r3, [fp, #4]
 4045 178c 000053E3 		cmp	r3, #0
 4046 1790 0030A003 		moveq	r3, #0
 4047 1794 0130A013 		movne	r3, #1
 4048 1798 FF3003E2 		and	r3, r3, #255
 4049 179c B420DBE1 		ldrh	r2, [fp, #4]	@ movhi
 4050 17a0 012042E2 		sub	r2, r2, #1
 4051 17a4 B420CBE1 		strh	r2, [fp, #4]	@ movhi
 4052 17a8 000053E3 		cmp	r3, #0
 4053 17ac 8DFFFF1A 		bne	.L71
 340:../lcd.c      ****     }
 341:../lcd.c      **** }
 4054              		.loc 1 341 0 is_stmt 1
 4055 17b0 0CD04BE2 		sub	sp, fp, #12
 4056 17b4 00689DE8 		ldmfd	sp, {fp, sp, lr}
 4057 17b8 1EFF2FE1 		bx	lr
 4058              		.cfi_endproc
 4059              	.LFE8:
 4061              		.align	2
 4062              		.global	Lcd_DisplayString
 4064              	Lcd_DisplayString:
 4065              	.LFB9:
 342:../lcd.c      **** 
 343:../lcd.c      **** void Lcd_DisplayString(INT16U usX0, INT16U usY0, INT8U *pucStr){
 4066              		.loc 1 343 0
 4067              		.cfi_startproc
 4068              		@ Function supports interworking.
 4069              		@ args = 0, pretend = 0, frame = 8
 4070              		@ frame_needed = 1, uses_anonymous_args = 0
 4071 17bc 0DC0A0E1 		mov	ip, sp
 4072              	.LCFI18:
 4073              		.cfi_def_cfa_register 12
 4074 17c0 00D82DE9 		stmfd	sp!, {fp, ip, lr, pc}
 4075 17c4 04B04CE2 		sub	fp, ip, #4
 4076              		.cfi_offset 14, -8
 4077              		.cfi_offset 13, -12
 4078              		.cfi_offset 11, -16
 4079              	.LCFI19:
 4080              		.cfi_def_cfa 11, 4
 4081 17c8 08D04DE2 		sub	sp, sp, #8
 4082 17cc 0130A0E1 		mov	r3, r1
 4083 17d0 14200BE5 		str	r2, [fp, #-20]
 4084 17d4 BE004BE1 		strh	r0, [fp, #-14]	@ movhi
 4085 17d8 B0314BE1 		strh	r3, [fp, #-16]	@ movhi
 344:../lcd.c      **** 
 345:../lcd.c      **** }
 4086              		.loc 1 345 0
 4087 17dc 0CD04BE2 		sub	sp, fp, #12
 4088 17e0 00689DE8 		ldmfd	sp, {fp, sp, lr}
 4089 17e4 1EFF2FE1 		bx	lr
 4090              		.cfi_endproc
 4091              	.LFE9:
 4093              		.align	2
 4094              		.global	Lcd_DspAscII8x16
 4096              	Lcd_DspAscII8x16:
 4097              	.LFB10:
 346:../lcd.c      **** 
 347:../lcd.c      **** /*********************************************************************************************
 348:../lcd.c      **** * name:		Lcd_DspAscII8x16()
 349:../lcd.c      **** * func:		display 8x16 ASCII character string 
 350:../lcd.c      **** * para:		usX0,usY0 -- ASCII character string's start point coordinate
 351:../lcd.c      **** *			ForeColor -- appointed color value
 352:../lcd.c      **** *			pucChar   -- ASCII character string
 353:../lcd.c      **** * ret:		none
 354:../lcd.c      **** * modify:
 355:../lcd.c      **** * comment:		
 356:../lcd.c      **** *********************************************************************************************/
 357:../lcd.c      **** void Lcd_DspAscII8x16(INT16U x0, INT16U y0, INT8U ForeColor, INT8U * s)
 358:../lcd.c      **** {
 4098              		.loc 1 358 0
 4099              		.cfi_startproc
 4100              		@ Function supports interworking.
 4101              		@ args = 0, pretend = 0, frame = 56
 4102              		@ frame_needed = 1, uses_anonymous_args = 0
 4103 17e8 0DC0A0E1 		mov	ip, sp
 4104              	.LCFI20:
 4105              		.cfi_def_cfa_register 12
 4106 17ec 10D82DE9 		stmfd	sp!, {r4, fp, ip, lr, pc}
 4107 17f0 04B04CE2 		sub	fp, ip, #4
 4108              		.cfi_offset 14, -8
 4109              		.cfi_offset 13, -12
 4110              		.cfi_offset 11, -16
 4111              		.cfi_offset 4, -20
 4112              	.LCFI21:
 4113              		.cfi_def_cfa 11, 4
 4114 17f4 3CD04DE2 		sub	sp, sp, #60
 4115 17f8 48300BE5 		str	r3, [fp, #-72]
 4116 17fc BE034BE1 		strh	r0, [fp, #-62]	@ movhi
 4117 1800 B0144BE1 		strh	r1, [fp, #-64]	@ movhi
 4118 1804 0230A0E1 		mov	r3, r2
 4119 1808 41304BE5 		strb	r3, [fp, #-65]
 359:../lcd.c      **** 	INT16 i,j,k,x,y,xx;
 360:../lcd.c      **** 	INT8U qm;
 361:../lcd.c      **** 	INT32U ulOffset;
 362:../lcd.c      **** 	INT8 ywbuf[16],temp[2];
 363:../lcd.c      ****     
 364:../lcd.c      **** 	for( i = 0; i < strlen((const char*)s); i++ )
 4120              		.loc 1 364 0
 4121 180c 0030A0E3 		mov	r3, #0
 4122 1810 B6314BE1 		strh	r3, [fp, #-22]	@ movhi
 4123 1814 AE0000EA 		b	.L75
 4124              	.L85:
 365:../lcd.c      **** 	{
 366:../lcd.c      **** 		if( (INT8U)*(s+i) >= 161 )
 4125              		.loc 1 366 0
 4126 1818 F6315BE1 		ldrsh	r3, [fp, #-22]
 4127 181c 48201BE5 		ldr	r2, [fp, #-72]
 4128 1820 033082E0 		add	r3, r2, r3
 4129 1824 0030D3E5 		ldrb	r3, [r3, #0]	@ zero_extendqisi2
 4130 1828 A00053E3 		cmp	r3, #160
 4131 182c 0700009A 		bls	.L76
 367:../lcd.c      **** 		{
 368:../lcd.c      **** 			temp[0] = *(s + i);
 4132              		.loc 1 368 0
 4133 1830 F6315BE1 		ldrsh	r3, [fp, #-22]
 4134 1834 48201BE5 		ldr	r2, [fp, #-72]
 4135 1838 033082E0 		add	r3, r2, r3
 4136 183c 0030D3E5 		ldrb	r3, [r3, #0]	@ zero_extendqisi2
 4137 1840 3C304BE5 		strb	r3, [fp, #-60]
 369:../lcd.c      **** 			temp[1] = '\0';
 4138              		.loc 1 369 0
 4139 1844 0030A0E3 		mov	r3, #0
 4140 1848 3B304BE5 		strb	r3, [fp, #-59]
 370:../lcd.c      **** 			return;
 4141              		.loc 1 370 0
 4142 184c A60000EA 		b	.L74
 4143              	.L76:
 371:../lcd.c      **** 		}
 372:../lcd.c      **** 		else
 373:../lcd.c      **** 		{
 374:../lcd.c      **** 			qm = *(s+i);
 4144              		.loc 1 374 0
 4145 1850 F6315BE1 		ldrsh	r3, [fp, #-22]
 4146 1854 48201BE5 		ldr	r2, [fp, #-72]
 4147 1858 033082E0 		add	r3, r2, r3
 4148 185c 0030D3E5 		ldrb	r3, [r3, #0]
 4149 1860 1D304BE5 		strb	r3, [fp, #-29]
 375:../lcd.c      **** 			ulOffset = (INT32U)(qm) * 16;		//Here to be changed tomorrow
 4150              		.loc 1 375 0
 4151 1864 1D305BE5 		ldrb	r3, [fp, #-29]	@ zero_extendqisi2
 4152 1868 0332A0E1 		mov	r3, r3, asl #4
 4153 186c 24300BE5 		str	r3, [fp, #-36]
 376:../lcd.c      **** 			for( j = 0; j < 16; j ++ )
 4154              		.loc 1 376 0
 4155 1870 0030A0E3 		mov	r3, #0
 4156 1874 B8314BE1 		strh	r3, [fp, #-24]	@ movhi
 4157 1878 0D0000EA 		b	.L78
 4158              	.L79:
 377:../lcd.c      **** 			{
 378:../lcd.c      **** 				ywbuf[j] = g_auc_Ascii8x16[ulOffset + j];
 4159              		.loc 1 378 0 discriminator 2
 4160 187c F8115BE1 		ldrsh	r1, [fp, #-24]
 4161 1880 F8215BE1 		ldrsh	r2, [fp, #-24]
 4162 1884 24301BE5 		ldr	r3, [fp, #-36]
 4163 1888 033082E0 		add	r3, r2, r3
 4164 188c 64229FE5 		ldr	r2, .L86
 4165 1890 0320D2E7 		ldrb	r2, [r2, r3]	@ zero_extendqisi2
 4166 1894 2330E0E3 		mvn	r3, #35
 4167 1898 14004BE2 		sub	r0, fp, #20
 4168 189c 011080E0 		add	r1, r0, r1
 4169 18a0 033081E0 		add	r3, r1, r3
 4170 18a4 0020C3E5 		strb	r2, [r3, #0]
 376:../lcd.c      **** 			for( j = 0; j < 16; j ++ )
 4171              		.loc 1 376 0 discriminator 2
 4172 18a8 B8315BE1 		ldrh	r3, [fp, #-24]	@ movhi
 4173 18ac 013083E2 		add	r3, r3, #1
 4174 18b0 B8314BE1 		strh	r3, [fp, #-24]	@ movhi
 4175              	.L78:
 376:../lcd.c      **** 			for( j = 0; j < 16; j ++ )
 4176              		.loc 1 376 0 is_stmt 0 discriminator 1
 4177 18b4 F8315BE1 		ldrsh	r3, [fp, #-24]
 4178 18b8 0F0053E3 		cmp	r3, #15
 4179 18bc EEFFFFDA 		ble	.L79
 379:../lcd.c      ****             }
 380:../lcd.c      **** 
 381:../lcd.c      ****             for( y = 0; y < 16; y++ )
 4180              		.loc 1 381 0 is_stmt 1
 4181 18c0 0030A0E3 		mov	r3, #0
 4182 18c4 BC314BE1 		strh	r3, [fp, #-28]	@ movhi
 4183 18c8 7B0000EA 		b	.L80
 4184              	.L84:
 382:../lcd.c      ****             {
 383:../lcd.c      ****             	for( x = 0; x < 8; x++ ) 
 4185              		.loc 1 383 0
 4186 18cc 0030A0E3 		mov	r3, #0
 4187 18d0 BA314BE1 		strh	r3, [fp, #-26]	@ movhi
 4188 18d4 720000EA 		b	.L81
 4189              	.L83:
 384:../lcd.c      ****                	{
 385:../lcd.c      ****                 	k = x % 8;
 4190              		.loc 1 385 0
 4191 18d8 FA215BE1 		ldrsh	r2, [fp, #-26]
 4192 18dc C23FA0E1 		mov	r3, r2, asr #31
 4193 18e0 A33EA0E1 		mov	r3, r3, lsr #29
 4194 18e4 032082E0 		add	r2, r2, r3
 4195 18e8 072002E2 		and	r2, r2, #7
 4196 18ec 023063E0 		rsb	r3, r3, r2
 4197 18f0 B6324BE1 		strh	r3, [fp, #-38]	@ movhi
 386:../lcd.c      **** 			    	if( ywbuf[y]  & (0x80 >> k) )
 4198              		.loc 1 386 0
 4199 18f4 FC215BE1 		ldrsh	r2, [fp, #-28]
 4200 18f8 2330E0E3 		mvn	r3, #35
 4201 18fc 14104BE2 		sub	r1, fp, #20
 4202 1900 022081E0 		add	r2, r1, r2
 4203 1904 033082E0 		add	r3, r2, r3
 4204 1908 0030D3E5 		ldrb	r3, [r3, #0]	@ zero_extendqisi2
 4205 190c 0320A0E1 		mov	r2, r3
 4206 1910 F6325BE1 		ldrsh	r3, [fp, #-38]
 4207 1914 8010A0E3 		mov	r1, #128
 4208 1918 5133A0E1 		mov	r3, r1, asr r3
 4209 191c 033002E0 		and	r3, r2, r3
 4210 1920 000053E3 		cmp	r3, #0
 4211 1924 5B00000A 		beq	.L82
 387:../lcd.c      **** 			       	{
 388:../lcd.c      **** 			       		xx = x0 + x + i*8;
 4212              		.loc 1 388 0
 4213 1928 BA215BE1 		ldrh	r2, [fp, #-26]
 4214 192c BE335BE1 		ldrh	r3, [fp, #-62]	@ movhi
 4215 1930 033082E0 		add	r3, r2, r3
 4216 1934 0338A0E1 		mov	r3, r3, asl #16
 4217 1938 2328A0E1 		mov	r2, r3, lsr #16
 4218 193c B6315BE1 		ldrh	r3, [fp, #-22]
 4219 1940 8331A0E1 		mov	r3, r3, asl #3
 4220 1944 0338A0E1 		mov	r3, r3, asl #16
 4221 1948 2338A0E1 		mov	r3, r3, lsr #16
 4222 194c 033082E0 		add	r3, r2, r3
 4223 1950 0338A0E1 		mov	r3, r3, asl #16
 4224 1954 2338A0E1 		mov	r3, r3, lsr #16
 4225 1958 B8324BE1 		strh	r3, [fp, #-40]	@ movhi
 389:../lcd.c      **** 			       		(LCD_PutPixel(xx, y + y0, (INT8U)ForeColor));
 4226              		.loc 1 389 0
 4227 195c FC215BE1 		ldrsh	r2, [fp, #-28]
 4228 1960 B0345BE1 		ldrh	r3, [fp, #-64]
 4229 1964 032082E0 		add	r2, r2, r3
 4230 1968 0230A0E1 		mov	r3, r2
 4231 196c 0331A0E1 		mov	r3, r3, asl #2
 4232 1970 023083E0 		add	r3, r3, r2
 4233 1974 0333A0E1 		mov	r3, r3, asl #6
 4234 1978 A32FA0E1 		mov	r2, r3, lsr #31
 4235 197c 033082E0 		add	r3, r2, r3
 4236 1980 C330A0E1 		mov	r3, r3, asr #1
 4237 1984 C32683E2 		add	r2, r3, #204472320
 4238 1988 962C82E2 		add	r2, r2, #38400
 4239 198c F8325BE1 		ldrsh	r3, [fp, #-40]
 4240 1990 071083E2 		add	r1, r3, #7
 4241 1994 000053E3 		cmp	r3, #0
 4242 1998 0130A0B1 		movlt	r3, r1
 4243 199c C331A0E1 		mov	r3, r3, asr #3
 4244 19a0 0338A0E1 		mov	r3, r3, asl #16
 4245 19a4 2338A0E1 		mov	r3, r3, lsr #16
 4246 19a8 0338A0E1 		mov	r3, r3, asl #16
 4247 19ac 4338A0E1 		mov	r3, r3, asr #16
 4248 19b0 0331A0E1 		mov	r3, r3, asl #2
 4249 19b4 033082E0 		add	r3, r2, r3
 4250 19b8 0310A0E1 		mov	r1, r3
 4251 19bc FC215BE1 		ldrsh	r2, [fp, #-28]
 4252 19c0 B0345BE1 		ldrh	r3, [fp, #-64]
 4253 19c4 032082E0 		add	r2, r2, r3
 4254 19c8 0230A0E1 		mov	r3, r2
 4255 19cc 0331A0E1 		mov	r3, r3, asl #2
 4256 19d0 023083E0 		add	r3, r3, r2
 4257 19d4 0333A0E1 		mov	r3, r3, asl #6
 4258 19d8 A32FA0E1 		mov	r2, r3, lsr #31
 4259 19dc 033082E0 		add	r3, r2, r3
 4260 19e0 C330A0E1 		mov	r3, r3, asr #1
 4261 19e4 C32683E2 		add	r2, r3, #204472320
 4262 19e8 962C82E2 		add	r2, r2, #38400
 4263 19ec F8325BE1 		ldrsh	r3, [fp, #-40]
 4264 19f0 070083E2 		add	r0, r3, #7
 4265 19f4 000053E3 		cmp	r3, #0
 4266 19f8 0030A0B1 		movlt	r3, r0
 4267 19fc C331A0E1 		mov	r3, r3, asr #3
 4268 1a00 0338A0E1 		mov	r3, r3, asl #16
 4269 1a04 2338A0E1 		mov	r3, r3, lsr #16
 4270 1a08 0338A0E1 		mov	r3, r3, asl #16
 4271 1a0c 4338A0E1 		mov	r3, r3, asr #16
 4272 1a10 0331A0E1 		mov	r3, r3, asl #2
 4273 1a14 033082E0 		add	r3, r2, r3
 4274 1a18 000093E5 		ldr	r0, [r3, #0]
 4275 1a1c F8225BE1 		ldrsh	r2, [fp, #-40]
 4276 1a20 C23FA0E1 		mov	r3, r2, asr #31
 4277 1a24 A33EA0E1 		mov	r3, r3, lsr #29
 4278 1a28 032082E0 		add	r2, r2, r3
 4279 1a2c 072002E2 		and	r2, r2, #7
 4280 1a30 023063E0 		rsb	r3, r3, r2
 4281 1a34 0338A0E1 		mov	r3, r3, asl #16
 4282 1a38 2338A0E1 		mov	r3, r3, lsr #16
 4283 1a3c 0338A0E1 		mov	r3, r3, asl #16
 4284 1a40 4338A0E1 		mov	r3, r3, asr #16
 4285 1a44 0331A0E1 		mov	r3, r3, asl #2
 4286 1a48 0F22A0E3 		mov	r2, #-268435456
 4287 1a4c 3233A0E1 		mov	r3, r2, lsr r3
 4288 1a50 0330E0E1 		mvn	r3, r3
 4289 1a54 030000E0 		and	r0, r0, r3
 4290 1a58 41C05BE5 		ldrb	ip, [fp, #-65]	@ zero_extendqisi2
 4291 1a5c F8225BE1 		ldrsh	r2, [fp, #-40]
 4292 1a60 C23FA0E1 		mov	r3, r2, asr #31
 4293 1a64 A33EA0E1 		mov	r3, r3, lsr #29
 4294 1a68 032082E0 		add	r2, r2, r3
 4295 1a6c 072002E2 		and	r2, r2, #7
 4296 1a70 023063E0 		rsb	r3, r3, r2
 4297 1a74 0338A0E1 		mov	r3, r3, asl #16
 4298 1a78 2338A0E1 		mov	r3, r3, lsr #16
 4299 1a7c 0338A0E1 		mov	r3, r3, asl #16
 4300 1a80 4338A0E1 		mov	r3, r3, asr #16
 4301 1a84 073063E2 		rsb	r3, r3, #7
 4302 1a88 0331A0E1 		mov	r3, r3, asl #2
 4303 1a8c 1C33A0E1 		mov	r3, ip, asl r3
 4304 1a90 033080E1 		orr	r3, r0, r3
 4305 1a94 003081E5 		str	r3, [r1, #0]
 4306              	.L82:
 383:../lcd.c      ****             	for( x = 0; x < 8; x++ ) 
 4307              		.loc 1 383 0
 4308 1a98 BA315BE1 		ldrh	r3, [fp, #-26]	@ movhi
 4309 1a9c 013083E2 		add	r3, r3, #1
 4310 1aa0 BA314BE1 		strh	r3, [fp, #-26]	@ movhi
 4311              	.L81:
 383:../lcd.c      ****             	for( x = 0; x < 8; x++ ) 
 4312              		.loc 1 383 0 is_stmt 0 discriminator 1
 4313 1aa4 FA315BE1 		ldrsh	r3, [fp, #-26]
 4314 1aa8 070053E3 		cmp	r3, #7
 4315 1aac 89FFFFDA 		ble	.L83
 381:../lcd.c      ****             for( y = 0; y < 16; y++ )
 4316              		.loc 1 381 0 is_stmt 1
 4317 1ab0 BC315BE1 		ldrh	r3, [fp, #-28]	@ movhi
 4318 1ab4 013083E2 		add	r3, r3, #1
 4319 1ab8 BC314BE1 		strh	r3, [fp, #-28]	@ movhi
 4320              	.L80:
 381:../lcd.c      ****             for( y = 0; y < 16; y++ )
 4321              		.loc 1 381 0 is_stmt 0 discriminator 1
 4322 1abc FC315BE1 		ldrsh	r3, [fp, #-28]
 4323 1ac0 0F0053E3 		cmp	r3, #15
 4324 1ac4 80FFFFDA 		ble	.L84
 364:../lcd.c      **** 	for( i = 0; i < strlen((const char*)s); i++ )
 4325              		.loc 1 364 0 is_stmt 1
 4326 1ac8 B6315BE1 		ldrh	r3, [fp, #-22]	@ movhi
 4327 1acc 013083E2 		add	r3, r3, #1
 4328 1ad0 B6314BE1 		strh	r3, [fp, #-22]	@ movhi
 4329              	.L75:
 364:../lcd.c      **** 	for( i = 0; i < strlen((const char*)s); i++ )
 4330              		.loc 1 364 0 is_stmt 0 discriminator 1
 4331 1ad4 F6415BE1 		ldrsh	r4, [fp, #-22]
 4332 1ad8 48001BE5 		ldr	r0, [fp, #-72]
 4333 1adc FEFFFFEB 		bl	strlen
 4334 1ae0 0030A0E1 		mov	r3, r0
 4335 1ae4 030054E1 		cmp	r4, r3
 4336 1ae8 4AFFFF3A 		bcc	.L85
 4337              	.L74:
 390:../lcd.c      **** 			       	}
 391:../lcd.c      **** 			   	}
 392:../lcd.c      ****             }
 393:../lcd.c      **** 		}
 394:../lcd.c      **** 	}
 395:../lcd.c      **** }
 4338              		.loc 1 395 0 is_stmt 1
 4339 1aec 10D04BE2 		sub	sp, fp, #16
 4340 1af0 10689DE8 		ldmfd	sp, {r4, fp, sp, lr}
 4341 1af4 1EFF2FE1 		bx	lr
 4342              	.L87:
 4343              		.align	2
 4344              	.L86:
 4345 1af8 00000000 		.word	g_auc_Ascii8x16
 4346              		.cfi_endproc
 4347              	.LFE10:
 4349              		.align	2
 4350              		.global	Lcd_DspAscII6x8
 4352              	Lcd_DspAscII6x8:
 4353              	.LFB11:
 396:../lcd.c      **** 
 397:../lcd.c      **** /*********************************************************************************************
 398:../lcd.c      **** * name:		Lcd_DspAscII6x8()
 399:../lcd.c      **** * func:		display 6x8 ASCII character string
 400:../lcd.c      **** * para:		usX0,usY0 -- ASCII character string's start point coordinate
 401:../lcd.c      **** *			ForeColor -- appointed color value
 402:../lcd.c      **** *			pucChar   -- ASCII character string
 403:../lcd.c      **** * ret:		none
 404:../lcd.c      **** * modify:
 405:../lcd.c      **** * comment:
 406:../lcd.c      **** *********************************************************************************************/
 407:../lcd.c      **** void Lcd_DspAscII6x8(INT16U usX0, INT16U usY0,INT8U ForeColor, INT8U* pucChar)
 408:../lcd.c      **** {
 4354              		.loc 1 408 0
 4355              		.cfi_startproc
 4356              		@ Function supports interworking.
 4357              		@ args = 0, pretend = 0, frame = 32
 4358              		@ frame_needed = 1, uses_anonymous_args = 0
 4359 1afc 0DC0A0E1 		mov	ip, sp
 4360              	.LCFI22:
 4361              		.cfi_def_cfa_register 12
 4362 1b00 00D82DE9 		stmfd	sp!, {fp, ip, lr, pc}
 4363 1b04 04B04CE2 		sub	fp, ip, #4
 4364              		.cfi_offset 14, -8
 4365              		.cfi_offset 13, -12
 4366              		.cfi_offset 11, -16
 4367              	.LCFI23:
 4368              		.cfi_def_cfa 11, 4
 4369 1b08 20D04DE2 		sub	sp, sp, #32
 4370 1b0c 28300BE5 		str	r3, [fp, #-40]
 4371 1b10 BE014BE1 		strh	r0, [fp, #-30]	@ movhi
 4372 1b14 B0124BE1 		strh	r1, [fp, #-32]	@ movhi
 4373 1b18 0230A0E1 		mov	r3, r2
 4374 1b1c 21304BE5 		strb	r3, [fp, #-33]
 409:../lcd.c      **** 	INT32U i,j;
 410:../lcd.c      **** 	INT8U  ucTemp;
 411:../lcd.c      **** 
 412:../lcd.c      **** 	while( *pucChar != 0 )
 4375              		.loc 1 412 0
 4376 1b20 5E0000EA 		b	.L89
 4377              	.L95:
 413:../lcd.c      **** 	{
 414:../lcd.c      **** 		for( i=0; i < 8; i++ )
 4378              		.loc 1 414 0
 4379 1b24 0030A0E3 		mov	r3, #0
 4380 1b28 10300BE5 		str	r3, [fp, #-16]
 4381 1b2c 520000EA 		b	.L90
 4382              	.L94:
 415:../lcd.c      **** 		{
 416:../lcd.c      ****   			ucTemp = g_auc_Ascii6x8[(*pucChar) * 8 + i];
 4383              		.loc 1 416 0
 4384 1b30 28301BE5 		ldr	r3, [fp, #-40]
 4385 1b34 0030D3E5 		ldrb	r3, [r3, #0]	@ zero_extendqisi2
 4386 1b38 8331A0E1 		mov	r3, r3, asl #3
 4387 1b3c 0320A0E1 		mov	r2, r3
 4388 1b40 10301BE5 		ldr	r3, [fp, #-16]
 4389 1b44 033082E0 		add	r3, r2, r3
 4390 1b48 6C219FE5 		ldr	r2, .L96
 4391 1b4c 0330D2E7 		ldrb	r3, [r2, r3]
 4392 1b50 15304BE5 		strb	r3, [fp, #-21]
 417:../lcd.c      ****   			for( j = 0; j < 8; j++ )
 4393              		.loc 1 417 0
 4394 1b54 0030A0E3 		mov	r3, #0
 4395 1b58 14300BE5 		str	r3, [fp, #-20]
 4396 1b5c 400000EA 		b	.L91
 4397              	.L93:
 418:../lcd.c      ****   			{
 419:../lcd.c      ****   				if( (ucTemp & (0x80 >> j)) != 0 )
 4398              		.loc 1 419 0
 4399 1b60 15205BE5 		ldrb	r2, [fp, #-21]	@ zero_extendqisi2
 4400 1b64 14301BE5 		ldr	r3, [fp, #-20]
 4401 1b68 8010A0E3 		mov	r1, #128
 4402 1b6c 5133A0E1 		mov	r3, r1, asr r3
 4403 1b70 033002E0 		and	r3, r2, r3
 4404 1b74 000053E3 		cmp	r3, #0
 4405 1b78 3600000A 		beq	.L92
 420:../lcd.c      ****   				{
 421:../lcd.c      ****   					LCD_PutPixel(usX0 + i, usY0 + 8 - j, (INT8U)ForeColor);
 4406              		.loc 1 421 0
 4407 1b7c B0225BE1 		ldrh	r2, [fp, #-32]
 4408 1b80 14301BE5 		ldr	r3, [fp, #-20]
 4409 1b84 022063E0 		rsb	r2, r3, r2
 4410 1b88 0230A0E1 		mov	r3, r2
 4411 1b8c 0331A0E1 		mov	r3, r3, asl #2
 4412 1b90 023083E0 		add	r3, r3, r2
 4413 1b94 0333A0E1 		mov	r3, r3, asl #6
 4414 1b98 0A3C83E2 		add	r3, r3, #2560
 4415 1b9c A320A0E1 		mov	r2, r3, lsr #1
 4416 1ba0 BE115BE1 		ldrh	r1, [fp, #-30]
 4417 1ba4 10301BE5 		ldr	r3, [fp, #-16]
 4418 1ba8 033081E0 		add	r3, r1, r3
 4419 1bac A331A0E1 		mov	r3, r3, lsr #3
 4420 1bb0 0331A0E1 		mov	r3, r3, asl #2
 4421 1bb4 033082E0 		add	r3, r2, r3
 4422 1bb8 C33683E2 		add	r3, r3, #204472320
 4423 1bbc 963C83E2 		add	r3, r3, #38400
 4424 1bc0 0310A0E1 		mov	r1, r3
 4425 1bc4 B0225BE1 		ldrh	r2, [fp, #-32]
 4426 1bc8 14301BE5 		ldr	r3, [fp, #-20]
 4427 1bcc 022063E0 		rsb	r2, r3, r2
 4428 1bd0 0230A0E1 		mov	r3, r2
 4429 1bd4 0331A0E1 		mov	r3, r3, asl #2
 4430 1bd8 023083E0 		add	r3, r3, r2
 4431 1bdc 0333A0E1 		mov	r3, r3, asl #6
 4432 1be0 0A3C83E2 		add	r3, r3, #2560
 4433 1be4 A320A0E1 		mov	r2, r3, lsr #1
 4434 1be8 BE015BE1 		ldrh	r0, [fp, #-30]
 4435 1bec 10301BE5 		ldr	r3, [fp, #-16]
 4436 1bf0 033080E0 		add	r3, r0, r3
 4437 1bf4 A331A0E1 		mov	r3, r3, lsr #3
 4438 1bf8 0331A0E1 		mov	r3, r3, asl #2
 4439 1bfc 033082E0 		add	r3, r2, r3
 4440 1c00 C33683E2 		add	r3, r3, #204472320
 4441 1c04 963C83E2 		add	r3, r3, #38400
 4442 1c08 002093E5 		ldr	r2, [r3, #0]
 4443 1c0c BE015BE1 		ldrh	r0, [fp, #-30]
 4444 1c10 10301BE5 		ldr	r3, [fp, #-16]
 4445 1c14 033080E0 		add	r3, r0, r3
 4446 1c18 073003E2 		and	r3, r3, #7
 4447 1c1c 0331A0E1 		mov	r3, r3, asl #2
 4448 1c20 0F02A0E3 		mov	r0, #-268435456
 4449 1c24 3033A0E1 		mov	r3, r0, lsr r3
 4450 1c28 0330E0E1 		mvn	r3, r3
 4451 1c2c 032002E0 		and	r2, r2, r3
 4452 1c30 21005BE5 		ldrb	r0, [fp, #-33]	@ zero_extendqisi2
 4453 1c34 BEC15BE1 		ldrh	ip, [fp, #-30]
 4454 1c38 10301BE5 		ldr	r3, [fp, #-16]
 4455 1c3c 03308CE0 		add	r3, ip, r3
 4456 1c40 0330E0E1 		mvn	r3, r3
 4457 1c44 073003E2 		and	r3, r3, #7
 4458 1c48 0331A0E1 		mov	r3, r3, asl #2
 4459 1c4c 1033A0E1 		mov	r3, r0, asl r3
 4460 1c50 033082E1 		orr	r3, r2, r3
 4461 1c54 003081E5 		str	r3, [r1, #0]
 4462              	.L92:
 417:../lcd.c      ****   			for( j = 0; j < 8; j++ )
 4463              		.loc 1 417 0
 4464 1c58 14301BE5 		ldr	r3, [fp, #-20]
 4465 1c5c 013083E2 		add	r3, r3, #1
 4466 1c60 14300BE5 		str	r3, [fp, #-20]
 4467              	.L91:
 417:../lcd.c      ****   			for( j = 0; j < 8; j++ )
 4468              		.loc 1 417 0 is_stmt 0 discriminator 1
 4469 1c64 14301BE5 		ldr	r3, [fp, #-20]
 4470 1c68 070053E3 		cmp	r3, #7
 4471 1c6c BBFFFF9A 		bls	.L93
 414:../lcd.c      **** 		for( i=0; i < 8; i++ )
 4472              		.loc 1 414 0 is_stmt 1
 4473 1c70 10301BE5 		ldr	r3, [fp, #-16]
 4474 1c74 013083E2 		add	r3, r3, #1
 4475 1c78 10300BE5 		str	r3, [fp, #-16]
 4476              	.L90:
 414:../lcd.c      **** 		for( i=0; i < 8; i++ )
 4477              		.loc 1 414 0 is_stmt 0 discriminator 1
 4478 1c7c 10301BE5 		ldr	r3, [fp, #-16]
 4479 1c80 070053E3 		cmp	r3, #7
 4480 1c84 A9FFFF9A 		bls	.L94
 422:../lcd.c      ****   				}
 423:../lcd.c      ****   			}
 424:../lcd.c      **** 		}
 425:../lcd.c      **** 		usX0 += XWIDTH;
 4481              		.loc 1 425 0 is_stmt 1
 4482 1c88 BE315BE1 		ldrh	r3, [fp, #-30]	@ movhi
 4483 1c8c 063083E2 		add	r3, r3, #6
 4484 1c90 BE314BE1 		strh	r3, [fp, #-30]	@ movhi
 426:../lcd.c      **** 		pucChar++;
 4485              		.loc 1 426 0
 4486 1c94 28301BE5 		ldr	r3, [fp, #-40]
 4487 1c98 013083E2 		add	r3, r3, #1
 4488 1c9c 28300BE5 		str	r3, [fp, #-40]
 4489              	.L89:
 412:../lcd.c      **** 	while( *pucChar != 0 )
 4490              		.loc 1 412 0 discriminator 1
 4491 1ca0 28301BE5 		ldr	r3, [fp, #-40]
 4492 1ca4 0030D3E5 		ldrb	r3, [r3, #0]	@ zero_extendqisi2
 4493 1ca8 000053E3 		cmp	r3, #0
 4494 1cac 9CFFFF1A 		bne	.L95
 427:../lcd.c      **** 	}
 428:../lcd.c      **** }
 4495              		.loc 1 428 0
 4496 1cb0 0CD04BE2 		sub	sp, fp, #12
 4497 1cb4 00689DE8 		ldmfd	sp, {fp, sp, lr}
 4498 1cb8 1EFF2FE1 		bx	lr
 4499              	.L97:
 4500              		.align	2
 4501              	.L96:
 4502 1cbc 00000000 		.word	g_auc_Ascii6x8
 4503              		.cfi_endproc
 4504              	.LFE11:
 4506              		.align	2
 4507              		.global	ReverseLine
 4509              	ReverseLine:
 4510              	.LFB12:
 429:../lcd.c      **** 
 430:../lcd.c      **** 
 431:../lcd.c      **** /*********************************************************************************************
 432:../lcd.c      **** * name:		ReverseLine()
 433:../lcd.c      **** * func:		Reverse display some lines 
 434:../lcd.c      **** * para:		ulHeight -- line's height
 435:../lcd.c      **** *			ulY -- line's Y-coordinate
 436:../lcd.c      **** * ret:		none
 437:../lcd.c      **** * modify:
 438:../lcd.c      **** * comment:		
 439:../lcd.c      **** *********************************************************************************************/
 440:../lcd.c      **** void ReverseLine(INT32U ulHeight, INT32U ulY)
 441:../lcd.c      **** {
 4511              		.loc 1 441 0
 4512              		.cfi_startproc
 4513              		@ Function supports interworking.
 4514              		@ args = 0, pretend = 0, frame = 24
 4515              		@ frame_needed = 1, uses_anonymous_args = 0
 4516 1cc0 0DC0A0E1 		mov	ip, sp
 4517              	.LCFI24:
 4518              		.cfi_def_cfa_register 12
 4519 1cc4 00D82DE9 		stmfd	sp!, {fp, ip, lr, pc}
 4520 1cc8 04B04CE2 		sub	fp, ip, #4
 4521              		.cfi_offset 14, -8
 4522              		.cfi_offset 13, -12
 4523              		.cfi_offset 11, -16
 4524              	.LCFI25:
 4525              		.cfi_def_cfa 11, 4
 4526 1ccc 18D04DE2 		sub	sp, sp, #24
 4527 1cd0 20000BE5 		str	r0, [fp, #-32]
 4528 1cd4 24100BE5 		str	r1, [fp, #-36]
 442:../lcd.c      **** 	INT32U i, j, temp;
 443:../lcd.c      **** 	
 444:../lcd.c      **** 	for( i = 0; i < ulHeight; i++ )
 4529              		.loc 1 444 0
 4530 1cd8 0030A0E3 		mov	r3, #0
 4531 1cdc 10300BE5 		str	r3, [fp, #-16]
 4532 1ce0 2C0000EA 		b	.L99
 4533              	.L102:
 445:../lcd.c      **** 	{
 446:../lcd.c      **** 		for( j = 0; j < (SCR_XSIZE/4/2) ; j++ )
 4534              		.loc 1 446 0
 4535 1ce4 0030A0E3 		mov	r3, #0
 4536 1ce8 14300BE5 		str	r3, [fp, #-20]
 4537 1cec 230000EA 		b	.L100
 4538              	.L101:
 447:../lcd.c      **** 		{
 448:../lcd.c      **** 			temp = *(INT32U*)(LCD_VIRTUAL_BUFFER + (ulY+i)*SCR_XSIZE/2 + j*4);
 4539              		.loc 1 448 0 discriminator 2
 4540 1cf0 24201BE5 		ldr	r2, [fp, #-36]
 4541 1cf4 10301BE5 		ldr	r3, [fp, #-16]
 4542 1cf8 032082E0 		add	r2, r2, r3
 4543 1cfc 0230A0E1 		mov	r3, r2
 4544 1d00 0331A0E1 		mov	r3, r3, asl #2
 4545 1d04 023083E0 		add	r3, r3, r2
 4546 1d08 0333A0E1 		mov	r3, r3, asl #6
 4547 1d0c A320A0E1 		mov	r2, r3, lsr #1
 4548 1d10 14301BE5 		ldr	r3, [fp, #-20]
 4549 1d14 0331A0E1 		mov	r3, r3, asl #2
 4550 1d18 033082E0 		add	r3, r2, r3
 4551 1d1c C33683E2 		add	r3, r3, #204472320
 4552 1d20 963C83E2 		add	r3, r3, #38400
 4553 1d24 003093E5 		ldr	r3, [r3, #0]
 4554 1d28 18300BE5 		str	r3, [fp, #-24]
 449:../lcd.c      **** 			temp ^= 0xFFFFFFFF;
 4555              		.loc 1 449 0 discriminator 2
 4556 1d2c 18301BE5 		ldr	r3, [fp, #-24]
 4557 1d30 0330E0E1 		mvn	r3, r3
 4558 1d34 18300BE5 		str	r3, [fp, #-24]
 450:../lcd.c      **** 			*(INT32U*)(LCD_VIRTUAL_BUFFER + (ulY+i)*SCR_XSIZE/2 + j*4) = temp;
 4559              		.loc 1 450 0 discriminator 2
 4560 1d38 24201BE5 		ldr	r2, [fp, #-36]
 4561 1d3c 10301BE5 		ldr	r3, [fp, #-16]
 4562 1d40 032082E0 		add	r2, r2, r3
 4563 1d44 0230A0E1 		mov	r3, r2
 4564 1d48 0331A0E1 		mov	r3, r3, asl #2
 4565 1d4c 023083E0 		add	r3, r3, r2
 4566 1d50 0333A0E1 		mov	r3, r3, asl #6
 4567 1d54 A320A0E1 		mov	r2, r3, lsr #1
 4568 1d58 14301BE5 		ldr	r3, [fp, #-20]
 4569 1d5c 0331A0E1 		mov	r3, r3, asl #2
 4570 1d60 033082E0 		add	r3, r2, r3
 4571 1d64 C33683E2 		add	r3, r3, #204472320
 4572 1d68 963C83E2 		add	r3, r3, #38400
 4573 1d6c 18201BE5 		ldr	r2, [fp, #-24]
 4574 1d70 002083E5 		str	r2, [r3, #0]
 446:../lcd.c      **** 		for( j = 0; j < (SCR_XSIZE/4/2) ; j++ )
 4575              		.loc 1 446 0 discriminator 2
 4576 1d74 14301BE5 		ldr	r3, [fp, #-20]
 4577 1d78 013083E2 		add	r3, r3, #1
 4578 1d7c 14300BE5 		str	r3, [fp, #-20]
 4579              	.L100:
 446:../lcd.c      **** 		for( j = 0; j < (SCR_XSIZE/4/2) ; j++ )
 4580              		.loc 1 446 0 is_stmt 0 discriminator 1
 4581 1d80 14301BE5 		ldr	r3, [fp, #-20]
 4582 1d84 270053E3 		cmp	r3, #39
 4583 1d88 D8FFFF9A 		bls	.L101
 444:../lcd.c      **** 	for( i = 0; i < ulHeight; i++ )
 4584              		.loc 1 444 0 is_stmt 1
 4585 1d8c 10301BE5 		ldr	r3, [fp, #-16]
 4586 1d90 013083E2 		add	r3, r3, #1
 4587 1d94 10300BE5 		str	r3, [fp, #-16]
 4588              	.L99:
 444:../lcd.c      **** 	for( i = 0; i < ulHeight; i++ )
 4589              		.loc 1 444 0 is_stmt 0 discriminator 1
 4590 1d98 10201BE5 		ldr	r2, [fp, #-16]
 4591 1d9c 20301BE5 		ldr	r3, [fp, #-32]
 4592 1da0 030052E1 		cmp	r2, r3
 4593 1da4 CEFFFF3A 		bcc	.L102
 451:../lcd.c      **** 		}
 452:../lcd.c      **** 	}
 453:../lcd.c      **** }
 4594              		.loc 1 453 0 is_stmt 1
 4595 1da8 0CD04BE2 		sub	sp, fp, #12
 4596 1dac 00689DE8 		ldmfd	sp, {fp, sp, lr}
 4597 1db0 1EFF2FE1 		bx	lr
 4598              		.cfi_endproc
 4599              	.LFE12:
 4601              		.data
 4604              	ucZdma0Done:
 4605 0000 01       		.byte	1
 4606              		.text
 4607              		.align	2
 4608              		.global	Zdma0Done
 4610              	Zdma0Done:
 4611              	.LFB13:
 454:../lcd.c      **** 
 455:../lcd.c      **** /*********************************************************************************************
 456:../lcd.c      **** * name:		Zdma0Done()
 457:../lcd.c      **** * func:		LCD dma interrupt handle function
 458:../lcd.c      **** * para:		none
 459:../lcd.c      **** * ret:		none
 460:../lcd.c      **** * modify:
 461:../lcd.c      **** * comment:		
 462:../lcd.c      **** *********************************************************************************************/
 463:../lcd.c      **** volatile static INT8U ucZdma0Done=1;	//When DMA is finish,ucZdma0Done is cleared to Zero
 464:../lcd.c      **** void Zdma0Done(void)
 465:../lcd.c      **** {
 4612              		.loc 1 465 0
 4613              		.cfi_startproc
 4614              		@ Interrupt Service Routine.
 4615              		@ args = 0, pretend = 0, frame = 0
 4616              		@ frame_needed = 1, uses_anonymous_args = 0
 4617 1db4 04C02DE5 		str	ip, [sp, #-4]!
 4618 1db8 0DC0A0E1 		mov	ip, sp
 4619              	.LCFI26:
 4620              		.cfi_def_cfa_register 12
 4621 1dbc 0FD82DE9 		stmfd	sp!, {r0, r1, r2, r3, fp, ip, lr, pc}
 4622 1dc0 04B04CE2 		sub	fp, ip, #4
 4623              		.cfi_offset 14, -8
 4624              		.cfi_offset 13, -12
 4625              		.cfi_offset 11, -16
 4626              		.cfi_offset 3, -20
 4627              		.cfi_offset 2, -24
 4628              		.cfi_offset 1, -28
 4629              		.cfi_offset 0, -32
 4630              	.LCFI27:
 4631              		.cfi_def_cfa 11, 4
 466:../lcd.c      **** 	rI_ISPC=BIT_ZDMA0;	    //clear pending
 4632              		.loc 1 466 0
 4633 1dc4 2C309FE5 		ldr	r3, .L104
 4634 1dc8 0227A0E3 		mov	r2, #524288
 4635 1dcc 002083E5 		str	r2, [r3, #0]
 467:../lcd.c      **** 	//TODO poner algo en cola de depuracin????
 468:../lcd.c      **** 	push_debug(ev_finLCD,no_info);
 4636              		.loc 1 468 0
 4637 1dd0 6900A0E3 		mov	r0, #105
 4638 1dd4 20109FE5 		ldr	r1, .L104+4
 4639 1dd8 FEFFFFEB 		bl	push_debug
 469:../lcd.c      **** 	ucZdma0Done=0;			//TODO creo que no hace falta para nada
 4640              		.loc 1 469 0
 4641 1ddc 1C309FE5 		ldr	r3, .L104+8
 4642 1de0 0020A0E3 		mov	r2, #0
 4643 1de4 0020C3E5 		strb	r2, [r3, #0]
 470:../lcd.c      **** }
 4644              		.loc 1 470 0
 4645 1de8 1CD04BE2 		sub	sp, fp, #28
 4646 1dec 0F689DE8 		ldmfd	sp, {r0, r1, r2, r3, fp, sp, lr}
 4647 1df0 04C09DE4 		ldmfd	sp!, {ip}
 4648 1df4 04F05EE2 		subs	pc, lr, #4
 4649              	.L105:
 4650              		.align	2
 4651              	.L104:
 4652 1df8 2400E001 		.word	31457316
 4653 1dfc AAAAAAAA 		.word	-1431655766
 4654 1e00 00000000 		.word	ucZdma0Done
 4655              		.cfi_endproc
 4656              	.LFE13:
 4658              		.align	2
 4659              		.global	Lcd_Dma_Trans
 4661              	Lcd_Dma_Trans:
 4662              	.LFB14:
 471:../lcd.c      **** 
 472:../lcd.c      **** /*********************************************************************************************
 473:../lcd.c      **** * name:		Lcd_Dma_Trans()
 474:../lcd.c      **** * func:		dma transport virtual LCD screen to LCD actual screen
 475:../lcd.c      **** * para:		none
 476:../lcd.c      **** * ret:		none
 477:../lcd.c      **** * modify:
 478:../lcd.c      **** * comment:		
 479:../lcd.c      **** *********************************************************************************************/
 480:../lcd.c      **** void Lcd_Dma_Trans(void)
 481:../lcd.c      **** {
 4663              		.loc 1 481 0
 4664              		.cfi_startproc
 4665              		@ Function supports interworking.
 4666              		@ args = 0, pretend = 0, frame = 0
 4667              		@ frame_needed = 1, uses_anonymous_args = 0
 4668 1e04 0DC0A0E1 		mov	ip, sp
 4669              	.LCFI28:
 4670              		.cfi_def_cfa_register 12
 4671 1e08 00D82DE9 		stmfd	sp!, {fp, ip, lr, pc}
 4672 1e0c 04B04CE2 		sub	fp, ip, #4
 4673              		.cfi_offset 14, -8
 4674              		.cfi_offset 13, -12
 4675              		.cfi_offset 11, -16
 4676              	.LCFI29:
 4677              		.cfi_def_cfa 11, 4
 482:../lcd.c      **** 	INT8U err;
 483:../lcd.c      **** 	
 484:../lcd.c      **** 	//#define LCD_VIRTUAL_BUFFER	(0xc400000)
 485:../lcd.c      **** 	//#define LCD_ACTIVE_BUFFER	(LCD_VIRTUAL_BUFFER+(SCR_XSIZE*SCR_YSIZE/2))	//DMA ON
 486:../lcd.c      **** 	//#define LCD_ACTIVE_BUFFER	LCD_VIRTUAL_BUFFER								//DMA OFF
 487:../lcd.c      **** 	//#define LCD_BUF_SIZE		(SCR_XSIZE*SCR_YSIZE/2)
 488:../lcd.c      **** 	//So the Lcd Buffer Low area is from LCD_VIRTUAL_BUFFER to (LCD_ACTIVE_BUFFER+(SCR_XSIZE*SCR_YSIZE
 489:../lcd.c      **** 	rNCACHBE1=(((unsigned)(LCD_ACTIVE_BUFFER)>>12) <<16 )|((unsigned)(LCD_VIRTUAL_BUFFER)>>12);
 4678              		.loc 1 489 0
 4679 1e10 54309FE5 		ldr	r3, .L107
 4680 1e14 54209FE5 		ldr	r2, .L107+4
 4681 1e18 002083E5 		str	r2, [r3, #0]
 490:../lcd.c      ****   	rZDISRC0=(DW<<30)|(1<<28)     |LCD_VIRTUAL_BUFFER; // inc
 4682              		.loc 1 490 0
 4683 1e1c 50309FE5 		ldr	r3, .L107+8
 4684 1e20 50209FE5 		ldr	r2, .L107+12
 4685 1e24 002083E5 		str	r2, [r3, #0]
 491:../lcd.c      ****   	rZDIDES0=( 2<<30)|(1<<28)     |LCD_ACTIVE_BUFFER; // inc
 4686              		.loc 1 491 0
 4687 1e28 4C309FE5 		ldr	r3, .L107+16
 4688 1e2c 4C209FE5 		ldr	r2, .L107+20
 4689 1e30 002083E5 		str	r2, [r3, #0]
 492:../lcd.c      ****     rZDICNT0=( 2<<28)|(1<<26)     |(3<<22)     |(0<<20)      |(LCD_BUF_SIZE);
 4690              		.loc 1 492 0
 4691 1e34 48309FE5 		ldr	r3, .L107+24
 4692 1e38 48209FE5 		ldr	r2, .L107+28
 4693 1e3c 002083E5 		str	r2, [r3, #0]
 493:../lcd.c      ****         //           |            |            |             |            |---->0 = Disable DMA
 494:../lcd.c      ****         //           |            |            |             |------------>Int. whenever transferre
 495:../lcd.c      ****         //           |            |            |-------------------->Write time on the fly
 496:../lcd.c      ****         //           |            |---------------------------->Block(4-word) transfer mode
 497:../lcd.c      ****         //           |------------------------------------>whole service
 498:../lcd.c      **** 	    //reEnable ZDMA transfer
 499:../lcd.c      ****   	rZDICNT0 |= (1<<20);		//after ES3
 4694              		.loc 1 499 0
 4695 1e40 3C309FE5 		ldr	r3, .L107+24
 4696 1e44 38209FE5 		ldr	r2, .L107+24
 4697 1e48 002092E5 		ldr	r2, [r2, #0]
 4698 1e4c 012682E3 		orr	r2, r2, #1048576
 4699 1e50 002083E5 		str	r2, [r3, #0]
 500:../lcd.c      ****     rZDCON0=0x1; // start!!!  
 4700              		.loc 1 500 0
 4701 1e54 7A37A0E3 		mov	r3, #31981568
 4702 1e58 0120A0E3 		mov	r2, #1
 4703 1e5c 002083E5 		str	r2, [r3, #0]
 501:../lcd.c      ****     //push_debug(ev_finLCD,no_info); //TODO Creo que esto no va aqu
 502:../lcd.c      **** 	//Delay(500);
 503:../lcd.c      **** }
 4704              		.loc 1 503 0
 4705 1e60 0CD04BE2 		sub	sp, fp, #12
 4706 1e64 00689DE8 		ldmfd	sp, {fp, sp, lr}
 4707 1e68 1EFF2FE1 		bx	lr
 4708              	.L108:
 4709              		.align	2
 4710              	.L107:
 4711 1e6c 0800C001 		.word	29360136
 4712 1e70 09C300C3 		.word	-1023360247
 4713 1e74 0400E801 		.word	31981572
 4714 1e78 0096301C 		.word	472946176
 4715 1e7c 0800E801 		.word	31981576
 4716 1e80 0000309C 		.word	-1674575872
 4717 1e84 0C00E801 		.word	31981580
 4718 1e88 0096C024 		.word	616601088
 4719              		.cfi_endproc
 4720              	.LFE14:
 4722              		.section	.rodata
 4723              		.align	2
 4724              	.LC0:
 4725 0000 436F6469 		.ascii	"Codigo del puesto: \000"
 4725      676F2064 
 4725      656C2070 
 4725      75657374 
 4725      6F3A2000 
 4726              		.text
 4727              		.align	2
 4728              		.global	Lcd_Test
 4730              	Lcd_Test:
 4731              	.LFB15:
 504:../lcd.c      **** 
 505:../lcd.c      **** /*********************************************************************************************
 506:../lcd.c      **** * name:		Lcd_Test()
 507:../lcd.c      **** * func:		LCD test function
 508:../lcd.c      **** * para:		none
 509:../lcd.c      **** * ret:		none
 510:../lcd.c      **** * modify:
 511:../lcd.c      **** * comment:		
 512:../lcd.c      **** *********************************************************************************************/
 513:../lcd.c      **** void Lcd_Test(void)
 514:../lcd.c      **** {
 4732              		.loc 1 514 0
 4733              		.cfi_startproc
 4734              		@ Function supports interworking.
 4735              		@ args = 0, pretend = 0, frame = 0
 4736              		@ frame_needed = 1, uses_anonymous_args = 0
 4737 1e8c 0DC0A0E1 		mov	ip, sp
 4738              	.LCFI30:
 4739              		.cfi_def_cfa_register 12
 4740 1e90 00D82DE9 		stmfd	sp!, {fp, ip, lr, pc}
 4741 1e94 04B04CE2 		sub	fp, ip, #4
 4742              		.cfi_offset 14, -8
 4743              		.cfi_offset 13, -12
 4744              		.cfi_offset 11, -16
 4745              	.LCFI31:
 4746              		.cfi_def_cfa 11, 4
 4747 1e98 08D04DE2 		sub	sp, sp, #8
 515:../lcd.c      **** 	/* initial LCD controller */
 516:../lcd.c      **** 	Lcd_Init();
 4748              		.loc 1 516 0
 4749 1e9c FEFFFFEB 		bl	Lcd_Init
 517:../lcd.c      **** 	/* clear screen */
 518:../lcd.c      **** 	Lcd_Clr();
 4750              		.loc 1 518 0
 4751 1ea0 FEFFFFEB 		bl	Lcd_Clr
 519:../lcd.c      **** 	Lcd_Active_Clr();
 4752              		.loc 1 519 0
 4753 1ea4 FEFFFFEB 		bl	Lcd_Active_Clr
 520:../lcd.c      **** 
 521:../lcd.c      **** 	/* draw rectangle pattern */ 
 522:../lcd.c      ****     #ifdef Eng_v // english version
 523:../lcd.c      **** 	Lcd_DspAscII8x16(10,0,DARKGRAY,"Embest S3CEV40 ");
 524:../lcd.c      **** 	#else
 525:../lcd.c      **** //	Lcd_DspHz16(10,0,DARKGRAY,"");
 526:../lcd.c      **** 	#endif
 527:../lcd.c      **** 	Lcd_DspAscII8x16(10,20,BLACK,"Codigo del puesto: ");
 4754              		.loc 1 527 0
 4755 1ea8 0A00A0E3 		mov	r0, #10
 4756 1eac 1410A0E3 		mov	r1, #20
 4757 1eb0 0F20A0E3 		mov	r2, #15
 4758 1eb4 A0319FE5 		ldr	r3, .L110
 4759 1eb8 FEFFFFEB 		bl	Lcd_DspAscII8x16
 528:../lcd.c      **** 	Lcd_Draw_Box(10,40,310,230,14);
 4760              		.loc 1 528 0
 4761 1ebc 0E30A0E3 		mov	r3, #14
 4762 1ec0 00308DE5 		str	r3, [sp, #0]
 4763 1ec4 0A00A0E3 		mov	r0, #10
 4764 1ec8 2810A0E3 		mov	r1, #40
 4765 1ecc 8C219FE5 		ldr	r2, .L110+4
 4766 1ed0 E630A0E3 		mov	r3, #230
 4767 1ed4 FEFFFFEB 		bl	Lcd_Draw_Box
 529:../lcd.c      **** 	Lcd_Draw_Box(20,45,300,225,13);
 4768              		.loc 1 529 0
 4769 1ed8 0D30A0E3 		mov	r3, #13
 4770 1edc 00308DE5 		str	r3, [sp, #0]
 4771 1ee0 1400A0E3 		mov	r0, #20
 4772 1ee4 2D10A0E3 		mov	r1, #45
 4773 1ee8 4B2FA0E3 		mov	r2, #300
 4774 1eec E130A0E3 		mov	r3, #225
 4775 1ef0 FEFFFFEB 		bl	Lcd_Draw_Box
 530:../lcd.c      **** 	Lcd_Draw_Box(30,50,290,220,12);
 4776              		.loc 1 530 0
 4777 1ef4 0C30A0E3 		mov	r3, #12
 4778 1ef8 00308DE5 		str	r3, [sp, #0]
 4779 1efc 1E00A0E3 		mov	r0, #30
 4780 1f00 3210A0E3 		mov	r1, #50
 4781 1f04 58219FE5 		ldr	r2, .L110+8
 4782 1f08 DC30A0E3 		mov	r3, #220
 4783 1f0c FEFFFFEB 		bl	Lcd_Draw_Box
 531:../lcd.c      **** 	Lcd_Draw_Box(40,55,280,215,11);
 4784              		.loc 1 531 0
 4785 1f10 0B30A0E3 		mov	r3, #11
 4786 1f14 00308DE5 		str	r3, [sp, #0]
 4787 1f18 2800A0E3 		mov	r0, #40
 4788 1f1c 3710A0E3 		mov	r1, #55
 4789 1f20 462FA0E3 		mov	r2, #280
 4790 1f24 D730A0E3 		mov	r3, #215
 4791 1f28 FEFFFFEB 		bl	Lcd_Draw_Box
 532:../lcd.c      **** 	Lcd_Draw_Box(50,60,270,210,10);
 4792              		.loc 1 532 0
 4793 1f2c 0A30A0E3 		mov	r3, #10
 4794 1f30 00308DE5 		str	r3, [sp, #0]
 4795 1f34 3200A0E3 		mov	r0, #50
 4796 1f38 3C10A0E3 		mov	r1, #60
 4797 1f3c 24219FE5 		ldr	r2, .L110+12
 4798 1f40 D230A0E3 		mov	r3, #210
 4799 1f44 FEFFFFEB 		bl	Lcd_Draw_Box
 533:../lcd.c      **** 	Lcd_Draw_Box(60,65,260,205,9);
 4800              		.loc 1 533 0
 4801 1f48 0930A0E3 		mov	r3, #9
 4802 1f4c 00308DE5 		str	r3, [sp, #0]
 4803 1f50 3C00A0E3 		mov	r0, #60
 4804 1f54 4110A0E3 		mov	r1, #65
 4805 1f58 412FA0E3 		mov	r2, #260
 4806 1f5c CD30A0E3 		mov	r3, #205
 4807 1f60 FEFFFFEB 		bl	Lcd_Draw_Box
 534:../lcd.c      **** 	Lcd_Draw_Box(70,70,250,200,8);
 4808              		.loc 1 534 0
 4809 1f64 0830A0E3 		mov	r3, #8
 4810 1f68 00308DE5 		str	r3, [sp, #0]
 4811 1f6c 4600A0E3 		mov	r0, #70
 4812 1f70 4610A0E3 		mov	r1, #70
 4813 1f74 FA20A0E3 		mov	r2, #250
 4814 1f78 C830A0E3 		mov	r3, #200
 4815 1f7c FEFFFFEB 		bl	Lcd_Draw_Box
 535:../lcd.c      **** 	Lcd_Draw_Box(80,75,240,195,7);
 4816              		.loc 1 535 0
 4817 1f80 0730A0E3 		mov	r3, #7
 4818 1f84 00308DE5 		str	r3, [sp, #0]
 4819 1f88 5000A0E3 		mov	r0, #80
 4820 1f8c 4B10A0E3 		mov	r1, #75
 4821 1f90 F020A0E3 		mov	r2, #240
 4822 1f94 C330A0E3 		mov	r3, #195
 4823 1f98 FEFFFFEB 		bl	Lcd_Draw_Box
 536:../lcd.c      **** 	Lcd_Draw_Box(90,80,230,190,6);
 4824              		.loc 1 536 0
 4825 1f9c 0630A0E3 		mov	r3, #6
 4826 1fa0 00308DE5 		str	r3, [sp, #0]
 4827 1fa4 5A00A0E3 		mov	r0, #90
 4828 1fa8 5010A0E3 		mov	r1, #80
 4829 1fac E620A0E3 		mov	r2, #230
 4830 1fb0 BE30A0E3 		mov	r3, #190
 4831 1fb4 FEFFFFEB 		bl	Lcd_Draw_Box
 537:../lcd.c      **** 	Lcd_Draw_Box(100,85,220,185,5);
 4832              		.loc 1 537 0
 4833 1fb8 0530A0E3 		mov	r3, #5
 4834 1fbc 00308DE5 		str	r3, [sp, #0]
 4835 1fc0 6400A0E3 		mov	r0, #100
 4836 1fc4 5510A0E3 		mov	r1, #85
 4837 1fc8 DC20A0E3 		mov	r2, #220
 4838 1fcc B930A0E3 		mov	r3, #185
 4839 1fd0 FEFFFFEB 		bl	Lcd_Draw_Box
 538:../lcd.c      **** 	Lcd_Draw_Box(110,90,210,180,4);
 4840              		.loc 1 538 0
 4841 1fd4 0430A0E3 		mov	r3, #4
 4842 1fd8 00308DE5 		str	r3, [sp, #0]
 4843 1fdc 6E00A0E3 		mov	r0, #110
 4844 1fe0 5A10A0E3 		mov	r1, #90
 4845 1fe4 D220A0E3 		mov	r2, #210
 4846 1fe8 B430A0E3 		mov	r3, #180
 4847 1fec FEFFFFEB 		bl	Lcd_Draw_Box
 539:../lcd.c      **** 	Lcd_Draw_Box(120,95,200,175,3);
 4848              		.loc 1 539 0
 4849 1ff0 0330A0E3 		mov	r3, #3
 4850 1ff4 00308DE5 		str	r3, [sp, #0]
 4851 1ff8 7800A0E3 		mov	r0, #120
 4852 1ffc 5F10A0E3 		mov	r1, #95
 4853 2000 C820A0E3 		mov	r2, #200
 4854 2004 AF30A0E3 		mov	r3, #175
 4855 2008 FEFFFFEB 		bl	Lcd_Draw_Box
 540:../lcd.c      **** 	Lcd_Draw_Box(130,100,190,170,2);
 4856              		.loc 1 540 0
 4857 200c 0230A0E3 		mov	r3, #2
 4858 2010 00308DE5 		str	r3, [sp, #0]
 4859 2014 8200A0E3 		mov	r0, #130
 4860 2018 6410A0E3 		mov	r1, #100
 4861 201c BE20A0E3 		mov	r2, #190
 4862 2020 AA30A0E3 		mov	r3, #170
 4863 2024 FEFFFFEB 		bl	Lcd_Draw_Box
 541:../lcd.c      **** 	BitmapView(125,135,Stru_Bitmap_gbMouse);
 4864              		.loc 1 541 0
 4865 2028 3C309FE5 		ldr	r3, .L110+16
 4866 202c 0D20A0E1 		mov	r2, sp
 4867 2030 081083E2 		add	r1, r3, #8
 4868 2034 030091E8 		ldmia	r1, {r0, r1}
 4869 2038 030082E8 		stmia	r2, {r0, r1}
 4870 203c 0C0093E8 		ldmia	r3, {r2, r3}
 4871 2040 7D00A0E3 		mov	r0, #125
 4872 2044 8710A0E3 		mov	r1, #135
 4873 2048 FEFFFFEB 		bl	BitmapView
 542:../lcd.c      **** 	Lcd_Dma_Trans();
 4874              		.loc 1 542 0
 4875 204c FEFFFFEB 		bl	Lcd_Dma_Trans
 543:../lcd.c      **** 
 544:../lcd.c      **** }
 4876              		.loc 1 544 0
 4877 2050 0CD04BE2 		sub	sp, fp, #12
 4878 2054 00689DE8 		ldmfd	sp, {fp, sp, lr}
 4879 2058 1EFF2FE1 		bx	lr
 4880              	.L111:
 4881              		.align	2
 4882              	.L110:
 4883 205c 00000000 		.word	.LC0
 4884 2060 36010000 		.word	310
 4885 2064 22010000 		.word	290
 4886 2068 0E010000 		.word	270
 4887 206c 00000000 		.word	Stru_Bitmap_gbMouse
 4888              		.cfi_endproc
 4889              	.LFE15:
 4891              	.Letext0:
DEFINED SYMBOLS
                            *ABS*:00000000 lcd.c
C:\Users\guest\AppData\Local\Temp\ccaAQ2ik.s:2137   .text:00000000 $a
C:\Users\guest\AppData\Local\Temp\ccaAQ2ik.s:2140   .text:00000000 Lcd_Init
C:\Users\guest\AppData\Local\Temp\ccaAQ2ik.s:2245   .text:00000110 $d
C:\Users\guest\AppData\Local\Temp\ccaAQ2ik.s:4610   .text:00001db4 Zdma0Done
C:\Users\guest\AppData\Local\Temp\ccaAQ2ik.s:2281   .text:00000194 $a
C:\Users\guest\AppData\Local\Temp\ccaAQ2ik.s:2284   .text:00000194 Lcd_Active_Clr
C:\Users\guest\AppData\Local\Temp\ccaAQ2ik.s:2334   .text:000001f8 $d
C:\Users\guest\AppData\Local\Temp\ccaAQ2ik.s:2338   .text:000001fc $a
C:\Users\guest\AppData\Local\Temp\ccaAQ2ik.s:2341   .text:000001fc LCD_GetPixel
C:\Users\guest\AppData\Local\Temp\ccaAQ2ik.s:2422   .text:000002cc Lcd_Clr
C:\Users\guest\AppData\Local\Temp\ccaAQ2ik.s:2472   .text:00000330 $d
C:\Users\guest\AppData\Local\Temp\ccaAQ2ik.s:2477   .text:00000338 $a
C:\Users\guest\AppData\Local\Temp\ccaAQ2ik.s:2480   .text:00000338 LcdClrRect
C:\Users\guest\AppData\Local\Temp\ccaAQ2ik.s:2959   .text:00000988 Lcd_Draw_Box
C:\Users\guest\AppData\Local\Temp\ccaAQ2ik.s:3720   .text:0000137c Lcd_Draw_HLine
C:\Users\guest\AppData\Local\Temp\ccaAQ2ik.s:3886   .text:00001584 Lcd_Draw_VLine
C:\Users\guest\AppData\Local\Temp\ccaAQ2ik.s:3024   .text:00000a24 Lcd_Draw_Line
C:\Users\guest\AppData\Local\Temp\ccaAQ2ik.s:4064   .text:000017bc Lcd_DisplayString
C:\Users\guest\AppData\Local\Temp\ccaAQ2ik.s:4096   .text:000017e8 Lcd_DspAscII8x16
C:\Users\guest\AppData\Local\Temp\ccaAQ2ik.s:4345   .text:00001af8 $d
C:\Users\guest\AppData\Local\Temp\ccaAQ2ik.s:4349   .text:00001afc $a
C:\Users\guest\AppData\Local\Temp\ccaAQ2ik.s:4352   .text:00001afc Lcd_DspAscII6x8
C:\Users\guest\AppData\Local\Temp\ccaAQ2ik.s:4502   .text:00001cbc $d
C:\Users\guest\AppData\Local\Temp\ccaAQ2ik.s:4506   .text:00001cc0 $a
C:\Users\guest\AppData\Local\Temp\ccaAQ2ik.s:4509   .text:00001cc0 ReverseLine
C:\Users\guest\AppData\Local\Temp\ccaAQ2ik.s:4604   .data:00000000 ucZdma0Done
C:\Users\guest\AppData\Local\Temp\ccaAQ2ik.s:4652   .text:00001df8 $d
C:\Users\guest\AppData\Local\Temp\ccaAQ2ik.s:4658   .text:00001e04 $a
C:\Users\guest\AppData\Local\Temp\ccaAQ2ik.s:4661   .text:00001e04 Lcd_Dma_Trans
C:\Users\guest\AppData\Local\Temp\ccaAQ2ik.s:4711   .text:00001e6c $d
C:\Users\guest\AppData\Local\Temp\ccaAQ2ik.s:4723   .rodata:00000000 $d
C:\Users\guest\AppData\Local\Temp\ccaAQ2ik.s:4727   .text:00001e8c $a
C:\Users\guest\AppData\Local\Temp\ccaAQ2ik.s:4730   .text:00001e8c Lcd_Test
C:\Users\guest\AppData\Local\Temp\ccaAQ2ik.s:4883   .text:0000205c $d
                     .debug_frame:00000010 $d

UNDEFINED SYMBOLS
__aeabi_idiv
strlen
g_auc_Ascii8x16
g_auc_Ascii6x8
push_debug
BitmapView
Stru_Bitmap_gbMouse
