   1              		.cpu arm7tdmi
   2              		.fpu softvfp
   3              		.eabi_attribute 20, 1
   4              		.eabi_attribute 21, 1
   5              		.eabi_attribute 23, 3
   6              		.eabi_attribute 24, 1
   7              		.eabi_attribute 25, 1
   8              		.eabi_attribute 26, 1
   9              		.eabi_attribute 30, 2
  10              		.eabi_attribute 18, 4
  11              		.file	"lcd.c"
  21              	.Ltext0:
  22              		.file 1 "../lcd.c"
 2137              		.align	2
 2138              		.global	Zdma0Done
 2140              	Zdma0Done:
 2141              	.LFB13:
   1:../lcd.c      **** /*********************************************************************************************
   2:../lcd.c      **** * Fichero:	lcd.c
   3:../lcd.c      **** * Autor:	
   4:../lcd.c      **** * Descrip:	funciones de visualizacion y control LCD
   5:../lcd.c      **** * Version:	<P6-ARM>
   6:../lcd.c      **** *********************************************************************************************/
   7:../lcd.c      **** 
   8:../lcd.c      **** /*--- ficheros de cabecera ---*/
   9:../lcd.c      **** #include "def.h"
  10:../lcd.c      **** #include "44b.h"
  11:../lcd.c      **** #include "44blib.h"
  12:../lcd.c      **** #include "lcd.h"
  13:../lcd.c      **** #include "Bmp.h"
  14:../lcd.c      **** #include "codigos_eventos.h"
  15:../lcd.c      **** 
  16:../lcd.c      **** /*--- definicion de macros ---*/
  17:../lcd.c      **** #define DMA_Byte  (0)
  18:../lcd.c      **** #define DMA_HW    (1)
  19:../lcd.c      **** #define DMA_Word  (2)
  20:../lcd.c      **** #define DW 		  DMA_Byte		//configura  ZDMA0 como media palabras
  21:../lcd.c      **** 	
  22:../lcd.c      **** /*--- variables externas ---*/
  23:../lcd.c      **** extern INT8U g_auc_Ascii8x16[];
  24:../lcd.c      **** extern INT8U g_auc_Ascii6x8[];
  25:../lcd.c      **** extern STRU_BITMAP Stru_Bitmap_gbMouse;
  26:../lcd.c      **** 
  27:../lcd.c      **** /*--- codigo de la funcion ---*/
  28:../lcd.c      **** void Lcd_Init(void)
  29:../lcd.c      **** {       
  30:../lcd.c      **** 	rDITHMODE=0x1223a;
  31:../lcd.c      **** 	rDP1_2 =0x5a5a;      
  32:../lcd.c      **** 	rDP4_7 =0x366cd9b;
  33:../lcd.c      **** 	rDP3_5 =0xda5a7;
  34:../lcd.c      **** 	rDP2_3 =0xad7;
  35:../lcd.c      **** 	rDP5_7 =0xfeda5b7;
  36:../lcd.c      **** 	rDP3_4 =0xebd7;
  37:../lcd.c      **** 	rDP4_5 =0xebfd7;
  38:../lcd.c      **** 	rDP6_7 =0x7efdfbf;
  39:../lcd.c      **** 
  40:../lcd.c      **** 	rLCDCON1=(0)|(1<<5)|(MVAL_USED<<7)|(0x0<<8)|(0x0<<10)|(CLKVAL_GREY16<<12);
  41:../lcd.c      **** 	rLCDCON2=(LINEVAL)|(HOZVAL<<10)|(10<<21); 
  42:../lcd.c      **** 	rLCDSADDR1= (0x2<<27) | ( ((LCD_ACTIVE_BUFFER>>22)<<21 ) | M5D(LCD_ACTIVE_BUFFER>>1));
  43:../lcd.c      ****  	rLCDSADDR2= M5D(((LCD_ACTIVE_BUFFER+(SCR_XSIZE*LCD_YSIZE/2))>>1)) | (MVAL<<21);
  44:../lcd.c      **** 	rLCDSADDR3= (LCD_XSIZE/4) | ( ((SCR_XSIZE-LCD_XSIZE)/4)<<9 );
  45:../lcd.c      **** 	// enable,4B_SNGL_SCAN,WDLY=8clk,WLH=8clk,
  46:../lcd.c      **** 	rLCDCON1=(1)|(1<<5)|(MVAL_USED<<7)|(0x3<<8)|(0x3<<10)|(CLKVAL_GREY16<<12);
  47:../lcd.c      **** 	rBLUELUT=0xfa40;
  48:../lcd.c      **** 	//Enable LCD Logic and EL back-light.
  49:../lcd.c      **** 	rPDATE=rPDATE&0x0e;
  50:../lcd.c      **** 	
  51:../lcd.c      **** 	//DMA ISR
  52:../lcd.c      **** 	rINTMSK &= ~(BIT_GLOBAL|BIT_ZDMA0);
  53:../lcd.c      ****     pISR_ZDMA0=(int)Zdma0Done;
  54:../lcd.c      **** }
  55:../lcd.c      **** 
  56:../lcd.c      **** /*********************************************************************************************
  57:../lcd.c      **** * name:		Lcd_Active_Clr()
  58:../lcd.c      **** * func:		clear LCD screen
  59:../lcd.c      **** * para:		none 
  60:../lcd.c      **** * ret:		none
  61:../lcd.c      **** * modify:
  62:../lcd.c      **** * comment:		
  63:../lcd.c      **** *********************************************************************************************/
  64:../lcd.c      **** void Lcd_Active_Clr(void)
  65:../lcd.c      **** {
  66:../lcd.c      **** 	INT32U i;
  67:../lcd.c      **** 	INT32U *pDisp = (INT32U *)LCD_ACTIVE_BUFFER;
  68:../lcd.c      **** 	
  69:../lcd.c      **** 	for( i = 0; i < (SCR_XSIZE*SCR_YSIZE/2/4); i++ )
  70:../lcd.c      **** 	{
  71:../lcd.c      **** 		*pDisp++ = WHITE;
  72:../lcd.c      **** 	}
  73:../lcd.c      **** }
  74:../lcd.c      **** 
  75:../lcd.c      **** /*********************************************************************************************
  76:../lcd.c      **** * name:		Lcd_GetPixel()
  77:../lcd.c      **** * func:		Get appointed point's color value
  78:../lcd.c      **** * para:		usX,usY -- pot's X-Y coordinate 
  79:../lcd.c      **** * ret:		pot's color value
  80:../lcd.c      **** * modify:
  81:../lcd.c      **** * comment:		
  82:../lcd.c      **** *********************************************************************************************/
  83:../lcd.c      **** INT8U LCD_GetPixel(INT16U usX, INT16U usY)
  84:../lcd.c      **** {
  85:../lcd.c      **** 	INT8U ucColor;
  86:../lcd.c      **** 
  87:../lcd.c      **** 	ucColor = *((INT8U*)(LCD_VIRTUAL_BUFFER + usY*SCR_XSIZE/2 + usX/8*4 + 3 - (usX%8)/2));
  88:../lcd.c      **** 	ucColor = (ucColor >> ((1-(usX%2))*4)) & 0x0f;
  89:../lcd.c      **** 	return ucColor;
  90:../lcd.c      **** }
  91:../lcd.c      **** 
  92:../lcd.c      **** /*********************************************************************************************
  93:../lcd.c      **** * name:		Lcd_Active_Clr()
  94:../lcd.c      **** * func:		clear virtual screen
  95:../lcd.c      **** * para:		none 
  96:../lcd.c      **** * ret:		none
  97:../lcd.c      **** * modify:
  98:../lcd.c      **** * comment:		
  99:../lcd.c      **** *********************************************************************************************/
 100:../lcd.c      **** void Lcd_Clr(void)
 101:../lcd.c      **** {
 102:../lcd.c      **** 	INT32U i;
 103:../lcd.c      **** 	INT32U *pDisp = (INT32U *)LCD_VIRTUAL_BUFFER;
 104:../lcd.c      **** 	
 105:../lcd.c      **** 	for( i = 0; i < (SCR_XSIZE*SCR_YSIZE/2/4); i++ )
 106:../lcd.c      **** 	{
 107:../lcd.c      **** 		*pDisp++ = WHITE;
 108:../lcd.c      **** 	}
 109:../lcd.c      **** }
 110:../lcd.c      **** 
 111:../lcd.c      **** /*********************************************************************************************
 112:../lcd.c      **** * name:		LcdClrRect()
 113:../lcd.c      **** * func:		fill appointed area with appointed color
 114:../lcd.c      **** * para:		usLeft,usTop,usRight,usBottom -- area's rectangle acme coordinate
 115:../lcd.c      **** *			ucColor -- appointed color value
 116:../lcd.c      **** * ret:		none
 117:../lcd.c      **** * modify:
 118:../lcd.c      **** * comment:	also as clear screen function 
 119:../lcd.c      **** *********************************************************************************************/
 120:../lcd.c      **** void LcdClrRect(INT16 usLeft, INT16 usTop, INT16 usRight, INT16 usBottom, INT8U ucColor)
 121:../lcd.c      **** {
 122:../lcd.c      **** 	volatile INT16 i,k,l,m;
 123:../lcd.c      **** 	
 124:../lcd.c      **** 	INT32U ulColor = (ucColor << 28) | (ucColor << 24) | (ucColor << 20) | (ucColor << 16) | 
 125:../lcd.c      **** 				     (ucColor << 12) | (ucColor << 8) | (ucColor << 4) | ucColor;
 126:../lcd.c      **** 
 127:../lcd.c      **** 	i = k = l = m = 0;	
 128:../lcd.c      **** 	if( (usRight-usLeft) <= 8 )
 129:../lcd.c      **** 	{
 130:../lcd.c      **** 		for( i=usTop; i<=usBottom; i++)
 131:../lcd.c      **** 		{
 132:../lcd.c      **** 			for( m=usLeft; m<=usRight; m++)
 133:../lcd.c      **** 			{
 134:../lcd.c      **** 				(LCD_PutPixel(m, i, ucColor));
 135:../lcd.c      **** 			}
 136:../lcd.c      **** 		}	
 137:../lcd.c      **** 		return;
 138:../lcd.c      **** 	}
 139:../lcd.c      **** 
 140:../lcd.c      **** 	/* check borderline */
 141:../lcd.c      **** 	if( 0 == (usLeft%8) )
 142:../lcd.c      **** 		k=usLeft;
 143:../lcd.c      **** 	else
 144:../lcd.c      **** 	{
 145:../lcd.c      **** 		k=(usLeft/8)*8+8;
 146:../lcd.c      **** 	}
 147:../lcd.c      **** 	if( 0 == (usRight%8) )
 148:../lcd.c      **** 		l= usRight;
 149:../lcd.c      **** 	else
 150:../lcd.c      **** 	{
 151:../lcd.c      **** 		l=(usRight/8)*8;
 152:../lcd.c      **** 	}
 153:../lcd.c      **** 
 154:../lcd.c      **** 	for( i=usTop; i<=usBottom; i++ )
 155:../lcd.c      **** 	{
 156:../lcd.c      **** 		for( m=usLeft; m<=(k-1); m++ )
 157:../lcd.c      **** 		{
 158:../lcd.c      **** 			(LCD_PutPixel(m, i, ucColor));
 159:../lcd.c      **** 		}
 160:../lcd.c      **** 		for( m=k; m<l; m+=8 )
 161:../lcd.c      **** 		{
 162:../lcd.c      **** 			(*(INT32U*)(LCD_VIRTUAL_BUFFER + i * SCR_XSIZE / 2 + m / 2)) = ulColor;
 163:../lcd.c      **** 		}
 164:../lcd.c      **** 		for( m=l; m<=usRight; m++ )
 165:../lcd.c      **** 		{
 166:../lcd.c      **** 			(LCD_PutPixel(m, i, ucColor));
 167:../lcd.c      **** 		}
 168:../lcd.c      **** 	}
 169:../lcd.c      **** }
 170:../lcd.c      **** 
 171:../lcd.c      **** /*********************************************************************************************
 172:../lcd.c      **** * name:		Lcd_Draw_Box()
 173:../lcd.c      **** * func:		Draw rectangle with appointed color
 174:../lcd.c      **** * para:		usLeft,usTop,usRight,usBottom -- rectangle's acme coordinate
 175:../lcd.c      **** *			ucColor -- appointed color value
 176:../lcd.c      **** * ret:		none
 177:../lcd.c      **** * modify:
 178:../lcd.c      **** * comment:		
 179:../lcd.c      **** *********************************************************************************************/
 180:../lcd.c      **** void Lcd_Draw_Box(INT16 usLeft, INT16 usTop, INT16 usRight, INT16 usBottom, INT8U ucColor)
 181:../lcd.c      **** {
 182:../lcd.c      **** 	Lcd_Draw_HLine(usLeft, usRight,  usTop,    ucColor, 1);
 183:../lcd.c      **** 	Lcd_Draw_HLine(usLeft, usRight,  usBottom, ucColor, 1);
 184:../lcd.c      **** 	Lcd_Draw_VLine(usTop,  usBottom, usLeft,   ucColor, 1);
 185:../lcd.c      **** 	Lcd_Draw_VLine(usTop,  usBottom, usRight,  ucColor, 1);
 186:../lcd.c      **** }
 187:../lcd.c      **** 
 188:../lcd.c      **** /*********************************************************************************************
 189:../lcd.c      **** * name:		Lcd_Draw_Line()
 190:../lcd.c      **** * func:		Draw line with appointed color
 191:../lcd.c      **** * para:		usX0,usY0 -- line's start point coordinate
 192:../lcd.c      **** *			usX1,usY1 -- line's end point coordinate
 193:../lcd.c      **** *			ucColor -- appointed color value
 194:../lcd.c      **** *			usWidth -- line's width
 195:../lcd.c      **** * ret:		none
 196:../lcd.c      **** * modify:
 197:../lcd.c      **** * comment:		
 198:../lcd.c      **** *********************************************************************************************/
 199:../lcd.c      **** void Lcd_Draw_Line(INT16 usX0, INT16 usY0, INT16 usX1, INT16 usY1, INT8U ucColor, INT16U usWidth)
 200:../lcd.c      **** {
 201:../lcd.c      **** 	INT16 usDx;
 202:../lcd.c      **** 	INT16 usDy;
 203:../lcd.c      **** 	INT16 y_sign;
 204:../lcd.c      **** 	INT16 x_sign;
 205:../lcd.c      **** 	INT16 decision;
 206:../lcd.c      **** 	INT16 wCurx, wCury, wNextx, wNexty, wpy, wpx;
 207:../lcd.c      **** 
 208:../lcd.c      **** 	if( usY0 == usY1 )
 209:../lcd.c      **** 	{
 210:../lcd.c      **** 		Lcd_Draw_HLine (usX0, usX1, usY0, ucColor, usWidth);
 211:../lcd.c      **** 		return;
 212:../lcd.c      **** 	}
 213:../lcd.c      **** 	if( usX0 == usX1 )
 214:../lcd.c      **** 	{
 215:../lcd.c      **** 		Lcd_Draw_VLine (usY0, usY1, usX0, ucColor, usWidth);
 216:../lcd.c      **** 		return;
 217:../lcd.c      **** 	}
 218:../lcd.c      **** 	usDx = abs(usX0 - usX1);
 219:../lcd.c      **** 	usDy = abs(usY0 - usY1);
 220:../lcd.c      **** 	if( ((usDx >= usDy && (usX0 > usX1)) ||
 221:../lcd.c      ****         ((usDy > usDx) && (usY0 > usY1))) )
 222:../lcd.c      ****     {
 223:../lcd.c      ****         GUISWAP(usX1, usX0);
 224:../lcd.c      ****         GUISWAP(usY1, usY0);
 225:../lcd.c      ****     }
 226:../lcd.c      ****     y_sign = (usY1 - usY0) / usDy;
 227:../lcd.c      ****     x_sign = (usX1 - usX0) / usDx;
 228:../lcd.c      **** 
 229:../lcd.c      ****     if( usDx >= usDy )
 230:../lcd.c      ****     {
 231:../lcd.c      ****         for( wCurx = usX0, wCury = usY0, wNextx = usX1,
 232:../lcd.c      ****              wNexty = usY1, decision = (usDx >> 1);
 233:../lcd.c      ****              wCurx <= wNextx; wCurx++, wNextx--, decision += usDy )
 234:../lcd.c      ****         {
 235:../lcd.c      ****             if( decision >= usDx )
 236:../lcd.c      ****             {
 237:../lcd.c      ****                 decision -= usDx;
 238:../lcd.c      ****                 wCury += y_sign;
 239:../lcd.c      ****                 wNexty -= y_sign;
 240:../lcd.c      ****             }
 241:../lcd.c      ****             for( wpy = wCury - usWidth / 2;
 242:../lcd.c      ****                  wpy <= wCury + usWidth / 2; wpy++ )
 243:../lcd.c      ****             {
 244:../lcd.c      ****                 (LCD_PutPixel(wCurx, wpy, ucColor));
 245:../lcd.c      ****             }
 246:../lcd.c      **** 
 247:../lcd.c      ****             for( wpy = wNexty - usWidth / 2;
 248:../lcd.c      ****                  wpy <= wNexty + usWidth / 2; wpy++ )
 249:../lcd.c      ****             {
 250:../lcd.c      ****                 (LCD_PutPixel(wNextx, wpy, ucColor));
 251:../lcd.c      ****             }
 252:../lcd.c      ****         }
 253:../lcd.c      ****     }
 254:../lcd.c      ****     else
 255:../lcd.c      ****     {
 256:../lcd.c      ****         for( wCurx = usX0, wCury = usY0, wNextx = usX1,
 257:../lcd.c      ****              wNexty = usY1, decision = (usDy >> 1);
 258:../lcd.c      ****              wCury <= wNexty; wCury++, wNexty--, decision += usDx )
 259:../lcd.c      ****         {
 260:../lcd.c      ****             if( decision >= usDy )
 261:../lcd.c      ****             {
 262:../lcd.c      ****                 decision -= usDy;
 263:../lcd.c      ****                 wCurx += x_sign;
 264:../lcd.c      ****                 wNextx -= x_sign;
 265:../lcd.c      ****             }
 266:../lcd.c      ****             for( wpx = wCurx - usWidth / 2;
 267:../lcd.c      ****                  wpx <= wCurx + usWidth / 2; wpx++ )
 268:../lcd.c      ****             {
 269:../lcd.c      ****                 (LCD_PutPixel(wpx, wCury, ucColor));
 270:../lcd.c      ****             }
 271:../lcd.c      **** 
 272:../lcd.c      ****             for( wpx = wNextx - usWidth / 2;
 273:../lcd.c      ****                  wpx <= wNextx + usWidth / 2; wpx++ )
 274:../lcd.c      ****             {
 275:../lcd.c      ****                 (LCD_PutPixel(wpx, wNexty, ucColor));
 276:../lcd.c      ****             }
 277:../lcd.c      ****         }
 278:../lcd.c      ****     }
 279:../lcd.c      **** }
 280:../lcd.c      **** 
 281:../lcd.c      **** /*********************************************************************************************
 282:../lcd.c      **** * name:		Lcd_Draw_HLine()
 283:../lcd.c      **** * func:		Draw horizontal line with appointed color
 284:../lcd.c      **** * para:		usX0,usY0 -- line's start point coordinate
 285:../lcd.c      **** *			usX1 -- line's end point X-coordinate
 286:../lcd.c      **** *			ucColor -- appointed color value
 287:../lcd.c      **** *			usWidth -- line's width
 288:../lcd.c      **** * ret:		none
 289:../lcd.c      **** * modify:
 290:../lcd.c      **** * comment:		
 291:../lcd.c      **** *********************************************************************************************/
 292:../lcd.c      **** void Lcd_Draw_HLine(INT16 usX0, INT16 usX1, INT16 usY0, INT8U ucColor, INT16U usWidth)
 293:../lcd.c      **** {
 294:../lcd.c      **** 	INT16 usLen;
 295:../lcd.c      **** 
 296:../lcd.c      ****     if( usX1 < usX0 )
 297:../lcd.c      ****     {
 298:../lcd.c      ****         GUISWAP (usX1, usX0);
 299:../lcd.c      ****     }
 300:../lcd.c      **** 
 301:../lcd.c      ****     while( (usWidth--) > 0 )
 302:../lcd.c      ****     {
 303:../lcd.c      ****         usLen = usX1 - usX0 + 1;
 304:../lcd.c      ****         while( (usLen--) > 0 )
 305:../lcd.c      ****         {
 306:../lcd.c      ****         	(LCD_PutPixel(usX0 + usLen, usY0, ucColor));
 307:../lcd.c      ****         }
 308:../lcd.c      ****         usY0++;
 309:../lcd.c      ****     }
 310:../lcd.c      **** }
 311:../lcd.c      **** 
 312:../lcd.c      **** /*********************************************************************************************
 313:../lcd.c      **** * name:		Lcd_Draw_VLine()
 314:../lcd.c      **** * func:		Draw vertical line with appointed color
 315:../lcd.c      **** * para:		usX0,usY0 -- line's start point coordinate
 316:../lcd.c      **** *			usY1 -- line's end point Y-coordinate
 317:../lcd.c      **** *			ucColor -- appointed color value
 318:../lcd.c      **** *			usWidth -- line's width
 319:../lcd.c      **** * ret:		none
 320:../lcd.c      **** * modify:
 321:../lcd.c      **** * comment:		
 322:../lcd.c      **** *********************************************************************************************/
 323:../lcd.c      **** void Lcd_Draw_VLine (INT16 usY0, INT16 usY1, INT16 usX0, INT8U ucColor, INT16U usWidth)
 324:../lcd.c      **** {
 325:../lcd.c      **** 	INT16 usLen;
 326:../lcd.c      **** 
 327:../lcd.c      ****     if( usY1 < usY0 )
 328:../lcd.c      ****     {
 329:../lcd.c      ****         GUISWAP (usY1, usY0);
 330:../lcd.c      ****     }
 331:../lcd.c      **** 
 332:../lcd.c      ****     while( (usWidth--) > 0 )
 333:../lcd.c      ****     {
 334:../lcd.c      ****         usLen = usY1 - usY0 + 1;
 335:../lcd.c      ****         while( (usLen--) > 0 )
 336:../lcd.c      ****         {
 337:../lcd.c      ****         	(LCD_PutPixel(usX0, usY0 + usLen, ucColor));
 338:../lcd.c      ****         }
 339:../lcd.c      ****         usX0++;
 340:../lcd.c      ****     }
 341:../lcd.c      **** }
 342:../lcd.c      **** 
 343:../lcd.c      **** void Lcd_DisplayString(INT16U usX0, INT16U usY0, INT8U *pucStr){
 344:../lcd.c      **** 
 345:../lcd.c      **** }
 346:../lcd.c      **** 
 347:../lcd.c      **** /*********************************************************************************************
 348:../lcd.c      **** * name:		Lcd_DspAscII8x16()
 349:../lcd.c      **** * func:		display 8x16 ASCII character string 
 350:../lcd.c      **** * para:		usX0,usY0 -- ASCII character string's start point coordinate
 351:../lcd.c      **** *			ForeColor -- appointed color value
 352:../lcd.c      **** *			pucChar   -- ASCII character string
 353:../lcd.c      **** * ret:		none
 354:../lcd.c      **** * modify:
 355:../lcd.c      **** * comment:		
 356:../lcd.c      **** *********************************************************************************************/
 357:../lcd.c      **** void Lcd_DspAscII8x16(INT16U x0, INT16U y0, INT8U ForeColor, INT8U * s)
 358:../lcd.c      **** {
 359:../lcd.c      **** 	INT16 i,j,k,x,y,xx;
 360:../lcd.c      **** 	INT8U qm;
 361:../lcd.c      **** 	INT32U ulOffset;
 362:../lcd.c      **** 	INT8 ywbuf[16],temp[2];
 363:../lcd.c      ****     
 364:../lcd.c      **** 	for( i = 0; i < strlen((const char*)s); i++ )
 365:../lcd.c      **** 	{
 366:../lcd.c      **** 		if( (INT8U)*(s+i) >= 161 )
 367:../lcd.c      **** 		{
 368:../lcd.c      **** 			temp[0] = *(s + i);
 369:../lcd.c      **** 			temp[1] = '\0';
 370:../lcd.c      **** 			return;
 371:../lcd.c      **** 		}
 372:../lcd.c      **** 		else
 373:../lcd.c      **** 		{
 374:../lcd.c      **** 			qm = *(s+i);
 375:../lcd.c      **** 			ulOffset = (INT32U)(qm) * 16;		//Here to be changed tomorrow
 376:../lcd.c      **** 			for( j = 0; j < 16; j ++ )
 377:../lcd.c      **** 			{
 378:../lcd.c      **** 				ywbuf[j] = g_auc_Ascii8x16[ulOffset + j];
 379:../lcd.c      ****             }
 380:../lcd.c      **** 
 381:../lcd.c      ****             for( y = 0; y < 16; y++ )
 382:../lcd.c      ****             {
 383:../lcd.c      ****             	for( x = 0; x < 8; x++ ) 
 384:../lcd.c      ****                	{
 385:../lcd.c      ****                 	k = x % 8;
 386:../lcd.c      **** 			    	if( ywbuf[y]  & (0x80 >> k) )
 387:../lcd.c      **** 			       	{
 388:../lcd.c      **** 			       		xx = x0 + x + i*8;
 389:../lcd.c      **** 			       		(LCD_PutPixel(xx, y + y0, (INT8U)ForeColor));
 390:../lcd.c      **** 			       	}
 391:../lcd.c      **** 			   	}
 392:../lcd.c      ****             }
 393:../lcd.c      **** 		}
 394:../lcd.c      **** 	}
 395:../lcd.c      **** }
 396:../lcd.c      **** 
 397:../lcd.c      **** /*********************************************************************************************
 398:../lcd.c      **** * name:		Lcd_DspAscII6x8()
 399:../lcd.c      **** * func:		display 6x8 ASCII character string
 400:../lcd.c      **** * para:		usX0,usY0 -- ASCII character string's start point coordinate
 401:../lcd.c      **** *			ForeColor -- appointed color value
 402:../lcd.c      **** *			pucChar   -- ASCII character string
 403:../lcd.c      **** * ret:		none
 404:../lcd.c      **** * modify:
 405:../lcd.c      **** * comment:
 406:../lcd.c      **** *********************************************************************************************/
 407:../lcd.c      **** void Lcd_DspAscII6x8(INT16U usX0, INT16U usY0,INT8U ForeColor, INT8U* pucChar)
 408:../lcd.c      **** {
 409:../lcd.c      **** 	INT32U i,j;
 410:../lcd.c      **** 	INT8U  ucTemp;
 411:../lcd.c      **** 
 412:../lcd.c      **** 	while( *pucChar != 0 )
 413:../lcd.c      **** 	{
 414:../lcd.c      **** 		for( i=0; i < 8; i++ )
 415:../lcd.c      **** 		{
 416:../lcd.c      ****   			ucTemp = g_auc_Ascii6x8[(*pucChar) * 8 + i];
 417:../lcd.c      ****   			for( j = 0; j < 8; j++ )
 418:../lcd.c      ****   			{
 419:../lcd.c      ****   				if( (ucTemp & (0x80 >> j)) != 0 )
 420:../lcd.c      ****   				{
 421:../lcd.c      ****   					LCD_PutPixel(usX0 + i, usY0 + 8 - j, (INT8U)ForeColor);
 422:../lcd.c      ****   				}
 423:../lcd.c      ****   			}
 424:../lcd.c      **** 		}
 425:../lcd.c      **** 		usX0 += XWIDTH;
 426:../lcd.c      **** 		pucChar++;
 427:../lcd.c      **** 	}
 428:../lcd.c      **** }
 429:../lcd.c      **** 
 430:../lcd.c      **** 
 431:../lcd.c      **** /*********************************************************************************************
 432:../lcd.c      **** * name:		ReverseLine()
 433:../lcd.c      **** * func:		Reverse display some lines 
 434:../lcd.c      **** * para:		ulHeight -- line's height
 435:../lcd.c      **** *			ulY -- line's Y-coordinate
 436:../lcd.c      **** * ret:		none
 437:../lcd.c      **** * modify:
 438:../lcd.c      **** * comment:		
 439:../lcd.c      **** *********************************************************************************************/
 440:../lcd.c      **** void ReverseLine(INT32U ulHeight, INT32U ulY)
 441:../lcd.c      **** {
 442:../lcd.c      **** 	INT32U i, j, temp;
 443:../lcd.c      **** 	
 444:../lcd.c      **** 	for( i = 0; i < ulHeight; i++ )
 445:../lcd.c      **** 	{
 446:../lcd.c      **** 		for( j = 0; j < (SCR_XSIZE/4/2) ; j++ )
 447:../lcd.c      **** 		{
 448:../lcd.c      **** 			temp = *(INT32U*)(LCD_VIRTUAL_BUFFER + (ulY+i)*SCR_XSIZE/2 + j*4);
 449:../lcd.c      **** 			temp ^= 0xFFFFFFFF;
 450:../lcd.c      **** 			*(INT32U*)(LCD_VIRTUAL_BUFFER + (ulY+i)*SCR_XSIZE/2 + j*4) = temp;
 451:../lcd.c      **** 		}
 452:../lcd.c      **** 	}
 453:../lcd.c      **** }
 454:../lcd.c      **** 
 455:../lcd.c      **** /*********************************************************************************************
 456:../lcd.c      **** * name:		Zdma0Done()
 457:../lcd.c      **** * func:		LCD dma interrupt handle function
 458:../lcd.c      **** * para:		none
 459:../lcd.c      **** * ret:		none
 460:../lcd.c      **** * modify:
 461:../lcd.c      **** * comment:		
 462:../lcd.c      **** *********************************************************************************************/
 463:../lcd.c      **** volatile static INT8U ucZdma0Done=1;	//When DMA is finish,ucZdma0Done is cleared to Zero
 464:../lcd.c      **** void Zdma0Done(void)
 465:../lcd.c      **** {
 2142              		.loc 1 465 0
 2143              		.cfi_startproc
 2144              		@ Interrupt Service Routine.
 2145              		@ args = 0, pretend = 0, frame = 0
 2146              		@ frame_needed = 0, uses_anonymous_args = 0
 2147              		@ link register save eliminated.
 2148 0000 0E002DE9 		stmfd	sp!, {r1, r2, r3}
 2149              	.LCFI0:
 2150              		.cfi_def_cfa_offset 12
 466:../lcd.c      **** 	rI_ISPC=BIT_ZDMA0;	    //clear pending
 2151              		.loc 1 466 0
 2152 0004 0217A0E3 		mov	r1, #524288
 2153              		.cfi_offset 3, -4
 2154              		.cfi_offset 2, -8
 2155              		.cfi_offset 1, -12
 2156 0008 1E26A0E3 		mov	r2, #31457280
 2157 000c 241082E5 		str	r1, [r2, #36]
 467:../lcd.c      **** 	//TODO poner algo en cola de depuración????
 468:../lcd.c      **** 	//push_debug(ev_finLCD,no_info);	//TODO creo que si lo hago como ha dicho dario es mejor quitar es
 469:../lcd.c      **** 	haciendo_DMA = 0;
 2158              		.loc 1 469 0
 2159 0010 14109FE5 		ldr	r1, .L2
 470:../lcd.c      **** 	ucZdma0Done=0;			//TODO creo que no hace falta para nada
 2160              		.loc 1 470 0
 2161 0014 14209FE5 		ldr	r2, .L2+4
 469:../lcd.c      **** 	haciendo_DMA = 0;
 2162              		.loc 1 469 0
 2163 0018 0030A0E3 		mov	r3, #0
 2164 001c 003081E5 		str	r3, [r1, #0]
 2165              		.loc 1 470 0
 2166 0020 0030C2E5 		strb	r3, [r2, #0]
 471:../lcd.c      **** }
 2167              		.loc 1 471 0
 2168 0024 0E00BDE8 		ldmfd	sp!, {r1, r2, r3}
 2169 0028 04F05EE2 		subs	pc, lr, #4
 2170              	.L3:
 2171              		.align	2
 2172              	.L2:
 2173 002c 00000000 		.word	haciendo_DMA
 2174 0030 00000000 		.word	.LANCHOR0
 2175              		.cfi_endproc
 2176              	.LFE13:
 2178              		.align	2
 2179              		.global	Lcd_Init
 2181              	Lcd_Init:
 2182              	.LFB0:
  29:../lcd.c      **** {       
 2183              		.loc 1 29 0
 2184              		.cfi_startproc
 2185              		@ Function supports interworking.
 2186              		@ args = 0, pretend = 0, frame = 0
 2187              		@ frame_needed = 0, uses_anonymous_args = 0
 2188              		@ link register save eliminated.
  30:../lcd.c      **** 	rDITHMODE=0x1223a;
 2189              		.loc 1 30 0
 2190 0034 B0009FE5 		ldr	r0, .L5
  31:../lcd.c      **** 	rDP1_2 =0x5a5a;      
 2191              		.loc 1 31 0
 2192 0038 B0109FE5 		ldr	r1, .L5+4
  32:../lcd.c      **** 	rDP4_7 =0x366cd9b;
 2193              		.loc 1 32 0
 2194 003c B0209FE5 		ldr	r2, .L5+8
  33:../lcd.c      **** 	rDP3_5 =0xda5a7;
 2195              		.loc 1 33 0
 2196 0040 B0C09FE5 		ldr	ip, .L5+12
  30:../lcd.c      **** 	rDITHMODE=0x1223a;
 2197              		.loc 1 30 0
 2198 0044 1F36A0E3 		mov	r3, #32505856
 2199 0048 440083E5 		str	r0, [r3, #68]
  31:../lcd.c      **** 	rDP1_2 =0x5a5a;      
 2200              		.loc 1 31 0
 2201 004c 201083E5 		str	r1, [r3, #32]
  32:../lcd.c      **** 	rDP4_7 =0x366cd9b;
 2202              		.loc 1 32 0
 2203 0050 242083E5 		str	r2, [r3, #36]
  34:../lcd.c      **** 	rDP2_3 =0xad7;
 2204              		.loc 1 34 0
 2205 0054 A0109FE5 		ldr	r1, .L5+16
  33:../lcd.c      **** 	rDP3_5 =0xda5a7;
 2206              		.loc 1 33 0
 2207 0058 28C083E5 		str	ip, [r3, #40]
  35:../lcd.c      **** 	rDP5_7 =0xfeda5b7;
 2208              		.loc 1 35 0
 2209 005c 9C209FE5 		ldr	r2, .L5+20
  36:../lcd.c      **** 	rDP3_4 =0xebd7;
 2210              		.loc 1 36 0
 2211 0060 9CC09FE5 		ldr	ip, .L5+24
  34:../lcd.c      **** 	rDP2_3 =0xad7;
 2212              		.loc 1 34 0
 2213 0064 2C1083E5 		str	r1, [r3, #44]
  35:../lcd.c      **** 	rDP5_7 =0xfeda5b7;
 2214              		.loc 1 35 0
 2215 0068 302083E5 		str	r2, [r3, #48]
  37:../lcd.c      **** 	rDP4_5 =0xebfd7;
 2216              		.loc 1 37 0
 2217 006c 94109FE5 		ldr	r1, .L5+28
  36:../lcd.c      **** 	rDP3_4 =0xebd7;
 2218              		.loc 1 36 0
 2219 0070 34C083E5 		str	ip, [r3, #52]
  38:../lcd.c      **** 	rDP6_7 =0x7efdfbf;
 2220              		.loc 1 38 0
 2221 0074 90209FE5 		ldr	r2, .L5+32
  40:../lcd.c      **** 	rLCDCON1=(0)|(1<<5)|(MVAL_USED<<7)|(0x0<<8)|(0x0<<10)|(CLKVAL_GREY16<<12);
 2222              		.loc 1 40 0
 2223 0078 90C09FE5 		ldr	ip, .L5+36
  37:../lcd.c      **** 	rDP4_5 =0xebfd7;
 2224              		.loc 1 37 0
 2225 007c 381083E5 		str	r1, [r3, #56]
  38:../lcd.c      **** 	rDP6_7 =0x7efdfbf;
 2226              		.loc 1 38 0
 2227 0080 3C2083E5 		str	r2, [r3, #60]
  41:../lcd.c      **** 	rLCDCON2=(LINEVAL)|(HOZVAL<<10)|(10<<21); 
 2228              		.loc 1 41 0
 2229 0084 88109FE5 		ldr	r1, .L5+40
  40:../lcd.c      **** 	rLCDCON1=(0)|(1<<5)|(MVAL_USED<<7)|(0x0<<8)|(0x0<<10)|(CLKVAL_GREY16<<12);
 2230              		.loc 1 40 0
 2231 0088 00C083E5 		str	ip, [r3, #0]
  42:../lcd.c      **** 	rLCDSADDR1= (0x2<<27) | ( ((LCD_ACTIVE_BUFFER>>22)<<21 ) | M5D(LCD_ACTIVE_BUFFER>>1));
 2232              		.loc 1 42 0
 2233 008c 84209FE5 		ldr	r2, .L5+44
  43:../lcd.c      ****  	rLCDSADDR2= M5D(((LCD_ACTIVE_BUFFER+(SCR_XSIZE*LCD_YSIZE/2))>>1)) | (MVAL<<21);
 2234              		.loc 1 43 0
 2235 0090 84C09FE5 		ldr	ip, .L5+48
  41:../lcd.c      **** 	rLCDCON2=(LINEVAL)|(HOZVAL<<10)|(10<<21); 
 2236              		.loc 1 41 0
 2237 0094 041083E5 		str	r1, [r3, #4]
  42:../lcd.c      **** 	rLCDSADDR1= (0x2<<27) | ( ((LCD_ACTIVE_BUFFER>>22)<<21 ) | M5D(LCD_ACTIVE_BUFFER>>1));
 2238              		.loc 1 42 0
 2239 0098 082083E5 		str	r2, [r3, #8]
  43:../lcd.c      ****  	rLCDSADDR2= M5D(((LCD_ACTIVE_BUFFER+(SCR_XSIZE*LCD_YSIZE/2))>>1)) | (MVAL<<21);
 2240              		.loc 1 43 0
 2241 009c 0CC083E5 		str	ip, [r3, #12]
  46:../lcd.c      **** 	rLCDCON1=(1)|(1<<5)|(MVAL_USED<<7)|(0x3<<8)|(0x3<<10)|(CLKVAL_GREY16<<12);
 2242              		.loc 1 46 0
 2243 00a0 78209FE5 		ldr	r2, .L5+52
  47:../lcd.c      **** 	rBLUELUT=0xfa40;
 2244              		.loc 1 47 0
 2245 00a4 78C09FE5 		ldr	ip, .L5+56
  44:../lcd.c      **** 	rLCDSADDR3= (LCD_XSIZE/4) | ( ((SCR_XSIZE-LCD_XSIZE)/4)<<9 );
 2246              		.loc 1 44 0
 2247 00a8 5010A0E3 		mov	r1, #80
 2248 00ac 101083E5 		str	r1, [r3, #16]
  49:../lcd.c      **** 	rPDATE=rPDATE&0x0e;
 2249              		.loc 1 49 0
 2250 00b0 70009FE5 		ldr	r0, .L5+60
  46:../lcd.c      **** 	rLCDCON1=(1)|(1<<5)|(MVAL_USED<<7)|(0x3<<8)|(0x3<<10)|(CLKVAL_GREY16<<12);
 2251              		.loc 1 46 0
 2252 00b4 002083E5 		str	r2, [r3, #0]
  47:../lcd.c      **** 	rBLUELUT=0xfa40;
 2253              		.loc 1 47 0
 2254 00b8 1CC083E5 		str	ip, [r3, #28]
  49:../lcd.c      **** 	rPDATE=rPDATE&0x0e;
 2255              		.loc 1 49 0
 2256 00bc 2C1090E5 		ldr	r1, [r0, #44]
 2257 00c0 0E3001E2 		and	r3, r1, #14
 2258 00c4 2C3080E5 		str	r3, [r0, #44]
  52:../lcd.c      **** 	rINTMSK &= ~(BIT_GLOBAL|BIT_ZDMA0);
 2259              		.loc 1 52 0
 2260 00c8 1E16A0E3 		mov	r1, #31457280
 2261 00cc 0C2091E5 		ldr	r2, [r1, #12]
  53:../lcd.c      ****     pISR_ZDMA0=(int)Zdma0Done;
 2262              		.loc 1 53 0
 2263 00d0 54309FE5 		ldr	r3, .L5+64
  52:../lcd.c      **** 	rINTMSK &= ~(BIT_GLOBAL|BIT_ZDMA0);
 2264              		.loc 1 52 0
 2265 00d4 01C3C2E3 		bic	ip, r2, #67108864
  53:../lcd.c      ****     pISR_ZDMA0=(int)Zdma0Done;
 2266              		.loc 1 53 0
 2267 00d8 50209FE5 		ldr	r2, .L5+68
  52:../lcd.c      **** 	rINTMSK &= ~(BIT_GLOBAL|BIT_ZDMA0);
 2268              		.loc 1 52 0
 2269 00dc 0207CCE3 		bic	r0, ip, #524288
 2270 00e0 0C0081E5 		str	r0, [r1, #12]
  53:../lcd.c      ****     pISR_ZDMA0=(int)Zdma0Done;
 2271              		.loc 1 53 0
 2272 00e4 932003E5 		str	r2, [r3, #-147]
  54:../lcd.c      **** }
 2273              		.loc 1 54 0
 2274 00e8 1EFF2FE1 		bx	lr
 2275              	.L6:
 2276              		.align	2
 2277              	.L5:
 2278 00ec 3A220100 		.word	74298
 2279 00f0 5A5A0000 		.word	23130
 2280 00f4 9BCD6603 		.word	57068955
 2281 00f8 A7A50D00 		.word	894375
 2282 00fc D70A0000 		.word	2775
 2283 0100 B7A5ED0F 		.word	267232695
 2284 0104 D7EB0000 		.word	60375
 2285 0108 D7BF0E00 		.word	966615
 2286 010c BFDFEF07 		.word	133160895
 2287 0110 20C00000 		.word	49184
 2288 0114 EF3C4101 		.word	21052655
 2289 0118 00001816 		.word	370671616
 2290 011c 004BB801 		.word	28855040
 2291 0120 21CF0000 		.word	53025
 2292 0124 40FA0000 		.word	64064
 2293 0128 0000D201 		.word	30539776
 2294 012c FFFF7F0C 		.word	209715199
 2295 0130 00000000 		.word	Zdma0Done
 2296              		.cfi_endproc
 2297              	.LFE0:
 2299              		.align	2
 2300              		.global	Lcd_Active_Clr
 2302              	Lcd_Active_Clr:
 2303              	.LFB1:
  65:../lcd.c      **** {
 2304              		.loc 1 65 0
 2305              		.cfi_startproc
 2306              		@ Function supports interworking.
 2307              		@ args = 0, pretend = 0, frame = 0
 2308              		@ frame_needed = 0, uses_anonymous_args = 0
 2309              		@ link register save eliminated.
 2310              	.LVL0:
  69:../lcd.c      **** 	for( i = 0; i < (SCR_XSIZE*SCR_YSIZE/2/4); i++ )
 2311              		.loc 1 69 0
 2312 0134 28009FE5 		ldr	r0, .L14
  67:../lcd.c      **** 	INT32U *pDisp = (INT32U *)LCD_ACTIVE_BUFFER;
 2313              		.loc 1 67 0
 2314 0138 C336A0E3 		mov	r3, #204472320
  71:../lcd.c      **** 		*pDisp++ = WHITE;
 2315              		.loc 1 71 0
 2316 013c 0020A0E3 		mov	r2, #0
 2317              	.LVL1:
 2318              	.L8:
  71:../lcd.c      **** 		*pDisp++ = WHITE;
 2319              		.loc 1 71 0 is_stmt 0 discriminator 2
 2320 0140 0310A0E1 		mov	r1, r3
 2321 0144 042081E4 		str	r2, [r1], #4
 2322              	.LVL2:
 2323 0148 042083E5 		str	r2, [r3, #4]
 2324 014c 042081E5 		str	r2, [r1, #4]
 2325 0150 0C2083E5 		str	r2, [r3, #12]
 2326 0154 103083E2 		add	r3, r3, #16
 2327              	.LVL3:
  69:../lcd.c      **** 	for( i = 0; i < (SCR_XSIZE*SCR_YSIZE/2/4); i++ )
 2328              		.loc 1 69 0 is_stmt 1 discriminator 2
 2329 0158 000053E1 		cmp	r3, r0
 2330 015c F7FFFF1A 		bne	.L8
  73:../lcd.c      **** }
 2331              		.loc 1 73 0
 2332 0160 1EFF2FE1 		bx	lr
 2333              	.L15:
 2334              		.align	2
 2335              	.L14:
 2336 0164 0096300C 		.word	204510720
 2337              		.cfi_endproc
 2338              	.LFE1:
 2340              		.align	2
 2341              		.global	LCD_GetPixel
 2343              	LCD_GetPixel:
 2344              	.LFB2:
  84:../lcd.c      **** {
 2345              		.loc 1 84 0
 2346              		.cfi_startproc
 2347              		@ Function supports interworking.
 2348              		@ args = 0, pretend = 0, frame = 0
 2349              		@ frame_needed = 0, uses_anonymous_args = 0
 2350              		@ link register save eliminated.
 2351              	.LVL4:
  87:../lcd.c      **** 	ucColor = *((INT8U*)(LCD_VIRTUAL_BUFFER + usY*SCR_XSIZE/2 + usX/8*4 + 3 - (usX%8)/2));
 2352              		.loc 1 87 0
 2353 0168 013181E0 		add	r3, r1, r1, asl #2
 2354 016c 8321A0E1 		mov	r2, r3, asl #3
 2355 0170 A0C0A0E1 		mov	ip, r0, lsr #1
 2356 0174 A01182E0 		add	r1, r2, r0, lsr #3
 2357              	.LVL5:
 2358 0178 03300CE2 		and	r3, ip, #3
 2359 017c C32781E2 		add	r2, r1, #51118080
 2360 0180 03C063E2 		rsb	ip, r3, #3
 2361 0184 961D82E2 		add	r1, r2, #9600
  88:../lcd.c      **** 	ucColor = (ucColor >> ((1-(usX%2))*4)) & 0x0f;
 2362              		.loc 1 88 0
 2363 0188 010010E3 		tst	r0, #1
 2364 018c 0121DCE7 		ldrb	r2, [ip, r1, asl #2]	@ zero_extendqisi2
 2365 0190 0430A003 		moveq	r3, #4
 2366 0194 0030A013 		movne	r3, #0
 2367              	.LVL6:
 2368 0198 5203A0E1 		mov	r0, r2, asr r3
 2369              	.LVL7:
  90:../lcd.c      **** }
 2370              		.loc 1 90 0
 2371 019c 0F0000E2 		and	r0, r0, #15
 2372 01a0 1EFF2FE1 		bx	lr
 2373              		.cfi_endproc
 2374              	.LFE2:
 2376              		.align	2
 2377              		.global	Lcd_Clr
 2379              	Lcd_Clr:
 2380              	.LFB3:
 101:../lcd.c      **** {
 2381              		.loc 1 101 0
 2382              		.cfi_startproc
 2383              		@ Function supports interworking.
 2384              		@ args = 0, pretend = 0, frame = 0
 2385              		@ frame_needed = 0, uses_anonymous_args = 0
 2386              		@ link register save eliminated.
 2387              	.LVL8:
 103:../lcd.c      **** 	INT32U *pDisp = (INT32U *)LCD_VIRTUAL_BUFFER;
 2388              		.loc 1 103 0
 2389 01a4 28309FE5 		ldr	r3, .L25
 105:../lcd.c      **** 	for( i = 0; i < (SCR_XSIZE*SCR_YSIZE/2/4); i++ )
 2390              		.loc 1 105 0
 2391 01a8 28009FE5 		ldr	r0, .L25+4
 107:../lcd.c      **** 		*pDisp++ = WHITE;
 2392              		.loc 1 107 0
 2393 01ac 0020A0E3 		mov	r2, #0
 2394              	.LVL9:
 2395              	.L20:
 107:../lcd.c      **** 		*pDisp++ = WHITE;
 2396              		.loc 1 107 0 is_stmt 0 discriminator 2
 2397 01b0 0310A0E1 		mov	r1, r3
 2398 01b4 042081E4 		str	r2, [r1], #4
 2399              	.LVL10:
 2400 01b8 042083E5 		str	r2, [r3, #4]
 2401 01bc 042081E5 		str	r2, [r1, #4]
 2402 01c0 0C2083E5 		str	r2, [r3, #12]
 2403 01c4 103083E2 		add	r3, r3, #16
 2404              	.LVL11:
 105:../lcd.c      **** 	for( i = 0; i < (SCR_XSIZE*SCR_YSIZE/2/4); i++ )
 2405              		.loc 1 105 0 is_stmt 1 discriminator 2
 2406 01c8 000053E1 		cmp	r3, r0
 2407 01cc F7FFFF1A 		bne	.L20
 109:../lcd.c      **** }
 2408              		.loc 1 109 0
 2409 01d0 1EFF2FE1 		bx	lr
 2410              	.L26:
 2411              		.align	2
 2412              	.L25:
 2413 01d4 0096300C 		.word	204510720
 2414 01d8 002C310C 		.word	204549120
 2415              		.cfi_endproc
 2416              	.LFE3:
 2418              		.align	2
 2419              		.global	LcdClrRect
 2421              	LcdClrRect:
 2422              	.LFB4:
 121:../lcd.c      **** {
 2423              		.loc 1 121 0
 2424              		.cfi_startproc
 2425              		@ Function supports interworking.
 2426              		@ args = 4, pretend = 0, frame = 16
 2427              		@ frame_needed = 0, uses_anonymous_args = 0
 2428              		@ link register save eliminated.
 2429              	.LVL12:
 2430 01dc F0072DE9 		stmfd	sp!, {r4, r5, r6, r7, r8, r9, sl}
 2431              	.LCFI1:
 2432              		.cfi_def_cfa_offset 28
 127:../lcd.c      **** 	i = k = l = m = 0;	
 2433              		.loc 1 127 0
 2434 01e0 0040A0E3 		mov	r4, #0	@ movhi
 2435              		.cfi_offset 10, -4
 2436              		.cfi_offset 9, -8
 2437              		.cfi_offset 8, -12
 2438              		.cfi_offset 7, -16
 2439              		.cfi_offset 6, -20
 2440              		.cfi_offset 5, -24
 2441              		.cfi_offset 4, -28
 121:../lcd.c      **** {
 2442              		.loc 1 121 0
 2443 01e4 14D04DE2 		sub	sp, sp, #20
 2444              	.LCFI2:
 2445              		.cfi_def_cfa_offset 48
 127:../lcd.c      **** 	i = k = l = m = 0;	
 2446              		.loc 1 127 0
 2447 01e8 B040CDE1 		strh	r4, [sp, #0]	@ movhi
 2448              	.LVL13:
 2449 01ec B0C0DDE1 		ldrh	ip, [sp, #0]
 2450              	.LVL14:
 2451 01f0 B4C0CDE1 		strh	ip, [sp, #4]	@ movhi
 121:../lcd.c      **** {
 2452              		.loc 1 121 0
 2453 01f4 30C0DDE5 		ldrb	ip, [sp, #48]	@ zero_extendqisi2
 2454              	.LVL15:
 124:../lcd.c      **** 	INT32U ulColor = (ucColor << 28) | (ucColor << 24) | (ucColor << 20) | (ucColor << 16) | 
 2455              		.loc 1 124 0
 2456 01f8 0C7CA0E1 		mov	r7, ip, asl #24
 127:../lcd.c      **** 	i = k = l = m = 0;	
 2457              		.loc 1 127 0
 2458 01fc B450DDE1 		ldrh	r5, [sp, #4]
 2459              	.LVL16:
 124:../lcd.c      **** 	INT32U ulColor = (ucColor << 28) | (ucColor << 24) | (ucColor << 20) | (ucColor << 16) | 
 2460              		.loc 1 124 0
 2461 0200 0C9E87E1 		orr	r9, r7, ip, asl #28
 2462 0204 0C4089E1 		orr	r4, r9, ip
 2463              	.LVL17:
 127:../lcd.c      **** 	i = k = l = m = 0;	
 2464              		.loc 1 127 0
 2465 0208 B850CDE1 		strh	r5, [sp, #8]	@ movhi
 124:../lcd.c      **** 	INT32U ulColor = (ucColor << 28) | (ucColor << 24) | (ucColor << 20) | (ucColor << 16) | 
 2466              		.loc 1 124 0
 2467 020c 0C4A84E1 		orr	r4, r4, ip, asl #20
 2468 0210 0C7884E1 		orr	r7, r4, ip, asl #16
 127:../lcd.c      **** 	i = k = l = m = 0;	
 2469              		.loc 1 127 0
 2470 0214 B850DDE1 		ldrh	r5, [sp, #8]
 2471              	.LVL18:
 121:../lcd.c      **** {
 2472              		.loc 1 121 0
 2473 0218 0090A0E1 		mov	r9, r0
 125:../lcd.c      **** 				     (ucColor << 12) | (ucColor << 8) | (ucColor << 4) | ucColor;
 2474              		.loc 1 125 0
 2475 021c 0C7687E1 		orr	r7, r7, ip, asl #12
 128:../lcd.c      **** 	if( (usRight-usLeft) <= 8 )
 2476              		.loc 1 128 0
 2477 0220 020060E0 		rsb	r0, r0, r2
 2478              	.LVL19:
 125:../lcd.c      **** 				     (ucColor << 12) | (ucColor << 8) | (ucColor << 4) | ucColor;
 2479              		.loc 1 125 0
 2480 0224 0C7487E1 		orr	r7, r7, ip, asl #8
 128:../lcd.c      **** 	if( (usRight-usLeft) <= 8 )
 2481              		.loc 1 128 0
 2482 0228 080050E3 		cmp	r0, #8
 125:../lcd.c      **** 				     (ucColor << 12) | (ucColor << 8) | (ucColor << 4) | ucColor;
 2483              		.loc 1 125 0
 2484 022c 0C7287E1 		orr	r7, r7, ip, asl #4
 2485              	.LVL20:
 127:../lcd.c      **** 	i = k = l = m = 0;	
 2486              		.loc 1 127 0
 2487 0230 BC50CDE1 		strh	r5, [sp, #12]	@ movhi
 128:../lcd.c      **** 	if( (usRight-usLeft) <= 8 )
 2488              		.loc 1 128 0
 2489 0234 520000CA 		bgt	.L28
 130:../lcd.c      **** 		for( i=usTop; i<=usBottom; i++)
 2490              		.loc 1 130 0
 2491 0238 BC10CDE1 		strh	r1, [sp, #12]	@ movhi
 2492              	.LVL21:
 2493 023c BC00DDE1 		ldrh	r0, [sp, #12]
 2494              	.LVL22:
 2495 0240 0018A0E1 		mov	r1, r0, asl #16
 2496              	.LVL23:
 2497 0244 410853E1 		cmp	r3, r1, asr #16
 2498 0248 4A0000BA 		blt	.L27
 134:../lcd.c      **** 				(LCD_PutPixel(m, i, ucColor));
 2499              		.loc 1 134 0
 2500 024c 0F62A0E3 		mov	r6, #-268435456
 2501              	.LVL24:
 2502              	.L44:
 132:../lcd.c      **** 			for( m=usLeft; m<=usRight; m++)
 2503              		.loc 1 132 0
 2504 0250 B090CDE1 		strh	r9, [sp, #0]	@ movhi
 2505              	.LVL25:
 2506 0254 B000DDE1 		ldrh	r0, [sp, #0]
 2507              	.LVL26:
 2508 0258 0018A0E1 		mov	r1, r0, asl #16
 2509 025c 410852E1 		cmp	r2, r1, asr #16
 2510 0260 3B0000BA 		blt	.L30
 2511              	.L45:
 134:../lcd.c      **** 				(LCD_PutPixel(m, i, ucColor));
 2512              		.loc 1 134 0 discriminator 2
 2513 0264 BC70DDE1 		ldrh	r7, [sp, #12]
 2514              	.LVL27:
 2515 0268 B010DDE1 		ldrh	r1, [sp, #0]
 2516              	.LVL28:
 2517 026c BC40DDE1 		ldrh	r4, [sp, #12]
 2518              	.LVL29:
 2519 0270 B050DDE1 		ldrh	r5, [sp, #0]
 2520              	.LVL30:
 2521 0274 0488A0E1 		mov	r8, r4, asl #16
 2522 0278 0508A0E1 		mov	r0, r5, asl #16
 2523 027c 4008A0E1 		mov	r0, r0, asr #16
 2524 0280 B050DDE1 		ldrh	r5, [sp, #0]
 2525 0284 4848A0E1 		mov	r4, r8, asr #16
 2526              	.LVL31:
 2527 0288 000050E3 		cmp	r0, #0
 2528 028c 078080E2 		add	r8, r0, #7
 2529 0290 044184E0 		add	r4, r4, r4, asl #2
 2530 0294 0800A0B1 		movlt	r0, r8
 2531 0298 0558A0E1 		mov	r5, r5, asl #16
 2532              	.LVL32:
 2533 029c 8481A0E1 		mov	r8, r4, asl #3
 2534 02a0 C08188E0 		add	r8, r8, r0, asr #3
 2535 02a4 C54FA0E1 		mov	r4, r5, asr #31
 2536 02a8 A44EA0E1 		mov	r4, r4, lsr #29
 2537 02ac C30788E2 		add	r0, r8, #51118080
 2538 02b0 968D80E2 		add	r8, r0, #9600
 2539 02b4 450884E0 		add	r0, r4, r5, asr #16
 2540 02b8 075000E2 		and	r5, r0, #7
 2541 02bc 0881A0E1 		mov	r8, r8, asl #2
 2542 02c0 008098E5 		ldr	r8, [r8, #0]
 2543 02c4 054064E0 		rsb	r4, r4, r5
 2544 02c8 0401A0E1 		mov	r0, r4, asl #2
 2545 02cc 3600C8E1 		bic	r0, r8, r6, lsr r0
 2546 02d0 B050DDE1 		ldrh	r5, [sp, #0]
 2547              	.LVL33:
 2548 02d4 0558A0E1 		mov	r5, r5, asl #16
 2549              	.LVL34:
 2550 02d8 C54FA0E1 		mov	r4, r5, asr #31
 2551 02dc A44EA0E1 		mov	r4, r4, lsr #29
 2552 02e0 455884E0 		add	r5, r4, r5, asr #16
 2553 02e4 075005E2 		and	r5, r5, #7
 2554 02e8 054064E0 		rsb	r4, r4, r5
 2555 02ec 075064E2 		rsb	r5, r4, #7
 2556 02f0 0541A0E1 		mov	r4, r5, asl #2
 2557 02f4 1C4480E1 		orr	r4, r0, ip, asl r4
 2558              	.LVL35:
 2559 02f8 0778A0E1 		mov	r7, r7, asl #16
 2560              	.LVL36:
 2561 02fc 0118A0E1 		mov	r1, r1, asl #16
 2562              	.LVL37:
 2563 0300 4118A0E1 		mov	r1, r1, asr #16
 2564 0304 4758A0E1 		mov	r5, r7, asr #16
 2565 0308 000051E3 		cmp	r1, #0
 2566 030c 077081E2 		add	r7, r1, #7
 2567 0310 050185E0 		add	r0, r5, r5, asl #2
 2568 0314 0710A0B1 		movlt	r1, r7
 132:../lcd.c      **** 			for( m=usLeft; m<=usRight; m++)
 2569              		.loc 1 132 0 discriminator 2
 2570 0318 B050DDE1 		ldrh	r5, [sp, #0]
 2571              	.LVL38:
 134:../lcd.c      **** 				(LCD_PutPixel(m, i, ucColor));
 2572              		.loc 1 134 0 discriminator 2
 2573 031c 8001A0E1 		mov	r0, r0, asl #3
 2574 0320 C11180E0 		add	r1, r0, r1, asr #3
 2575 0324 C30781E2 		add	r0, r1, #51118080
 132:../lcd.c      **** 			for( m=usLeft; m<=usRight; m++)
 2576              		.loc 1 132 0 discriminator 2
 2577 0328 011085E2 		add	r1, r5, #1
 134:../lcd.c      **** 				(LCD_PutPixel(m, i, ucColor));
 2578              		.loc 1 134 0 discriminator 2
 2579 032c 960D80E2 		add	r0, r0, #9600
 132:../lcd.c      **** 			for( m=usLeft; m<=usRight; m++)
 2580              		.loc 1 132 0 discriminator 2
 2581 0330 0118A0E1 		mov	r1, r1, asl #16
 134:../lcd.c      **** 				(LCD_PutPixel(m, i, ucColor));
 2582              		.loc 1 134 0 discriminator 2
 2583 0334 0001A0E1 		mov	r0, r0, asl #2
 132:../lcd.c      **** 			for( m=usLeft; m<=usRight; m++)
 2584              		.loc 1 132 0 discriminator 2
 2585 0338 2118A0E1 		mov	r1, r1, lsr #16
 2586              	.LVL39:
 134:../lcd.c      **** 				(LCD_PutPixel(m, i, ucColor));
 2587              		.loc 1 134 0 discriminator 2
 2588 033c 004080E5 		str	r4, [r0, #0]
 2589              	.LVL40:
 132:../lcd.c      **** 			for( m=usLeft; m<=usRight; m++)
 2590              		.loc 1 132 0 discriminator 2
 2591 0340 B010CDE1 		strh	r1, [sp, #0]	@ movhi
 2592 0344 B000DDE1 		ldrh	r0, [sp, #0]
 2593              	.LVL41:
 2594 0348 0018A0E1 		mov	r1, r0, asl #16
 2595 034c 410852E1 		cmp	r2, r1, asr #16
 2596 0350 C3FFFFAA 		bge	.L45
 2597              	.LVL42:
 2598              	.L30:
 130:../lcd.c      **** 		for( i=usTop; i<=usBottom; i++)
 2599              		.loc 1 130 0
 2600 0354 BC00DDE1 		ldrh	r0, [sp, #12]
 2601              	.LVL43:
 2602 0358 011080E2 		add	r1, r0, #1
 2603 035c 0108A0E1 		mov	r0, r1, asl #16
 2604              	.LVL44:
 2605 0360 2018A0E1 		mov	r1, r0, lsr #16
 2606              	.LVL45:
 2607 0364 BC10CDE1 		strh	r1, [sp, #12]	@ movhi
 2608 0368 BC00DDE1 		ldrh	r0, [sp, #12]
 2609              	.LVL46:
 2610 036c 0018A0E1 		mov	r1, r0, asl #16
 2611 0370 410853E1 		cmp	r3, r1, asr #16
 2612 0374 B5FFFFAA 		bge	.L44
 2613              	.LVL47:
 2614              	.L27:
 169:../lcd.c      **** }
 2615              		.loc 1 169 0
 2616 0378 14D08DE2 		add	sp, sp, #20
 2617 037c F007BDE8 		ldmfd	sp!, {r4, r5, r6, r7, r8, r9, sl}
 2618 0380 1EFF2FE1 		bx	lr
 2619              	.LVL48:
 2620              	.L28:
 141:../lcd.c      **** 	if( 0 == (usLeft%8) )
 2621              		.loc 1 141 0
 2622 0384 070019E3 		tst	r9, #7
 142:../lcd.c      **** 		k=usLeft;
 2623              		.loc 1 142 0
 2624 0388 B890CD01 		streqh	r9, [sp, #8]	@ movhi
 2625              	.LVL49:
 141:../lcd.c      **** 	if( 0 == (usLeft%8) )
 2626              		.loc 1 141 0
 2627 038c 0700000A 		beq	.L34
 145:../lcd.c      **** 		k=(usLeft/8)*8+8;
 2628              		.loc 1 145 0
 2629 0390 000059E3 		cmp	r9, #0
 2630 0394 070089E2 		add	r0, r9, #7
 2631 0398 0900A0A1 		movge	r0, r9
 2632 039c C001A0E1 		mov	r0, r0, asr #3
 2633 03a0 010080E2 		add	r0, r0, #1
 2634 03a4 8009A0E1 		mov	r0, r0, asl #19
 2635 03a8 2008A0E1 		mov	r0, r0, lsr #16
 2636              	.LVL50:
 2637 03ac B800CDE1 		strh	r0, [sp, #8]	@ movhi
 2638              	.L34:
 147:../lcd.c      **** 	if( 0 == (usRight%8) )
 2639              		.loc 1 147 0
 2640 03b0 070012E3 		tst	r2, #7
 148:../lcd.c      **** 		l= usRight;
 2641              		.loc 1 148 0
 2642 03b4 B420CD01 		streqh	r2, [sp, #4]	@ movhi
 2643              	.LVL51:
 147:../lcd.c      **** 	if( 0 == (usRight%8) )
 2644              		.loc 1 147 0
 2645 03b8 0500000A 		beq	.L36
 151:../lcd.c      **** 		l=(usRight/8)*8;
 2646              		.loc 1 151 0
 2647 03bc BC029FE5 		ldr	r0, .L60
 2648              	.LVL52:
 2649 03c0 000052E3 		cmp	r2, #0
 2650 03c4 074082E2 		add	r4, r2, #7
 2651 03c8 0240A0A1 		movge	r4, r2
 2652 03cc 000004E0 		and	r0, r4, r0
 2653              	.LVL53:
 2654 03d0 B400CDE1 		strh	r0, [sp, #4]	@ movhi
 2655              	.L36:
 154:../lcd.c      **** 	for( i=usTop; i<=usBottom; i++ )
 2656              		.loc 1 154 0
 2657 03d4 BC10CDE1 		strh	r1, [sp, #12]	@ movhi
 2658 03d8 BC00DDE1 		ldrh	r0, [sp, #12]
 2659              	.LVL54:
 2660 03dc 0018A0E1 		mov	r1, r0, asl #16
 2661              	.LVL55:
 2662 03e0 410853E1 		cmp	r3, r1, asr #16
 2663 03e4 E3FFFFBA 		blt	.L27
 158:../lcd.c      **** 			(LCD_PutPixel(m, i, ucColor));
 2664              		.loc 1 158 0
 2665 03e8 0F42A0E3 		mov	r4, #-268435456
 2666              	.L46:
 156:../lcd.c      **** 		for( m=usLeft; m<=(k-1); m++ )
 2667              		.loc 1 156 0
 2668 03ec B090CDE1 		strh	r9, [sp, #0]	@ movhi
 2669              	.LVL56:
 2670 03f0 370000EA 		b	.L56
 2671              	.LVL57:
 2672              	.L58:
 158:../lcd.c      **** 			(LCD_PutPixel(m, i, ucColor));
 2673              		.loc 1 158 0 discriminator 2
 2674 03f4 BC60DDE1 		ldrh	r6, [sp, #12]
 2675              	.LVL58:
 2676 03f8 B050DDE1 		ldrh	r5, [sp, #0]
 2677              	.LVL59:
 2678 03fc BC00DDE1 		ldrh	r0, [sp, #12]
 2679              	.LVL60:
 2680 0400 B080DDE1 		ldrh	r8, [sp, #0]
 2681              	.LVL61:
 2682 0404 00A8A0E1 		mov	sl, r0, asl #16
 2683 0408 0818A0E1 		mov	r1, r8, asl #16
 2684 040c 4118A0E1 		mov	r1, r1, asr #16
 2685 0410 B080DDE1 		ldrh	r8, [sp, #0]
 2686 0414 4A08A0E1 		mov	r0, sl, asr #16
 2687              	.LVL62:
 2688 0418 000051E3 		cmp	r1, #0
 2689 041c 07A081E2 		add	sl, r1, #7
 2690 0420 000180E0 		add	r0, r0, r0, asl #2
 2691 0424 0A10A0B1 		movlt	r1, sl
 2692 0428 0888A0E1 		mov	r8, r8, asl #16
 2693              	.LVL63:
 2694 042c 8001A0E1 		mov	r0, r0, asl #3
 2695 0430 C11180E0 		add	r1, r0, r1, asr #3
 2696 0434 C8AFA0E1 		mov	sl, r8, asr #31
 2697 0438 AAAEA0E1 		mov	sl, sl, lsr #29
 2698 043c C30781E2 		add	r0, r1, #51118080
 2699 0440 961D80E2 		add	r1, r0, #9600
 2700 0444 48888AE0 		add	r8, sl, r8, asr #16
 2701 0448 0101A0E1 		mov	r0, r1, asl #2
 2702 044c 078008E2 		and	r8, r8, #7
 2703 0450 000090E5 		ldr	r0, [r0, #0]
 2704 0454 08106AE0 		rsb	r1, sl, r8
 2705 0458 01A1A0E1 		mov	sl, r1, asl #2
 2706 045c 34AAC0E1 		bic	sl, r0, r4, lsr sl
 2707 0460 B080DDE1 		ldrh	r8, [sp, #0]
 2708              	.LVL64:
 2709 0464 0808A0E1 		mov	r0, r8, asl #16
 2710 0468 C01FA0E1 		mov	r1, r0, asr #31
 2711 046c A11EA0E1 		mov	r1, r1, lsr #29
 2712 0470 408881E0 		add	r8, r1, r0, asr #16
 2713              	.LVL65:
 2714 0474 070008E2 		and	r0, r8, #7
 2715 0478 008061E0 		rsb	r8, r1, r0
 2716 047c 070068E2 		rsb	r0, r8, #7
 2717 0480 0011A0E1 		mov	r1, r0, asl #2
 2718 0484 1C118AE1 		orr	r1, sl, ip, asl r1
 2719              	.LVL66:
 2720 0488 0688A0E1 		mov	r8, r6, asl #16
 2721              	.LVL67:
 2722 048c 0558A0E1 		mov	r5, r5, asl #16
 2723              	.LVL68:
 2724 0490 4558A0E1 		mov	r5, r5, asr #16
 2725 0494 4808A0E1 		mov	r0, r8, asr #16
 2726 0498 006180E0 		add	r6, r0, r0, asl #2
 2727              	.LVL69:
 2728 049c 078085E2 		add	r8, r5, #7
 2729 04a0 000055E3 		cmp	r5, #0
 156:../lcd.c      **** 		for( m=usLeft; m<=(k-1); m++ )
 2730              		.loc 1 156 0 discriminator 2
 2731 04a4 B000DDE1 		ldrh	r0, [sp, #0]
 2732              	.LVL70:
 158:../lcd.c      **** 			(LCD_PutPixel(m, i, ucColor));
 2733              		.loc 1 158 0 discriminator 2
 2734 04a8 0850A0B1 		movlt	r5, r8
 2735 04ac 8661A0E1 		mov	r6, r6, asl #3
 2736 04b0 C55186E0 		add	r5, r6, r5, asr #3
 2737 04b4 C35785E2 		add	r5, r5, #51118080
 156:../lcd.c      **** 		for( m=usLeft; m<=(k-1); m++ )
 2738              		.loc 1 156 0 discriminator 2
 2739 04b8 010080E2 		add	r0, r0, #1
 2740              	.LVL71:
 158:../lcd.c      **** 			(LCD_PutPixel(m, i, ucColor));
 2741              		.loc 1 158 0 discriminator 2
 2742 04bc 965D85E2 		add	r5, r5, #9600
 156:../lcd.c      **** 		for( m=usLeft; m<=(k-1); m++ )
 2743              		.loc 1 156 0 discriminator 2
 2744 04c0 0008A0E1 		mov	r0, r0, asl #16
 158:../lcd.c      **** 			(LCD_PutPixel(m, i, ucColor));
 2745              		.loc 1 158 0 discriminator 2
 2746 04c4 0551A0E1 		mov	r5, r5, asl #2
 156:../lcd.c      **** 		for( m=usLeft; m<=(k-1); m++ )
 2747              		.loc 1 156 0 discriminator 2
 2748 04c8 2008A0E1 		mov	r0, r0, lsr #16
 158:../lcd.c      **** 			(LCD_PutPixel(m, i, ucColor));
 2749              		.loc 1 158 0 discriminator 2
 2750 04cc 001085E5 		str	r1, [r5, #0]
 2751              	.LVL72:
 156:../lcd.c      **** 		for( m=usLeft; m<=(k-1); m++ )
 2752              		.loc 1 156 0 discriminator 2
 2753 04d0 B000CDE1 		strh	r0, [sp, #0]	@ movhi
 2754              	.LVL73:
 2755              	.L56:
 156:../lcd.c      **** 		for( m=usLeft; m<=(k-1); m++ )
 2756              		.loc 1 156 0 is_stmt 0
 2757 04d4 B810DDE1 		ldrh	r1, [sp, #8]
 2758              	.LVL74:
 2759 04d8 B000DDE1 		ldrh	r0, [sp, #0]
 2760              	.LVL75:
 2761 04dc 0118A0E1 		mov	r1, r1, asl #16
 2762              	.LVL76:
 2763 04e0 000851E1 		cmp	r1, r0, asl #16
 2764 04e4 C2FFFFCA 		bgt	.L58
 160:../lcd.c      **** 		for( m=k; m<l; m+=8 )
 2765              		.loc 1 160 0 is_stmt 1
 2766 04e8 B810DDE1 		ldrh	r1, [sp, #8]
 2767              	.LVL77:
 2768 04ec B010CDE1 		strh	r1, [sp, #0]	@ movhi
 2769 04f0 110000EA 		b	.L57
 2770              	.LVL78:
 2771              	.L59:
 162:../lcd.c      **** 			(*(INT32U*)(LCD_VIRTUAL_BUFFER + i * SCR_XSIZE / 2 + m / 2)) = ulColor;
 2772              		.loc 1 162 0 discriminator 2
 2773 04f4 BC10DDE1 		ldrh	r1, [sp, #12]
 2774              	.LVL79:
 2775 04f8 B050DDE1 		ldrh	r5, [sp, #0]
 2776              	.LVL80:
 2777 04fc 0108A0E1 		mov	r0, r1, asl #16
 2778              	.LVL81:
 2779 0500 4008A0E1 		mov	r0, r0, asr #16
 2780 0504 0518A0E1 		mov	r1, r5, asl #16
 2781              	.LVL82:
 2782 0508 4118A0E1 		mov	r1, r1, asr #16
 160:../lcd.c      **** 		for( m=k; m<l; m+=8 )
 2783              		.loc 1 160 0 discriminator 2
 2784 050c B050DDE1 		ldrh	r5, [sp, #0]
 2785              	.LVL83:
 162:../lcd.c      **** 			(*(INT32U*)(LCD_VIRTUAL_BUFFER + i * SCR_XSIZE / 2 + m / 2)) = ulColor;
 2786              		.loc 1 162 0 discriminator 2
 2787 0510 000180E0 		add	r0, r0, r0, asl #2
 2788 0514 8002A0E1 		mov	r0, r0, asl #5
 2789 0518 A11F81E0 		add	r1, r1, r1, lsr #31
 2790 051c C11080E0 		add	r1, r0, r1, asr #1
 160:../lcd.c      **** 		for( m=k; m<l; m+=8 )
 2791              		.loc 1 160 0 discriminator 2
 2792 0520 080085E2 		add	r0, r5, #8
 162:../lcd.c      **** 			(*(INT32U*)(LCD_VIRTUAL_BUFFER + i * SCR_XSIZE / 2 + m / 2)) = ulColor;
 2793              		.loc 1 162 0 discriminator 2
 2794 0524 C31681E2 		add	r1, r1, #204472320
 160:../lcd.c      **** 		for( m=k; m<l; m+=8 )
 2795              		.loc 1 160 0 discriminator 2
 2796 0528 0008A0E1 		mov	r0, r0, asl #16
 162:../lcd.c      **** 			(*(INT32U*)(LCD_VIRTUAL_BUFFER + i * SCR_XSIZE / 2 + m / 2)) = ulColor;
 2797              		.loc 1 162 0 discriminator 2
 2798 052c 961C81E2 		add	r1, r1, #38400
 160:../lcd.c      **** 		for( m=k; m<l; m+=8 )
 2799              		.loc 1 160 0 discriminator 2
 2800 0530 2008A0E1 		mov	r0, r0, lsr #16
 2801              	.LVL84:
 162:../lcd.c      **** 			(*(INT32U*)(LCD_VIRTUAL_BUFFER + i * SCR_XSIZE / 2 + m / 2)) = ulColor;
 2802              		.loc 1 162 0 discriminator 2
 2803 0534 007081E5 		str	r7, [r1, #0]
 2804              	.LVL85:
 160:../lcd.c      **** 		for( m=k; m<l; m+=8 )
 2805              		.loc 1 160 0 discriminator 2
 2806 0538 B000CDE1 		strh	r0, [sp, #0]	@ movhi
 2807              	.LVL86:
 2808              	.L57:
 160:../lcd.c      **** 		for( m=k; m<l; m+=8 )
 2809              		.loc 1 160 0 is_stmt 0
 2810 053c B010DDE1 		ldrh	r1, [sp, #0]
 2811              	.LVL87:
 2812 0540 B400DDE1 		ldrh	r0, [sp, #4]
 2813              	.LVL88:
 2814 0544 0118A0E1 		mov	r1, r1, asl #16
 2815              	.LVL89:
 2816 0548 000851E1 		cmp	r1, r0, asl #16
 2817 054c E8FFFFBA 		blt	.L59
 164:../lcd.c      **** 		for( m=l; m<=usRight; m++ )
 2818              		.loc 1 164 0 is_stmt 1
 2819 0550 B400DDE1 		ldrh	r0, [sp, #4]
 2820              	.LVL90:
 2821 0554 B000CDE1 		strh	r0, [sp, #0]	@ movhi
 2822 0558 B010DDE1 		ldrh	r1, [sp, #0]
 2823              	.LVL91:
 2824 055c 0108A0E1 		mov	r0, r1, asl #16
 2825              	.LVL92:
 2826 0560 400852E1 		cmp	r2, r0, asr #16
 2827 0564 3B0000BA 		blt	.L41
 2828              	.L47:
 166:../lcd.c      **** 			(LCD_PutPixel(m, i, ucColor));
 2829              		.loc 1 166 0 discriminator 2
 2830 0568 BC60DDE1 		ldrh	r6, [sp, #12]
 2831              	.LVL93:
 2832 056c B050DDE1 		ldrh	r5, [sp, #0]
 2833              	.LVL94:
 2834 0570 BC00DDE1 		ldrh	r0, [sp, #12]
 2835              	.LVL95:
 2836 0574 B080DDE1 		ldrh	r8, [sp, #0]
 2837              	.LVL96:
 2838 0578 00A8A0E1 		mov	sl, r0, asl #16
 2839 057c 0818A0E1 		mov	r1, r8, asl #16
 2840 0580 4118A0E1 		mov	r1, r1, asr #16
 2841 0584 B080DDE1 		ldrh	r8, [sp, #0]
 2842 0588 4A08A0E1 		mov	r0, sl, asr #16
 2843              	.LVL97:
 2844 058c 000051E3 		cmp	r1, #0
 2845 0590 07A081E2 		add	sl, r1, #7
 2846 0594 000180E0 		add	r0, r0, r0, asl #2
 2847 0598 0A10A0B1 		movlt	r1, sl
 2848 059c 0888A0E1 		mov	r8, r8, asl #16
 2849              	.LVL98:
 2850 05a0 8001A0E1 		mov	r0, r0, asl #3
 2851 05a4 C11180E0 		add	r1, r0, r1, asr #3
 2852 05a8 C8AFA0E1 		mov	sl, r8, asr #31
 2853 05ac AAAEA0E1 		mov	sl, sl, lsr #29
 2854 05b0 C30781E2 		add	r0, r1, #51118080
 2855 05b4 961D80E2 		add	r1, r0, #9600
 2856 05b8 48888AE0 		add	r8, sl, r8, asr #16
 2857 05bc 0101A0E1 		mov	r0, r1, asl #2
 2858 05c0 078008E2 		and	r8, r8, #7
 2859 05c4 000090E5 		ldr	r0, [r0, #0]
 2860 05c8 08106AE0 		rsb	r1, sl, r8
 2861 05cc 01A1A0E1 		mov	sl, r1, asl #2
 2862 05d0 34AAC0E1 		bic	sl, r0, r4, lsr sl
 2863 05d4 B080DDE1 		ldrh	r8, [sp, #0]
 2864              	.LVL99:
 2865 05d8 0808A0E1 		mov	r0, r8, asl #16
 2866 05dc C01FA0E1 		mov	r1, r0, asr #31
 2867 05e0 A11EA0E1 		mov	r1, r1, lsr #29
 2868 05e4 408881E0 		add	r8, r1, r0, asr #16
 2869              	.LVL100:
 2870 05e8 070008E2 		and	r0, r8, #7
 2871 05ec 008061E0 		rsb	r8, r1, r0
 2872 05f0 070068E2 		rsb	r0, r8, #7
 2873 05f4 0011A0E1 		mov	r1, r0, asl #2
 2874 05f8 1C118AE1 		orr	r1, sl, ip, asl r1
 2875              	.LVL101:
 2876 05fc 0688A0E1 		mov	r8, r6, asl #16
 2877              	.LVL102:
 2878 0600 0558A0E1 		mov	r5, r5, asl #16
 2879              	.LVL103:
 2880 0604 4558A0E1 		mov	r5, r5, asr #16
 2881 0608 4808A0E1 		mov	r0, r8, asr #16
 2882 060c 000055E3 		cmp	r5, #0
 2883 0610 078085E2 		add	r8, r5, #7
 2884 0614 006180E0 		add	r6, r0, r0, asl #2
 2885              	.LVL104:
 2886 0618 0850A0B1 		movlt	r5, r8
 164:../lcd.c      **** 		for( m=l; m<=usRight; m++ )
 2887              		.loc 1 164 0 discriminator 2
 2888 061c B000DDE1 		ldrh	r0, [sp, #0]
 2889              	.LVL105:
 166:../lcd.c      **** 			(LCD_PutPixel(m, i, ucColor));
 2890              		.loc 1 166 0 discriminator 2
 2891 0620 8661A0E1 		mov	r6, r6, asl #3
 2892 0624 C55186E0 		add	r5, r6, r5, asr #3
 2893 0628 C35785E2 		add	r5, r5, #51118080
 164:../lcd.c      **** 		for( m=l; m<=usRight; m++ )
 2894              		.loc 1 164 0 discriminator 2
 2895 062c 010080E2 		add	r0, r0, #1
 2896              	.LVL106:
 166:../lcd.c      **** 			(LCD_PutPixel(m, i, ucColor));
 2897              		.loc 1 166 0 discriminator 2
 2898 0630 965D85E2 		add	r5, r5, #9600
 164:../lcd.c      **** 		for( m=l; m<=usRight; m++ )
 2899              		.loc 1 164 0 discriminator 2
 2900 0634 0008A0E1 		mov	r0, r0, asl #16
 2901 0638 2008A0E1 		mov	r0, r0, lsr #16
 166:../lcd.c      **** 			(LCD_PutPixel(m, i, ucColor));
 2902              		.loc 1 166 0 discriminator 2
 2903 063c 0551A0E1 		mov	r5, r5, asl #2
 2904 0640 001085E5 		str	r1, [r5, #0]
 2905              	.LVL107:
 164:../lcd.c      **** 		for( m=l; m<=usRight; m++ )
 2906              		.loc 1 164 0 discriminator 2
 2907 0644 B000CDE1 		strh	r0, [sp, #0]	@ movhi
 2908 0648 B000DDE1 		ldrh	r0, [sp, #0]
 2909 064c 0018A0E1 		mov	r1, r0, asl #16
 2910 0650 410852E1 		cmp	r2, r1, asr #16
 2911 0654 C3FFFFAA 		bge	.L47
 2912              	.L41:
 154:../lcd.c      **** 	for( i=usTop; i<=usBottom; i++ )
 2913              		.loc 1 154 0
 2914 0658 BC00DDE1 		ldrh	r0, [sp, #12]
 2915              	.LVL108:
 2916 065c 011080E2 		add	r1, r0, #1
 2917              	.LVL109:
 2918 0660 0108A0E1 		mov	r0, r1, asl #16
 2919              	.LVL110:
 2920 0664 2018A0E1 		mov	r1, r0, lsr #16
 2921              	.LVL111:
 2922 0668 BC10CDE1 		strh	r1, [sp, #12]	@ movhi
 2923 066c BC00DDE1 		ldrh	r0, [sp, #12]
 2924              	.LVL112:
 2925 0670 0018A0E1 		mov	r1, r0, asl #16
 2926 0674 410853E1 		cmp	r3, r1, asr #16
 2927 0678 5BFFFFAA 		bge	.L46
 2928 067c 3DFFFFEA 		b	.L27
 2929              	.L61:
 2930              		.align	2
 2931              	.L60:
 2932 0680 F8FF0000 		.word	65528
 2933              		.cfi_endproc
 2934              	.LFE4:
 2936              		.align	2
 2937              		.global	Lcd_Draw_Box
 2939              	Lcd_Draw_Box:
 2940              	.LFB5:
 181:../lcd.c      **** {
 2941              		.loc 1 181 0
 2942              		.cfi_startproc
 2943              		@ Function supports interworking.
 2944              		@ args = 4, pretend = 0, frame = 24
 2945              		@ frame_needed = 0, uses_anonymous_args = 0
 2946              		@ link register save eliminated.
 2947              	.LVL113:
 2948 0684 F0072DE9 		stmfd	sp!, {r4, r5, r6, r7, r8, r9, sl}
 2949              	.LCFI3:
 2950              		.cfi_def_cfa_offset 28
 2951              	.LBB16:
 2952              	.LBB18:
 296:../lcd.c      ****     if( usX1 < usX0 )
 2953              		.loc 1 296 0
 2954 0688 020050E1 		cmp	r0, r2
 2955              	.LBE18:
 2956              	.LBE16:
 181:../lcd.c      **** {
 2957              		.loc 1 181 0
 2958 068c 1CD04DE2 		sub	sp, sp, #28
 2959              	.LCFI4:
 2960              		.cfi_def_cfa_offset 56
 181:../lcd.c      **** {
 2961              		.loc 1 181 0
 2962 0690 10008DE5 		str	r0, [sp, #16]
 2963              	.LVL114:
 2964 0694 14208DE5 		str	r2, [sp, #20]
 2965              	.LVL115:
 2966 0698 38C0DDE5 		ldrb	ip, [sp, #56]	@ zero_extendqisi2
 2967              	.LVL116:
 2968              	.LBB20:
 2969              	.LBB17:
 296:../lcd.c      ****     if( usX1 < usX0 )
 2970              		.loc 1 296 0
 2971 069c BE0100DA 		ble	.L75
 2972              		.cfi_offset 10, -4
 2973              		.cfi_offset 9, -8
 2974              		.cfi_offset 8, -12
 2975              		.cfi_offset 7, -16
 2976              		.cfi_offset 6, -20
 2977              		.cfi_offset 5, -24
 2978              		.cfi_offset 4, -28
 2979 06a0 0050A0E1 		mov	r5, r0
 298:../lcd.c      ****         GUISWAP (usX1, usX0);
 2980              		.loc 1 298 0
 2981 06a4 000022E0 		eor	r0, r2, r0
 2982              	.LVL117:
 2983 06a8 00A8A0E1 		mov	sl, r0, asl #16
 2984 06ac 2A08A0E1 		mov	r0, sl, lsr #16
 2985              	.LVL118:
 2986 06b0 004025E0 		eor	r4, r5, r0
 2987 06b4 0428A0E1 		mov	r2, r4, asl #16
 2988              	.LVL119:
 2989 06b8 4228A0E1 		mov	r2, r2, asr #16
 2990              	.LVL120:
 2991 06bc 000022E0 		eor	r0, r2, r0
 2992              	.LVL121:
 2993 06c0 00A8A0E1 		mov	sl, r0, asl #16
 2994              	.LVL122:
 2995 06c4 4AA8A0E1 		mov	sl, sl, asr #16
 2996              	.LVL123:
 2997              	.L63:
 303:../lcd.c      ****         usLen = usX1 - usX0 + 1;
 2998              		.loc 1 303 0
 2999 06c8 01408AE2 		add	r4, sl, #1
 3000 06cc 04A062E0 		rsb	sl, r2, r4
 3001              	.LVL124:
 3002 06d0 0A58A0E1 		mov	r5, sl, asl #16
 3003 06d4 25A8A0E1 		mov	sl, r5, lsr #16
 3004              	.LVL125:
 304:../lcd.c      ****         while( (usLen--) > 0 )
 3005              		.loc 1 304 0
 3006 06d8 0A48A0E1 		mov	r4, sl, asl #16
 3007              	.LVL126:
 3008 06dc 000054E3 		cmp	r4, #0
 3009 06e0 620000DA 		ble	.L64
 3010 06e4 01804AE2 		sub	r8, sl, #1
 180:../lcd.c      **** void Lcd_Draw_Box(INT16 usLeft, INT16 usTop, INT16 usRight, INT16 usBottom, INT8U ucColor)
 3011              		.loc 1 180 0
 3012 06e8 0898A0E1 		mov	r9, r8, asl #16
 3013 06ec 4908A0E1 		mov	r0, r9, asr #16
 304:../lcd.c      ****         while( (usLen--) > 0 )
 3014              		.loc 1 304 0
 3015 06f0 017181E0 		add	r7, r1, r1, asl #2
 180:../lcd.c      **** void Lcd_Draw_Box(INT16 usLeft, INT16 usTop, INT16 usRight, INT16 usBottom, INT8U ucColor)
 3016              		.loc 1 180 0
 3017 06f4 04008DE5 		str	r0, [sp, #4]
 304:../lcd.c      ****         while( (usLen--) > 0 )
 3018              		.loc 1 304 0
 3019 06f8 8751A0E1 		mov	r5, r7, asl #3
 180:../lcd.c      **** void Lcd_Draw_Box(INT16 usLeft, INT16 usTop, INT16 usRight, INT16 usBottom, INT8U ucColor)
 3020              		.loc 1 180 0
 3021 06fc 000082E0 		add	r0, r2, r0
 304:../lcd.c      ****         while( (usLen--) > 0 )
 3022              		.loc 1 304 0
 3023 0700 C36785E2 		add	r6, r5, #51118080
 306:../lcd.c      ****         	(LCD_PutPixel(usX0 + usLen, usY0, ucColor));
 3024              		.loc 1 306 0
 3025 0704 000050E3 		cmp	r0, #0
 3026 0708 C04FA0E1 		mov	r4, r0, asr #31
 3027 070c 078080E2 		add	r8, r0, #7
 3028 0710 A44EA0E1 		mov	r4, r4, lsr #29
 3029 0714 0080A0A1 		movge	r8, r0
 304:../lcd.c      ****         while( (usLen--) > 0 )
 3030              		.loc 1 304 0
 3031 0718 966D86E2 		add	r6, r6, #9600
 306:../lcd.c      ****         	(LCD_PutPixel(usX0 + usLen, usY0, ucColor));
 3032              		.loc 1 306 0
 3033 071c 049080E0 		add	r9, r0, r4
 3034 0720 C87186E0 		add	r7, r6, r8, asr #3
 3035 0724 075009E2 		and	r5, r9, #7
 3036 0728 0771A0E1 		mov	r7, r7, asl #2
 3037 072c 054064E0 		rsb	r4, r4, r5
 3038 0730 009097E5 		ldr	r9, [r7, #0]
 3039 0734 0481A0E1 		mov	r8, r4, asl #2
 3040 0738 0F52A0E3 		mov	r5, #-268435456
 3041 073c 3598C9E1 		bic	r9, r9, r5, lsr r8
 3042 0740 074064E2 		rsb	r4, r4, #7
 3043 0744 0481A0E1 		mov	r8, r4, asl #2
 3044 0748 1C8889E1 		orr	r8, r9, ip, asl r8
 180:../lcd.c      **** void Lcd_Draw_Box(INT16 usLeft, INT16 usTop, INT16 usRight, INT16 usBottom, INT8U ucColor)
 3045              		.loc 1 180 0
 3046 074c 01A04AE2 		sub	sl, sl, #1
 3047              	.LVL127:
 3048 0750 012042E2 		sub	r2, r2, #1
 3049              	.LVL128:
 3050 0754 0A48A0E1 		mov	r4, sl, asl #16
 3051 0758 24A842E0 		sub	sl, r2, r4, lsr #16
 3052              	.LVL129:
 3053 075c 04209DE5 		ldr	r2, [sp, #4]
 3054              	.LVL130:
 3055 0760 02A08AE0 		add	sl, sl, r2
 3056 0764 0A4060E0 		rsb	r4, r0, sl
 306:../lcd.c      ****         	(LCD_PutPixel(usX0 + usLen, usY0, ucColor));
 3057              		.loc 1 306 0
 3058 0768 012040E2 		sub	r2, r0, #1
 3059 076c 0440E0E1 		mvn	r4, r4
 304:../lcd.c      ****         while( (usLen--) > 0 )
 3060              		.loc 1 304 0
 3061 0770 0A0052E1 		cmp	r2, sl
 306:../lcd.c      ****         	(LCD_PutPixel(usX0 + usLen, usY0, ucColor));
 3062              		.loc 1 306 0
 3063 0774 0C908DE5 		str	r9, [sp, #12]
 3064 0778 014004E2 		and	r4, r4, #1
 3065 077c 008087E5 		str	r8, [r7, #0]
 304:../lcd.c      ****         while( (usLen--) > 0 )
 3066              		.loc 1 304 0
 3067 0780 3A00000A 		beq	.L64
 3068 0784 000054E3 		cmp	r4, #0
 3069 0788 1300000A 		beq	.L65
 306:../lcd.c      ****         	(LCD_PutPixel(usX0 + usLen, usY0, ucColor));
 3070              		.loc 1 306 0
 3071 078c 000052E3 		cmp	r2, #0
 3072 0790 C28FA0E1 		mov	r8, r2, asr #31
 3073 0794 A87EA0E1 		mov	r7, r8, lsr #29
 3074 0798 0200A0A1 		movge	r0, r2
 3075 079c 060080B2 		addlt	r0, r0, #6
 3076 07a0 074082E0 		add	r4, r2, r7
 3077 07a4 C00186E0 		add	r0, r6, r0, asr #3
 3078 07a8 0001A0E1 		mov	r0, r0, asl #2
 3079 07ac 078004E2 		and	r8, r4, #7
 3080 07b0 084067E0 		rsb	r4, r7, r8
 3081 07b4 007090E5 		ldr	r7, [r0, #0]
 3082 07b8 0481A0E1 		mov	r8, r4, asl #2
 3083 07bc 3578C7E1 		bic	r7, r7, r5, lsr r8
 3084 07c0 074064E2 		rsb	r4, r4, #7
 3085 07c4 0441A0E1 		mov	r4, r4, asl #2
 3086 07c8 1C7487E1 		orr	r7, r7, ip, asl r4
 3087 07cc 012042E2 		sub	r2, r2, #1
 304:../lcd.c      ****         while( (usLen--) > 0 )
 3088              		.loc 1 304 0
 3089 07d0 0A0052E1 		cmp	r2, sl
 306:../lcd.c      ****         	(LCD_PutPixel(usX0 + usLen, usY0, ucColor));
 3090              		.loc 1 306 0
 3091 07d4 007080E5 		str	r7, [r0, #0]
 304:../lcd.c      ****         while( (usLen--) > 0 )
 3092              		.loc 1 304 0
 3093 07d8 2400000A 		beq	.L64
 3094              	.L65:
 306:../lcd.c      ****         	(LCD_PutPixel(usX0 + usLen, usY0, ucColor));
 3095              		.loc 1 306 0
 3096 07dc C27FA0E1 		mov	r7, r2, asr #31
 3097 07e0 000052E3 		cmp	r2, #0
 3098 07e4 070082E2 		add	r0, r2, #7
 3099 07e8 A78EA0E1 		mov	r8, r7, lsr #29
 3100 07ec 0200A0A1 		movge	r0, r2
 3101 07f0 089082E0 		add	r9, r2, r8
 3102 07f4 C04186E0 		add	r4, r6, r0, asr #3
 3103 07f8 0441A0E1 		mov	r4, r4, asl #2
 3104 07fc 077009E2 		and	r7, r9, #7
 3105 0800 078068E0 		rsb	r8, r8, r7
 3106 0804 009094E5 		ldr	r9, [r4, #0]
 3107 0808 0801A0E1 		mov	r0, r8, asl #2
 3108 080c 3590C9E1 		bic	r9, r9, r5, lsr r0
 3109 0810 077068E2 		rsb	r7, r8, #7
 3110 0814 0701A0E1 		mov	r0, r7, asl #2
 3111 0818 1C7089E1 		orr	r7, r9, ip, asl r0
 3112 081c 010052E2 		subs	r0, r2, #1
 3113 0820 C08FA0E1 		mov	r8, r0, asr #31
 3114 0824 06208242 		addmi	r2, r2, #6
 3115 0828 0020A051 		movpl	r2, r0
 3116 082c A88EA0E1 		mov	r8, r8, lsr #29
 3117 0830 007084E5 		str	r7, [r4, #0]
 3118 0834 087080E0 		add	r7, r0, r8
 3119 0838 C24186E0 		add	r4, r6, r2, asr #3
 3120 083c 0441A0E1 		mov	r4, r4, asl #2
 3121 0840 072007E2 		and	r2, r7, #7
 3122 0844 028068E0 		rsb	r8, r8, r2
 3123 0848 002094E5 		ldr	r2, [r4, #0]
 3124 084c 0871A0E1 		mov	r7, r8, asl #2
 3125 0850 3527C2E1 		bic	r2, r2, r5, lsr r7
 3126 0854 078068E2 		rsb	r8, r8, #7
 3127 0858 0871A0E1 		mov	r7, r8, asl #2
 3128 085c 1C7782E1 		orr	r7, r2, ip, asl r7
 3129 0860 012040E2 		sub	r2, r0, #1
 304:../lcd.c      ****         while( (usLen--) > 0 )
 3130              		.loc 1 304 0
 3131 0864 0A0052E1 		cmp	r2, sl
 306:../lcd.c      ****         	(LCD_PutPixel(usX0 + usLen, usY0, ucColor));
 3132              		.loc 1 306 0
 3133 0868 007084E5 		str	r7, [r4, #0]
 304:../lcd.c      ****         while( (usLen--) > 0 )
 3134              		.loc 1 304 0
 3135 086c DAFFFF1A 		bne	.L65
 3136              	.L64:
 3137              	.LVL131:
 3138              	.LBE17:
 3139              	.LBE20:
 3140              	.LBB21:
 3141              	.LBB22:
 296:../lcd.c      ****     if( usX1 < usX0 )
 3142              		.loc 1 296 0
 3143 0870 10408DE2 		add	r4, sp, #16
 3144 0874 300094E8 		ldmia	r4, {r4, r5}	@ phole ldm
 3145 0878 050054E1 		cmp	r4, r5
 3146 087c 0500A0D1 		movle	r0, r5
 3147 0880 0420A0D1 		movle	r2, r4
 3148 0884 080000DA 		ble	.L66
 298:../lcd.c      ****         GUISWAP (usX1, usX0);
 3149              		.loc 1 298 0
 3150 0888 045025E0 		eor	r5, r5, r4
 3151 088c 05A8A0E1 		mov	sl, r5, asl #16
 3152 0890 2A08A0E1 		mov	r0, sl, lsr #16
 3153              	.LVL132:
 3154 0894 004024E0 		eor	r4, r4, r0
 3155 0898 0428A0E1 		mov	r2, r4, asl #16
 3156 089c 4228A0E1 		mov	r2, r2, asr #16
 3157              	.LVL133:
 3158 08a0 005022E0 		eor	r5, r2, r0
 3159 08a4 05A8A0E1 		mov	sl, r5, asl #16
 3160 08a8 4A08A0E1 		mov	r0, sl, asr #16
 3161              	.LVL134:
 3162              	.L66:
 303:../lcd.c      ****         usLen = usX1 - usX0 + 1;
 3163              		.loc 1 303 0
 3164 08ac 010080E2 		add	r0, r0, #1
 3165              	.LVL135:
 3166 08b0 00A062E0 		rsb	sl, r2, r0
 3167 08b4 0A48A0E1 		mov	r4, sl, asl #16
 3168 08b8 24A8A0E1 		mov	sl, r4, lsr #16
 3169              	.LVL136:
 304:../lcd.c      ****         while( (usLen--) > 0 )
 3170              		.loc 1 304 0
 3171 08bc 0A48A0E1 		mov	r4, sl, asl #16
 3172 08c0 000054E3 		cmp	r4, #0
 3173 08c4 620000DA 		ble	.L67
 3174 08c8 01804AE2 		sub	r8, sl, #1
 180:../lcd.c      **** void Lcd_Draw_Box(INT16 usLeft, INT16 usTop, INT16 usRight, INT16 usBottom, INT8U ucColor)
 3175              		.loc 1 180 0
 3176 08cc 0898A0E1 		mov	r9, r8, asl #16
 3177 08d0 4908A0E1 		mov	r0, r9, asr #16
 3178              	.LVL137:
 304:../lcd.c      ****         while( (usLen--) > 0 )
 3179              		.loc 1 304 0
 3180 08d4 037183E0 		add	r7, r3, r3, asl #2
 180:../lcd.c      **** void Lcd_Draw_Box(INT16 usLeft, INT16 usTop, INT16 usRight, INT16 usBottom, INT8U ucColor)
 3181              		.loc 1 180 0
 3182 08d8 04008DE5 		str	r0, [sp, #4]
 304:../lcd.c      ****         while( (usLen--) > 0 )
 3183              		.loc 1 304 0
 3184 08dc 8751A0E1 		mov	r5, r7, asl #3
 180:../lcd.c      **** void Lcd_Draw_Box(INT16 usLeft, INT16 usTop, INT16 usRight, INT16 usBottom, INT8U ucColor)
 3185              		.loc 1 180 0
 3186 08e0 020080E0 		add	r0, r0, r2
 304:../lcd.c      ****         while( (usLen--) > 0 )
 3187              		.loc 1 304 0
 3188 08e4 C36785E2 		add	r6, r5, #51118080
 306:../lcd.c      ****         	(LCD_PutPixel(usX0 + usLen, usY0, ucColor));
 3189              		.loc 1 306 0
 3190 08e8 000050E3 		cmp	r0, #0
 3191 08ec C04FA0E1 		mov	r4, r0, asr #31
 3192 08f0 078080E2 		add	r8, r0, #7
 3193 08f4 A44EA0E1 		mov	r4, r4, lsr #29
 3194 08f8 0080A0A1 		movge	r8, r0
 304:../lcd.c      ****         while( (usLen--) > 0 )
 3195              		.loc 1 304 0
 3196 08fc 966D86E2 		add	r6, r6, #9600
 306:../lcd.c      ****         	(LCD_PutPixel(usX0 + usLen, usY0, ucColor));
 3197              		.loc 1 306 0
 3198 0900 049080E0 		add	r9, r0, r4
 3199 0904 C87186E0 		add	r7, r6, r8, asr #3
 3200 0908 075009E2 		and	r5, r9, #7
 3201 090c 0771A0E1 		mov	r7, r7, asl #2
 3202 0910 054064E0 		rsb	r4, r4, r5
 3203 0914 009097E5 		ldr	r9, [r7, #0]
 3204 0918 0481A0E1 		mov	r8, r4, asl #2
 3205 091c 0F52A0E3 		mov	r5, #-268435456
 3206 0920 3598C9E1 		bic	r9, r9, r5, lsr r8
 3207 0924 074064E2 		rsb	r4, r4, #7
 3208 0928 0481A0E1 		mov	r8, r4, asl #2
 3209 092c 1C8889E1 		orr	r8, r9, ip, asl r8
 180:../lcd.c      **** void Lcd_Draw_Box(INT16 usLeft, INT16 usTop, INT16 usRight, INT16 usBottom, INT8U ucColor)
 3210              		.loc 1 180 0
 3211 0930 01404AE2 		sub	r4, sl, #1
 3212 0934 04A09DE5 		ldr	sl, [sp, #4]
 3213              	.LVL138:
 3214 0938 012042E2 		sub	r2, r2, #1
 3215              	.LVL139:
 3216 093c 0A2082E0 		add	r2, r2, sl
 3217              	.LVL140:
 3218 0940 04A8A0E1 		mov	sl, r4, asl #16
 3219 0944 2AA842E0 		sub	sl, r2, sl, lsr #16
 3220 0948 0A4060E0 		rsb	r4, r0, sl
 3221              	.LVL141:
 306:../lcd.c      ****         	(LCD_PutPixel(usX0 + usLen, usY0, ucColor));
 3222              		.loc 1 306 0
 3223 094c 012040E2 		sub	r2, r0, #1
 3224 0950 0440E0E1 		mvn	r4, r4
 304:../lcd.c      ****         while( (usLen--) > 0 )
 3225              		.loc 1 304 0
 3226 0954 0A0052E1 		cmp	r2, sl
 306:../lcd.c      ****         	(LCD_PutPixel(usX0 + usLen, usY0, ucColor));
 3227              		.loc 1 306 0
 3228 0958 0C908DE5 		str	r9, [sp, #12]
 3229 095c 014004E2 		and	r4, r4, #1
 3230 0960 008087E5 		str	r8, [r7, #0]
 304:../lcd.c      ****         while( (usLen--) > 0 )
 3231              		.loc 1 304 0
 3232 0964 3A00000A 		beq	.L67
 3233 0968 000054E3 		cmp	r4, #0
 3234 096c 1300000A 		beq	.L68
 306:../lcd.c      ****         	(LCD_PutPixel(usX0 + usLen, usY0, ucColor));
 3235              		.loc 1 306 0
 3236 0970 000052E3 		cmp	r2, #0
 3237 0974 C28FA0E1 		mov	r8, r2, asr #31
 3238 0978 A87EA0E1 		mov	r7, r8, lsr #29
 3239 097c 0200A0A1 		movge	r0, r2
 3240 0980 060080B2 		addlt	r0, r0, #6
 3241 0984 074082E0 		add	r4, r2, r7
 3242 0988 C00186E0 		add	r0, r6, r0, asr #3
 3243 098c 0001A0E1 		mov	r0, r0, asl #2
 3244 0990 078004E2 		and	r8, r4, #7
 3245 0994 084067E0 		rsb	r4, r7, r8
 3246 0998 007090E5 		ldr	r7, [r0, #0]
 3247 099c 0481A0E1 		mov	r8, r4, asl #2
 3248 09a0 3578C7E1 		bic	r7, r7, r5, lsr r8
 3249 09a4 074064E2 		rsb	r4, r4, #7
 3250 09a8 0441A0E1 		mov	r4, r4, asl #2
 3251 09ac 1C7487E1 		orr	r7, r7, ip, asl r4
 3252 09b0 012042E2 		sub	r2, r2, #1
 304:../lcd.c      ****         while( (usLen--) > 0 )
 3253              		.loc 1 304 0
 3254 09b4 0A0052E1 		cmp	r2, sl
 306:../lcd.c      ****         	(LCD_PutPixel(usX0 + usLen, usY0, ucColor));
 3255              		.loc 1 306 0
 3256 09b8 007080E5 		str	r7, [r0, #0]
 304:../lcd.c      ****         while( (usLen--) > 0 )
 3257              		.loc 1 304 0
 3258 09bc 2400000A 		beq	.L67
 3259              	.L68:
 306:../lcd.c      ****         	(LCD_PutPixel(usX0 + usLen, usY0, ucColor));
 3260              		.loc 1 306 0
 3261 09c0 C27FA0E1 		mov	r7, r2, asr #31
 3262 09c4 000052E3 		cmp	r2, #0
 3263 09c8 070082E2 		add	r0, r2, #7
 3264 09cc A78EA0E1 		mov	r8, r7, lsr #29
 3265 09d0 0200A0A1 		movge	r0, r2
 3266 09d4 089082E0 		add	r9, r2, r8
 3267 09d8 C04186E0 		add	r4, r6, r0, asr #3
 3268 09dc 0441A0E1 		mov	r4, r4, asl #2
 3269 09e0 077009E2 		and	r7, r9, #7
 3270 09e4 078068E0 		rsb	r8, r8, r7
 3271 09e8 009094E5 		ldr	r9, [r4, #0]
 3272 09ec 0801A0E1 		mov	r0, r8, asl #2
 3273 09f0 3590C9E1 		bic	r9, r9, r5, lsr r0
 3274 09f4 077068E2 		rsb	r7, r8, #7
 3275 09f8 0701A0E1 		mov	r0, r7, asl #2
 3276 09fc 1C7089E1 		orr	r7, r9, ip, asl r0
 3277 0a00 010052E2 		subs	r0, r2, #1
 3278 0a04 C08FA0E1 		mov	r8, r0, asr #31
 3279 0a08 06208242 		addmi	r2, r2, #6
 3280 0a0c 0020A051 		movpl	r2, r0
 3281 0a10 A88EA0E1 		mov	r8, r8, lsr #29
 3282 0a14 007084E5 		str	r7, [r4, #0]
 3283 0a18 087080E0 		add	r7, r0, r8
 3284 0a1c C24186E0 		add	r4, r6, r2, asr #3
 3285 0a20 0441A0E1 		mov	r4, r4, asl #2
 3286 0a24 072007E2 		and	r2, r7, #7
 3287 0a28 028068E0 		rsb	r8, r8, r2
 3288 0a2c 002094E5 		ldr	r2, [r4, #0]
 3289 0a30 0871A0E1 		mov	r7, r8, asl #2
 3290 0a34 3527C2E1 		bic	r2, r2, r5, lsr r7
 3291 0a38 078068E2 		rsb	r8, r8, #7
 3292 0a3c 0871A0E1 		mov	r7, r8, asl #2
 3293 0a40 1C7782E1 		orr	r7, r2, ip, asl r7
 3294 0a44 012040E2 		sub	r2, r0, #1
 304:../lcd.c      ****         while( (usLen--) > 0 )
 3295              		.loc 1 304 0
 3296 0a48 0A0052E1 		cmp	r2, sl
 306:../lcd.c      ****         	(LCD_PutPixel(usX0 + usLen, usY0, ucColor));
 3297              		.loc 1 306 0
 3298 0a4c 007084E5 		str	r7, [r4, #0]
 304:../lcd.c      ****         while( (usLen--) > 0 )
 3299              		.loc 1 304 0
 3300 0a50 DAFFFF1A 		bne	.L68
 3301              	.L67:
 3302              	.LVL142:
 3303              	.LBE22:
 3304              	.LBE21:
 3305              	.LBB23:
 3306              	.LBB24:
 327:../lcd.c      ****     if( usY1 < usY0 )
 3307              		.loc 1 327 0
 3308 0a54 030051E1 		cmp	r1, r3
 3309 0a58 0300A0D1 		movle	r0, r3
 3310 0a5c 0120A0D1 		movle	r2, r1
 3311 0a60 080000DA 		ble	.L69
 329:../lcd.c      ****         GUISWAP (usY1, usY0);
 3312              		.loc 1 329 0
 3313 0a64 012023E0 		eor	r2, r3, r1
 3314 0a68 0258A0E1 		mov	r5, r2, asl #16
 3315 0a6c 2558A0E1 		mov	r5, r5, lsr #16
 3316              	.LVL143:
 3317 0a70 050021E0 		eor	r0, r1, r5
 3318 0a74 0028A0E1 		mov	r2, r0, asl #16
 3319 0a78 4228A0E1 		mov	r2, r2, asr #16
 3320              	.LVL144:
 3321 0a7c 050022E0 		eor	r0, r2, r5
 3322 0a80 0058A0E1 		mov	r5, r0, asl #16
 3323              	.LVL145:
 3324 0a84 4508A0E1 		mov	r0, r5, asr #16
 3325              	.LVL146:
 3326              	.L69:
 334:../lcd.c      ****         usLen = usY1 - usY0 + 1;
 3327              		.loc 1 334 0
 3328 0a88 015080E2 		add	r5, r0, #1
 3329 0a8c 050062E0 		rsb	r0, r2, r5
 3330              	.LVL147:
 3331 0a90 0058A0E1 		mov	r5, r0, asl #16
 3332              	.LVL148:
 3333 0a94 2558A0E1 		mov	r5, r5, lsr #16
 3334              	.LVL149:
 335:../lcd.c      ****         while( (usLen--) > 0 )
 3335              		.loc 1 335 0
 3336 0a98 0508A0E1 		mov	r0, r5, asl #16
 3337 0a9c 000050E3 		cmp	r0, #0
 3338 0aa0 540000DA 		ble	.L70
 3339 0aa4 10609DE5 		ldr	r6, [sp, #16]
 3340 0aa8 C64FA0E1 		mov	r4, r6, asr #31
 3341 0aac A49EA0E1 		mov	r9, r4, lsr #29
 3342 0ab0 090086E0 		add	r0, r6, r9
 3343 0ab4 077000E2 		and	r7, r0, #7
 3344 0ab8 078069E0 		rsb	r8, r9, r7
 3345 0abc 076068E2 		rsb	r6, r8, #7
 3346 0ac0 0841A0E1 		mov	r4, r8, asl #2
 3347 0ac4 0FA2A0E3 		mov	sl, #-268435456
 3348 0ac8 3A44E0E1 		mvn	r4, sl, lsr r4
 3349 0acc 0601A0E1 		mov	r0, r6, asl #2
 3350 0ad0 1C00A0E1 		mov	r0, ip, asl r0
 3351 0ad4 10709DE5 		ldr	r7, [sp, #16]
 3352 0ad8 019045E2 		sub	r9, r5, #1
 3353 0adc 000057E3 		cmp	r7, #0
 3354 0ae0 078087E2 		add	r8, r7, #7
 180:../lcd.c      **** void Lcd_Draw_Box(INT16 usLeft, INT16 usTop, INT16 usRight, INT16 usBottom, INT8U ucColor)
 3355              		.loc 1 180 0
 3356 0ae4 09A8A0E1 		mov	sl, r9, asl #16
 335:../lcd.c      ****         while( (usLen--) > 0 )
 3357              		.loc 1 335 0
 3358 0ae8 0780A0A1 		movge	r8, r7
 180:../lcd.c      **** void Lcd_Draw_Box(INT16 usLeft, INT16 usTop, INT16 usRight, INT16 usBottom, INT8U ucColor)
 3359              		.loc 1 180 0
 3360 0aec 4A2882E0 		add	r2, r2, sl, asr #16
 3361              	.LVL150:
 335:../lcd.c      ****         while( (usLen--) > 0 )
 3362              		.loc 1 335 0
 3363 0af0 C881A0E1 		mov	r8, r8, asr #3
 180:../lcd.c      **** void Lcd_Draw_Box(INT16 usLeft, INT16 usTop, INT16 usRight, INT16 usBottom, INT8U ucColor)
 3364              		.loc 1 180 0
 3365 0af4 026182E0 		add	r6, r2, r2, asl #2
 3366 0af8 C39788E2 		add	r9, r8, #51118080
 3367 0afc 8661A0E1 		mov	r6, r6, asl #3
 3368 0b00 967D89E2 		add	r7, r9, #9600
 3369 0b04 01A045E2 		sub	sl, r5, #1
 3370 0b08 0A98A0E1 		mov	r9, sl, asl #16
 3371 0b0c 075086E0 		add	r5, r6, r7
 3372              	.LVL151:
 3373 0b10 90229FE5 		ldr	r2, .L126
 3374 0b14 0551A0E1 		mov	r5, r5, asl #2
 3375 0b18 2978A0E1 		mov	r7, r9, lsr #16
 3376 0b1c 02A088E0 		add	sl, r8, r2
 3377              	.LVL152:
 337:../lcd.c      ****         	(LCD_PutPixel(usX0, usY0 + usLen, ucColor));
 3378              		.loc 1 337 0
 3379 0b20 009095E5 		ldr	r9, [r5, #0]
 180:../lcd.c      **** void Lcd_Draw_Box(INT16 usLeft, INT16 usTop, INT16 usRight, INT16 usBottom, INT8U ucColor)
 3380              		.loc 1 180 0
 3381 0b24 077187E0 		add	r7, r7, r7, asl #2
 3382 0b28 87214AE0 		sub	r2, sl, r7, asl #3
 3383 0b2c 06A082E0 		add	sl, r2, r6
 337:../lcd.c      ****         	(LCD_PutPixel(usX0, usY0 + usLen, ucColor));
 3384              		.loc 1 337 0
 3385 0b30 097004E0 		and	r7, r4, r9
 180:../lcd.c      **** void Lcd_Draw_Box(INT16 usLeft, INT16 usTop, INT16 usRight, INT16 usBottom, INT8U ucColor)
 3386              		.loc 1 180 0
 3387 0b34 0AA1A0E1 		mov	sl, sl, asl #2
 337:../lcd.c      ****         	(LCD_PutPixel(usX0, usY0 + usLen, ucColor));
 3388              		.loc 1 337 0
 3389 0b38 0520A0E1 		mov	r2, r5
 3390 0b3c 077080E1 		orr	r7, r0, r7
 3391 0b40 05606AE0 		rsb	r6, sl, r5
 3392 0b44 A07002E4 		str	r7, [r2], #-160
 3393 0b48 A06046E2 		sub	r6, r6, #160
 3394 0b4c A662A0E1 		mov	r6, r6, lsr #5
 335:../lcd.c      ****         while( (usLen--) > 0 )
 3395              		.loc 1 335 0
 3396 0b50 0A0052E1 		cmp	r2, sl
 3397 0b54 036006E2 		and	r6, r6, #3
 3398 0b58 2600000A 		beq	.L70
 3399 0b5c 000056E3 		cmp	r6, #0
 3400 0b60 1100000A 		beq	.L71
 3401 0b64 010056E3 		cmp	r6, #1
 3402 0b68 0900000A 		beq	.L116
 3403 0b6c 020056E3 		cmp	r6, #2
 337:../lcd.c      ****         	(LCD_PutPixel(usX0, usY0 + usLen, ucColor));
 3404              		.loc 1 337 0
 3405 0b70 00609215 		ldrne	r6, [r2, #0]
 3406 0b74 06600410 		andne	r6, r4, r6
 3407 0b78 06608011 		orrne	r6, r0, r6
 3408 0b7c 00608215 		strne	r6, [r2, #0]
 3409 0b80 052D4512 		subne	r2, r5, #320
 3410 0b84 005092E5 		ldr	r5, [r2, #0]
 3411 0b88 055004E0 		and	r5, r4, r5
 3412 0b8c 055080E1 		orr	r5, r0, r5
 3413 0b90 A05002E4 		str	r5, [r2], #-160
 3414              	.L116:
 3415 0b94 005092E5 		ldr	r5, [r2, #0]
 3416 0b98 055004E0 		and	r5, r4, r5
 3417 0b9c 055080E1 		orr	r5, r0, r5
 3418 0ba0 A05002E4 		str	r5, [r2], #-160
 335:../lcd.c      ****         while( (usLen--) > 0 )
 3419              		.loc 1 335 0
 3420 0ba4 0A0052E1 		cmp	r2, sl
 3421 0ba8 1200000A 		beq	.L70
 3422              	.L71:
 337:../lcd.c      ****         	(LCD_PutPixel(usX0, usY0 + usLen, ucColor));
 3423              		.loc 1 337 0
 3424 0bac 008092E5 		ldr	r8, [r2, #0]
 3425 0bb0 A07012E5 		ldr	r7, [r2, #-160]
 3426 0bb4 406112E5 		ldr	r6, [r2, #-320]
 3427 0bb8 E05112E5 		ldr	r5, [r2, #-480]
 3428 0bbc 088004E0 		and	r8, r4, r8
 3429 0bc0 077004E0 		and	r7, r4, r7
 3430 0bc4 066004E0 		and	r6, r4, r6
 3431 0bc8 055004E0 		and	r5, r4, r5
 3432 0bcc 088080E1 		orr	r8, r0, r8
 3433 0bd0 077080E1 		orr	r7, r0, r7
 3434 0bd4 066080E1 		orr	r6, r0, r6
 3435 0bd8 055080E1 		orr	r5, r0, r5
 3436 0bdc 008082E5 		str	r8, [r2, #0]
 3437 0be0 A07002E5 		str	r7, [r2, #-160]
 3438 0be4 406102E5 		str	r6, [r2, #-320]
 3439 0be8 E05102E5 		str	r5, [r2, #-480]
 3440 0bec 0A2D42E2 		sub	r2, r2, #640
 335:../lcd.c      ****         while( (usLen--) > 0 )
 3441              		.loc 1 335 0
 3442 0bf0 0A0052E1 		cmp	r2, sl
 3443 0bf4 ECFFFF1A 		bne	.L71
 3444              	.L70:
 3445              	.LVL153:
 3446              	.LBE24:
 3447              	.LBE23:
 3448              	.LBB25:
 3449              	.LBB26:
 327:../lcd.c      ****     if( usY1 < usY0 )
 3450              		.loc 1 327 0
 3451 0bf8 030051E1 		cmp	r1, r3
 3452 0bfc 080000DA 		ble	.L72
 329:../lcd.c      ****         GUISWAP (usY1, usY0);
 3453              		.loc 1 329 0
 3454 0c00 010023E0 		eor	r0, r3, r1
 3455 0c04 0028A0E1 		mov	r2, r0, asl #16
 3456 0c08 2208A0E1 		mov	r0, r2, lsr #16
 3457              	.LVL154:
 3458 0c0c 003021E0 		eor	r3, r1, r0
 3459              	.LVL155:
 3460 0c10 0318A0E1 		mov	r1, r3, asl #16
 3461              	.LVL156:
 3462 0c14 4118A0E1 		mov	r1, r1, asr #16
 3463              	.LVL157:
 3464 0c18 002021E0 		eor	r2, r1, r0
 3465 0c1c 0238A0E1 		mov	r3, r2, asl #16
 3466 0c20 4338A0E1 		mov	r3, r3, asr #16
 3467              	.LVL158:
 3468              	.L72:
 334:../lcd.c      ****         usLen = usY1 - usY0 + 1;
 3469              		.loc 1 334 0
 3470 0c24 012083E2 		add	r2, r3, #1
 3471 0c28 020061E0 		rsb	r0, r1, r2
 3472 0c2c 0038A0E1 		mov	r3, r0, asl #16
 3473              	.LVL159:
 3474 0c30 2338A0E1 		mov	r3, r3, lsr #16
 3475              	.LVL160:
 335:../lcd.c      ****         while( (usLen--) > 0 )
 3476              		.loc 1 335 0
 3477 0c34 0328A0E1 		mov	r2, r3, asl #16
 3478              	.LVL161:
 3479 0c38 000052E3 		cmp	r2, #0
 3480 0c3c 530000DA 		ble	.L62
 3481 0c40 14809DE5 		ldr	r8, [sp, #20]
 3482 0c44 C85FA0E1 		mov	r5, r8, asr #31
 3483 0c48 A56EA0E1 		mov	r6, r5, lsr #29
 3484 0c4c 062088E0 		add	r2, r8, r6
 3485 0c50 074002E2 		and	r4, r2, #7
 3486 0c54 040066E0 		rsb	r0, r6, r4
 3487 0c58 076060E2 		rsb	r6, r0, #7
 3488 0c5c 0021A0E1 		mov	r2, r0, asl #2
 3489 0c60 0F52A0E3 		mov	r5, #-268435456
 3490 0c64 0641A0E1 		mov	r4, r6, asl #2
 3491 0c68 3522E0E1 		mvn	r2, r5, lsr r2
 3492 0c6c 1CC4A0E1 		mov	ip, ip, asl r4
 3493              	.LVL162:
 3494 0c70 010043E2 		sub	r0, r3, #1
 3495 0c74 000058E3 		cmp	r8, #0
 180:../lcd.c      **** void Lcd_Draw_Box(INT16 usLeft, INT16 usTop, INT16 usRight, INT16 usBottom, INT8U ucColor)
 3496              		.loc 1 180 0
 3497 0c78 0068A0E1 		mov	r6, r0, asl #16
 335:../lcd.c      ****         while( (usLen--) > 0 )
 3498              		.loc 1 335 0
 3499 0c7c 075088E2 		add	r5, r8, #7
 3500 0c80 0850A0A1 		movge	r5, r8
 180:../lcd.c      **** void Lcd_Draw_Box(INT16 usLeft, INT16 usTop, INT16 usRight, INT16 usBottom, INT8U ucColor)
 3501              		.loc 1 180 0
 3502 0c84 464881E0 		add	r4, r1, r6, asr #16
 335:../lcd.c      ****         while( (usLen--) > 0 )
 3503              		.loc 1 335 0
 3504 0c88 C551A0E1 		mov	r5, r5, asr #3
 180:../lcd.c      **** void Lcd_Draw_Box(INT16 usLeft, INT16 usTop, INT16 usRight, INT16 usBottom, INT8U ucColor)
 3505              		.loc 1 180 0
 3506 0c8c 041184E0 		add	r1, r4, r4, asl #2
 3507              	.LVL163:
 3508 0c90 C30785E2 		add	r0, r5, #51118080
 3509 0c94 8111A0E1 		mov	r1, r1, asl #3
 3510 0c98 014043E2 		sub	r4, r3, #1
 3511 0c9c 966D80E2 		add	r6, r0, #9600
 3512 0ca0 060081E0 		add	r0, r1, r6
 3513 0ca4 FC309FE5 		ldr	r3, .L126
 3514              	.LVL164:
 3515 0ca8 0468A0E1 		mov	r6, r4, asl #16
 3516 0cac 0001A0E1 		mov	r0, r0, asl #2
 3517 0cb0 2648A0E1 		mov	r4, r6, lsr #16
 3518              	.LVL165:
 3519 0cb4 033085E0 		add	r3, r5, r3
 337:../lcd.c      ****         	(LCD_PutPixel(usX0, usY0 + usLen, ucColor));
 3520              		.loc 1 337 0
 3521 0cb8 006090E5 		ldr	r6, [r0, #0]
 180:../lcd.c      **** void Lcd_Draw_Box(INT16 usLeft, INT16 usTop, INT16 usRight, INT16 usBottom, INT8U ucColor)
 3522              		.loc 1 180 0
 3523 0cbc 044184E0 		add	r4, r4, r4, asl #2
 3524 0cc0 844143E0 		sub	r4, r3, r4, asl #3
 3525 0cc4 013084E0 		add	r3, r4, r1
 337:../lcd.c      ****         	(LCD_PutPixel(usX0, usY0 + usLen, ucColor));
 3526              		.loc 1 337 0
 3527 0cc8 064002E0 		and	r4, r2, r6
 3528 0ccc 04408CE1 		orr	r4, ip, r4
 180:../lcd.c      **** void Lcd_Draw_Box(INT16 usLeft, INT16 usTop, INT16 usRight, INT16 usBottom, INT8U ucColor)
 3529              		.loc 1 180 0
 3530 0cd0 0361A0E1 		mov	r6, r3, asl #2
 337:../lcd.c      ****         	(LCD_PutPixel(usX0, usY0 + usLen, ucColor));
 3531              		.loc 1 337 0
 3532 0cd4 0030A0E1 		mov	r3, r0
 3533 0cd8 001066E0 		rsb	r1, r6, r0
 3534 0cdc A04003E4 		str	r4, [r3], #-160
 3535 0ce0 A01041E2 		sub	r1, r1, #160
 3536 0ce4 A112A0E1 		mov	r1, r1, lsr #5
 335:../lcd.c      ****         while( (usLen--) > 0 )
 3537              		.loc 1 335 0
 3538 0ce8 060053E1 		cmp	r3, r6
 3539 0cec 031001E2 		and	r1, r1, #3
 3540 0cf0 2600000A 		beq	.L62
 3541 0cf4 000051E3 		cmp	r1, #0
 3542 0cf8 1100000A 		beq	.L74
 3543 0cfc 010051E3 		cmp	r1, #1
 3544 0d00 0900000A 		beq	.L114
 3545 0d04 020051E3 		cmp	r1, #2
 337:../lcd.c      ****         	(LCD_PutPixel(usX0, usY0 + usLen, ucColor));
 3546              		.loc 1 337 0
 3547 0d08 00109315 		ldrne	r1, [r3, #0]
 3548 0d0c 01100210 		andne	r1, r2, r1
 3549 0d10 01108C11 		orrne	r1, ip, r1
 3550 0d14 00108315 		strne	r1, [r3, #0]
 3551 0d18 053D4012 		subne	r3, r0, #320
 3552 0d1c 001093E5 		ldr	r1, [r3, #0]
 3553 0d20 010002E0 		and	r0, r2, r1
 3554 0d24 00108CE1 		orr	r1, ip, r0
 3555 0d28 A01003E4 		str	r1, [r3], #-160
 3556              	.L114:
 3557 0d2c 000093E5 		ldr	r0, [r3, #0]
 3558 0d30 001002E0 		and	r1, r2, r0
 3559 0d34 01008CE1 		orr	r0, ip, r1
 3560 0d38 A00003E4 		str	r0, [r3], #-160
 335:../lcd.c      ****         while( (usLen--) > 0 )
 3561              		.loc 1 335 0
 3562 0d3c 060053E1 		cmp	r3, r6
 3563 0d40 1200000A 		beq	.L62
 3564              	.L74:
 337:../lcd.c      ****         	(LCD_PutPixel(usX0, usY0 + usLen, ucColor));
 3565              		.loc 1 337 0
 3566 0d44 005093E5 		ldr	r5, [r3, #0]
 3567 0d48 A04013E5 		ldr	r4, [r3, #-160]
 3568 0d4c 400113E5 		ldr	r0, [r3, #-320]
 3569 0d50 E01113E5 		ldr	r1, [r3, #-480]
 3570 0d54 055002E0 		and	r5, r2, r5
 3571 0d58 044002E0 		and	r4, r2, r4
 3572 0d5c 000002E0 		and	r0, r2, r0
 3573 0d60 011002E0 		and	r1, r2, r1
 3574 0d64 05508CE1 		orr	r5, ip, r5
 3575 0d68 04408CE1 		orr	r4, ip, r4
 3576 0d6c 00008CE1 		orr	r0, ip, r0
 3577 0d70 01108CE1 		orr	r1, ip, r1
 3578 0d74 005083E5 		str	r5, [r3, #0]
 3579 0d78 A04003E5 		str	r4, [r3, #-160]
 3580 0d7c 400103E5 		str	r0, [r3, #-320]
 3581 0d80 E01103E5 		str	r1, [r3, #-480]
 3582 0d84 0A3D43E2 		sub	r3, r3, #640
 335:../lcd.c      ****         while( (usLen--) > 0 )
 3583              		.loc 1 335 0
 3584 0d88 060053E1 		cmp	r3, r6
 3585 0d8c ECFFFF1A 		bne	.L74
 3586              	.L62:
 3587              	.LBE26:
 3588              	.LBE25:
 186:../lcd.c      **** }
 3589              		.loc 1 186 0
 3590 0d90 1CD08DE2 		add	sp, sp, #28
 3591 0d94 F007BDE8 		ldmfd	sp!, {r4, r5, r6, r7, r8, r9, sl}
 3592 0d98 1EFF2FE1 		bx	lr
 3593              	.LVL166:
 3594              	.L75:
 3595 0d9c 02A0A0E1 		mov	sl, r2
 3596              	.LBB27:
 3597              	.LBB19:
 296:../lcd.c      ****     if( usX1 < usX0 )
 3598              		.loc 1 296 0
 3599 0da0 10209DE5 		ldr	r2, [sp, #16]
 3600              	.LVL167:
 3601 0da4 47FEFFEA 		b	.L63
 3602              	.L127:
 3603              		.align	2
 3604              	.L126:
 3605 0da8 58250C03 		.word	51127640
 3606              	.LBE19:
 3607              	.LBE27:
 3608              		.cfi_endproc
 3609              	.LFE5:
 3611              		.global	__aeabi_idiv
 3612              		.align	2
 3613              		.global	Lcd_Draw_Line
 3615              	Lcd_Draw_Line:
 3616              	.LFB6:
 200:../lcd.c      **** {
 3617              		.loc 1 200 0
 3618              		.cfi_startproc
 3619              		@ Function supports interworking.
 3620              		@ args = 8, pretend = 0, frame = 48
 3621              		@ frame_needed = 1, uses_anonymous_args = 0
 3622              	.LVL168:
 3623 0dac 0DC0A0E1 		mov	ip, sp
 3624              	.LCFI5:
 3625              		.cfi_def_cfa_register 12
 3626 0db0 F0DF2DE9 		stmfd	sp!, {r4, r5, r6, r7, r8, r9, sl, fp, ip, lr, pc}
 3627 0db4 04B04CE2 		sub	fp, ip, #4
 3628              		.cfi_offset 14, -8
 3629              		.cfi_offset 13, -12
 3630              		.cfi_offset 11, -16
 3631              		.cfi_offset 10, -20
 3632              		.cfi_offset 9, -24
 3633              		.cfi_offset 8, -28
 3634              		.cfi_offset 7, -32
 3635              		.cfi_offset 6, -36
 3636              		.cfi_offset 5, -40
 3637              		.cfi_offset 4, -44
 3638              	.LCFI6:
 3639              		.cfi_def_cfa 11, 4
 3640 0db8 34D04DE2 		sub	sp, sp, #52
 208:../lcd.c      **** 	if( usY0 == usY1 )
 3641              		.loc 1 208 0
 3642 0dbc 030051E1 		cmp	r1, r3
 200:../lcd.c      **** {
 3643              		.loc 1 200 0
 3644 0dc0 0140A0E1 		mov	r4, r1
 3645 0dc4 0360A0E1 		mov	r6, r3
 3646 0dc8 0050A0E1 		mov	r5, r0
 3647 0dcc 0280A0E1 		mov	r8, r2
 3648 0dd0 0470DBE5 		ldrb	r7, [fp, #4]	@ zero_extendqisi2
 3649 0dd4 B8C0DBE1 		ldrh	ip, [fp, #8]
 208:../lcd.c      **** 	if( usY0 == usY1 )
 3650              		.loc 1 208 0
 3651 0dd8 5602000A 		beq	.L223
 213:../lcd.c      **** 	if( usX0 == usX1 )
 3652              		.loc 1 213 0
 3653 0ddc 020050E1 		cmp	r0, r2
 3654 0de0 D802000A 		beq	.L224
 218:../lcd.c      **** 	usDx = abs(usX0 - usX1);
 3655              		.loc 1 218 0
 3656 0de4 00A062E0 		rsb	sl, r2, r0
 219:../lcd.c      **** 	usDy = abs(usY0 - usY1);
 3657              		.loc 1 219 0
 3658 0de8 013063E0 		rsb	r3, r3, r1
 3659              	.LVL169:
 218:../lcd.c      **** 	usDx = abs(usX0 - usX1);
 3660              		.loc 1 218 0
 3661 0dec 00005AE3 		cmp	sl, #0
 3662 0df0 00A06AB2 		rsblt	sl, sl, #0
 219:../lcd.c      **** 	usDy = abs(usY0 - usY1);
 3663              		.loc 1 219 0
 3664 0df4 000053E3 		cmp	r3, #0
 3665 0df8 003063B2 		rsblt	r3, r3, #0
 218:../lcd.c      **** 	usDx = abs(usX0 - usX1);
 3666              		.loc 1 218 0
 3667 0dfc 0A28A0E1 		mov	r2, sl, asl #16
 3668              	.LVL170:
 219:../lcd.c      **** 	usDy = abs(usY0 - usY1);
 3669              		.loc 1 219 0
 3670 0e00 0398A0E1 		mov	r9, r3, asl #16
 218:../lcd.c      **** 	usDx = abs(usX0 - usX1);
 3671              		.loc 1 218 0
 3672 0e04 2228A0E1 		mov	r2, r2, lsr #16
 219:../lcd.c      **** 	usDy = abs(usY0 - usY1);
 3673              		.loc 1 219 0
 3674 0e08 29E8A0E1 		mov	lr, r9, lsr #16
 220:../lcd.c      **** 	if( ((usDx >= usDy && (usX0 > usX1)) ||
 3675              		.loc 1 220 0
 3676 0e0c 0EA8A0E1 		mov	sl, lr, asl #16
 3677 0e10 0298A0E1 		mov	r9, r2, asl #16
 3678 0e14 4908A0E1 		mov	r0, r9, asr #16
 3679              	.LVL171:
 3680 0e18 4A18A0E1 		mov	r1, sl, asr #16
 3681              	.LVL172:
 3682 0e1c 010050E1 		cmp	r0, r1
 218:../lcd.c      **** 	usDx = abs(usX0 - usX1);
 3683              		.loc 1 218 0
 3684 0e20 4C200BE5 		str	r2, [fp, #-76]
 3685              	.LVL173:
 220:../lcd.c      **** 	if( ((usDx >= usDy && (usX0 > usX1)) ||
 3686              		.loc 1 220 0
 3687 0e24 0020A0B3 		movlt	r2, #0
 3688 0e28 0120A0A3 		movge	r2, #1
 3689 0e2c 010050E1 		cmp	r0, r1
 3690 0e30 080055A1 		cmpge	r5, r8
 219:../lcd.c      **** 	usDy = abs(usY0 - usY1);
 3691              		.loc 1 219 0
 3692 0e34 50E00BE5 		str	lr, [fp, #-80]
 3693              	.LVL174:
 220:../lcd.c      **** 	if( ((usDx >= usDy && (usX0 > usX1)) ||
 3694              		.loc 1 220 0
 3695 0e38 40000BE5 		str	r0, [fp, #-64]
 3696 0e3c 44100BE5 		str	r1, [fp, #-68]
 3697 0e40 FC0100DA 		ble	.L225
 3698              	.L140:
 3699              	.LVL175:
 223:../lcd.c      ****         GUISWAP(usX1, usX0);
 3700              		.loc 1 223 0
 3701 0e44 053028E0 		eor	r3, r8, r5
 224:../lcd.c      ****         GUISWAP(usY1, usY0);
 3702              		.loc 1 224 0
 3703 0e48 04E026E0 		eor	lr, r6, r4
 223:../lcd.c      ****         GUISWAP(usX1, usX0);
 3704              		.loc 1 223 0
 3705 0e4c 031028E0 		eor	r1, r8, r3
 224:../lcd.c      ****         GUISWAP(usY1, usY0);
 3706              		.loc 1 224 0
 3707 0e50 0E0026E0 		eor	r0, r6, lr
 223:../lcd.c      ****         GUISWAP(usX1, usX0);
 3708              		.loc 1 223 0
 3709 0e54 0850A0E1 		mov	r5, r8
 3710              	.LVL176:
 224:../lcd.c      ****         GUISWAP(usY1, usY0);
 3711              		.loc 1 224 0
 3712 0e58 0640A0E1 		mov	r4, r6
 223:../lcd.c      ****         GUISWAP(usX1, usX0);
 3713              		.loc 1 223 0
 3714 0e5c 0188A0E1 		mov	r8, r1, asl #16
 3715              	.LVL177:
 224:../lcd.c      ****         GUISWAP(usY1, usY0);
 3716              		.loc 1 224 0
 3717 0e60 0068A0E1 		mov	r6, r0, asl #16
 223:../lcd.c      ****         GUISWAP(usX1, usX0);
 3718              		.loc 1 223 0
 3719 0e64 4888A0E1 		mov	r8, r8, asr #16
 3720              	.LVL178:
 224:../lcd.c      ****         GUISWAP(usY1, usY0);
 3721              		.loc 1 224 0
 3722 0e68 4668A0E1 		mov	r6, r6, asr #16
 3723              	.LVL179:
 3724              	.L141:
 226:../lcd.c      ****     y_sign = (usY1 - usY0) / usDy;
 3725              		.loc 1 226 0
 3726 0e6c 44101BE5 		ldr	r1, [fp, #-68]
 3727 0e70 060064E0 		rsb	r0, r4, r6
 3728 0e74 54200BE5 		str	r2, [fp, #-84]
 3729 0e78 58C00BE5 		str	ip, [fp, #-88]
 3730 0e7c FEFFFFEB 		bl	__aeabi_idiv
 3731 0e80 00C8A0E1 		mov	ip, r0, asl #16
 3732 0e84 2C38A0E1 		mov	r3, ip, lsr #16
 227:../lcd.c      ****     x_sign = (usX1 - usX0) / usDx;
 3733              		.loc 1 227 0
 3734 0e88 40101BE5 		ldr	r1, [fp, #-64]
 3735 0e8c 080065E0 		rsb	r0, r5, r8
 226:../lcd.c      ****     y_sign = (usY1 - usY0) / usDy;
 3736              		.loc 1 226 0
 3737 0e90 48300BE5 		str	r3, [fp, #-72]
 3738              	.LVL180:
 227:../lcd.c      ****     x_sign = (usX1 - usX0) / usDx;
 3739              		.loc 1 227 0
 3740 0e94 FEFFFFEB 		bl	__aeabi_idiv
 229:../lcd.c      ****     if( usDx >= usDy )
 3741              		.loc 1 229 0
 3742 0e98 54201BE5 		ldr	r2, [fp, #-84]
 227:../lcd.c      ****     x_sign = (usX1 - usX0) / usDx;
 3743              		.loc 1 227 0
 3744 0e9c 00C8A0E1 		mov	ip, r0, asl #16
 229:../lcd.c      ****     if( usDx >= usDy )
 3745              		.loc 1 229 0
 3746 0ea0 000052E3 		cmp	r2, #0
 227:../lcd.c      ****     x_sign = (usX1 - usX0) / usDx;
 3747              		.loc 1 227 0
 3748 0ea4 2C08A0E1 		mov	r0, ip, lsr #16
 3749              	.LVL181:
 229:../lcd.c      ****     if( usDx >= usDy )
 3750              		.loc 1 229 0
 3751 0ea8 58C01BE5 		ldr	ip, [fp, #-88]
 3752 0eac 1101000A 		beq	.L142
 3753              	.LVL182:
 231:../lcd.c      ****         for( wCurx = usX0, wCury = usY0, wNextx = usX1,
 3754              		.loc 1 231 0
 3755 0eb0 080055E1 		cmp	r5, r8
 3756 0eb4 1C0200CA 		bgt	.L128
 232:../lcd.c      ****              wNexty = usY1, decision = (usDx >> 1);
 3757              		.loc 1 232 0
 3758 0eb8 C908A0E1 		mov	r0, r9, asr #17
 3759              	.LVL183:
 3760 0ebc 2AA8A0E1 		mov	sl, sl, lsr #16
 3761 0ec0 0098A0E1 		mov	r9, r0, asl #16
 3762 0ec4 38800BE5 		str	r8, [fp, #-56]
 3763 0ec8 30400BE5 		str	r4, [fp, #-48]
 3764 0ecc 34500BE5 		str	r5, [fp, #-52]
 241:../lcd.c      ****             for( wpy = wCury - usWidth / 2;
 3765              		.loc 1 241 0
 3766 0ed0 3C700BE5 		str	r7, [fp, #-60]
 232:../lcd.c      ****              wNexty = usY1, decision = (usDx >> 1);
 3767              		.loc 1 232 0
 3768 0ed4 44A00BE5 		str	sl, [fp, #-68]
 3769 0ed8 2998A0E1 		mov	r9, r9, lsr #16
 3770 0edc ACC0A0E1 		mov	ip, ip, lsr #1
 241:../lcd.c      ****             for( wpy = wCury - usWidth / 2;
 3771              		.loc 1 241 0
 3772 0ee0 06A0A0E1 		mov	sl, r6
 3773              	.LVL184:
 3774              	.L148:
 235:../lcd.c      ****             if( decision >= usDx )
 3775              		.loc 1 235 0
 3776 0ee4 40701BE5 		ldr	r7, [fp, #-64]
 3777 0ee8 0958A0E1 		mov	r5, r9, asl #16
 3778 0eec 450857E1 		cmp	r7, r5, asr #16
 3779 0ef0 0C0000CA 		bgt	.L143
 237:../lcd.c      ****                 decision -= usDx;
 3780              		.loc 1 237 0
 3781 0ef4 4C401BE5 		ldr	r4, [fp, #-76]
 238:../lcd.c      ****                 wCury += y_sign;
 3782              		.loc 1 238 0
 3783 0ef8 30001BE5 		ldr	r0, [fp, #-48]
 237:../lcd.c      ****                 decision -= usDx;
 3784              		.loc 1 237 0
 3785 0efc 099064E0 		rsb	r9, r4, r9
 238:../lcd.c      ****                 wCury += y_sign;
 3786              		.loc 1 238 0
 3787 0f00 48401BE5 		ldr	r4, [fp, #-72]
 3788 0f04 003084E0 		add	r3, r4, r0
 3789 0f08 03E8A0E1 		mov	lr, r3, asl #16
 239:../lcd.c      ****                 wNexty -= y_sign;
 3790              		.loc 1 239 0
 3791 0f0c 0AA064E0 		rsb	sl, r4, sl
 238:../lcd.c      ****                 wCury += y_sign;
 3792              		.loc 1 238 0
 3793 0f10 2E18A0E1 		mov	r1, lr, lsr #16
 237:../lcd.c      ****                 decision -= usDx;
 3794              		.loc 1 237 0
 3795 0f14 0928A0E1 		mov	r2, r9, asl #16
 239:../lcd.c      ****                 wNexty -= y_sign;
 3796              		.loc 1 239 0
 3797 0f18 0A68A0E1 		mov	r6, sl, asl #16
 238:../lcd.c      ****                 wCury += y_sign;
 3798              		.loc 1 238 0
 3799 0f1c 30100BE5 		str	r1, [fp, #-48]
 237:../lcd.c      ****                 decision -= usDx;
 3800              		.loc 1 237 0
 3801 0f20 2298A0E1 		mov	r9, r2, lsr #16
 3802              	.LVL185:
 239:../lcd.c      ****                 wNexty -= y_sign;
 3803              		.loc 1 239 0
 3804 0f24 26A8A0E1 		mov	sl, r6, lsr #16
 3805              	.LVL186:
 3806              	.L143:
 241:../lcd.c      ****             for( wpy = wCury - usWidth / 2;
 3807              		.loc 1 241 0
 3808 0f28 30601BE5 		ldr	r6, [fp, #-48]
 3809 0f2c 06106CE0 		rsb	r1, ip, r6
 242:../lcd.c      ****                  wpy <= wCury + usWidth / 2; wpy++ )
 3810              		.loc 1 242 0
 3811 0f30 0178A0E1 		mov	r7, r1, asl #16
 3812 0f34 0658A0E1 		mov	r5, r6, asl #16
 3813 0f38 4778A0E1 		mov	r7, r7, asr #16
 3814 0f3c 45688CE0 		add	r6, ip, r5, asr #16
 241:../lcd.c      ****             for( wpy = wCury - usWidth / 2;
 3815              		.loc 1 241 0
 3816 0f40 060057E1 		cmp	r7, r6
 3817 0f44 690000CA 		bgt	.L144
 3818 0f48 34001BE5 		ldr	r0, [fp, #-52]
 3819 0f4c 0038A0E1 		mov	r3, r0, asl #16
 3820 0f50 C3EFA0E1 		mov	lr, r3, asr #31
 3821 0f54 AE2EA0E1 		mov	r2, lr, lsr #29
 3822 0f58 4338A0E1 		mov	r3, r3, asr #16
 3823 0f5c 021083E0 		add	r1, r3, r2
 3824 0f60 075001E2 		and	r5, r1, #7
 3825 0f64 058062E0 		rsb	r8, r2, r5
 3826 0f68 07E068E2 		rsb	lr, r8, #7
 3827 0f6c 3C201BE5 		ldr	r2, [fp, #-60]
 3828 0f70 0801A0E1 		mov	r0, r8, asl #2
 3829 0f74 0F42A0E3 		mov	r4, #-268435456
 3830 0f78 3400E0E1 		mvn	r0, r4, lsr r0
 3831 0f7c 0E11A0E1 		mov	r1, lr, asl #2
 3832 0f80 1211A0E1 		mov	r1, r2, asl r1
 3833 0f84 075083E2 		add	r5, r3, #7
 3834 0f88 000053E3 		cmp	r3, #0
 3835 0f8c 0530A0B1 		movlt	r3, r5
 3836 0f90 C381A0E1 		mov	r8, r3, asr #3
 3837 0f94 C34788E2 		add	r4, r8, #51118080
 244:../lcd.c      ****                 (LCD_PutPixel(wCurx, wpy, ucColor));
 3838              		.loc 1 244 0
 3839 0f98 07E187E0 		add	lr, r7, r7, asl #2
 241:../lcd.c      ****             for( wpy = wCury - usWidth / 2;
 3840              		.loc 1 241 0
 3841 0f9c 964D84E2 		add	r4, r4, #9600
 244:../lcd.c      ****                 (LCD_PutPixel(wCurx, wpy, ucColor));
 3842              		.loc 1 244 0
 3843 0fa0 8E2184E0 		add	r2, r4, lr, asl #3
 3844 0fa4 02E1A0E1 		mov	lr, r2, asl #2
 3845 0fa8 00309EE5 		ldr	r3, [lr, #0]
 199:../lcd.c      **** void Lcd_Draw_Line(INT16 usX0, INT16 usY0, INT16 usX1, INT16 usY1, INT8U ucColor, INT16U usWidth)
 3846              		.loc 1 199 0
 3847 0fac 015087E2 		add	r5, r7, #1
 3848 0fb0 026086E2 		add	r6, r6, #2
 3849 0fb4 0570E0E1 		mvn	r7, r5
 244:../lcd.c      ****                 (LCD_PutPixel(wCurx, wpy, ucColor));
 3850              		.loc 1 244 0
 3851 0fb8 038000E0 		and	r8, r0, r3
 3852 0fbc 013085E2 		add	r3, r5, #1
 3853 0fc0 0520A0E1 		mov	r2, r5
 3854 0fc4 018088E1 		orr	r8, r8, r1
 3855 0fc8 065087E0 		add	r5, r7, r6
 241:../lcd.c      ****             for( wpy = wCury - usWidth / 2;
 3856              		.loc 1 241 0
 3857 0fcc 060053E1 		cmp	r3, r6
 3858 0fd0 037005E2 		and	r7, r5, #3
 244:../lcd.c      ****                 (LCD_PutPixel(wCurx, wpy, ucColor));
 3859              		.loc 1 244 0
 3860 0fd4 00808EE5 		str	r8, [lr, #0]
 3861              	.LVL187:
 241:../lcd.c      ****             for( wpy = wCury - usWidth / 2;
 3862              		.loc 1 241 0
 3863 0fd8 4400000A 		beq	.L144
 3864 0fdc 000057E3 		cmp	r7, #0
 3865 0fe0 2000000A 		beq	.L145
 3866 0fe4 010057E3 		cmp	r7, #1
 3867 0fe8 1300000A 		beq	.L209
 3868 0fec 020057E3 		cmp	r7, #2
 3869 0ff0 0800000A 		beq	.L210
 244:../lcd.c      ****                 (LCD_PutPixel(wCurx, wpy, ucColor));
 3870              		.loc 1 244 0
 3871 0ff4 025182E0 		add	r5, r2, r2, asl #2
 3872 0ff8 857184E0 		add	r7, r4, r5, asl #3
 3873 0ffc 0771A0E1 		mov	r7, r7, asl #2
 3874 1000 00E097E5 		ldr	lr, [r7, #0]
 3875 1004 0E2000E0 		and	r2, r0, lr
 3876 1008 015082E1 		orr	r5, r2, r1
 3877 100c 005087E5 		str	r5, [r7, #0]
 3878 1010 0320A0E1 		mov	r2, r3
 3879 1014 013083E2 		add	r3, r3, #1
 3880              	.L210:
 3881 1018 02E182E0 		add	lr, r2, r2, asl #2
 3882 101c 8E2184E0 		add	r2, r4, lr, asl #3
 3883 1020 0221A0E1 		mov	r2, r2, asl #2
 3884 1024 005092E5 		ldr	r5, [r2, #0]
 3885 1028 057000E0 		and	r7, r0, r5
 3886 102c 01E087E1 		orr	lr, r7, r1
 3887 1030 00E082E5 		str	lr, [r2, #0]
 3888 1034 0320A0E1 		mov	r2, r3
 3889 1038 013083E2 		add	r3, r3, #1
 3890              	.L209:
 3891 103c 025182E0 		add	r5, r2, r2, asl #2
 3892 1040 852184E0 		add	r2, r4, r5, asl #3
 3893 1044 0251A0E1 		mov	r5, r2, asl #2
 3894 1048 007095E5 		ldr	r7, [r5, #0]
 3895 104c 0320A0E1 		mov	r2, r3
 3896 1050 07E000E0 		and	lr, r0, r7
 3897 1054 013083E2 		add	r3, r3, #1
 3898 1058 01708EE1 		orr	r7, lr, r1
 241:../lcd.c      ****             for( wpy = wCury - usWidth / 2;
 3899              		.loc 1 241 0
 3900 105c 060053E1 		cmp	r3, r6
 244:../lcd.c      ****                 (LCD_PutPixel(wCurx, wpy, ucColor));
 3901              		.loc 1 244 0
 3902 1060 007085E5 		str	r7, [r5, #0]
 241:../lcd.c      ****             for( wpy = wCury - usWidth / 2;
 3903              		.loc 1 241 0
 3904 1064 2100000A 		beq	.L144
 3905              	.L145:
 244:../lcd.c      ****                 (LCD_PutPixel(wCurx, wpy, ucColor));
 3906              		.loc 1 244 0
 3907 1068 028182E0 		add	r8, r2, r2, asl #2
 3908 106c 885184E0 		add	r5, r4, r8, asl #3
 3909 1070 0581A0E1 		mov	r8, r5, asl #2
 3910 1074 002098E5 		ldr	r2, [r8, #0]
 3911 1078 027000E0 		and	r7, r0, r2
 3912 107c 035183E0 		add	r5, r3, r3, asl #2
 3913 1080 01E087E1 		orr	lr, r7, r1
 3914 1084 00E088E5 		str	lr, [r8, #0]
 3915 1088 852184E0 		add	r2, r4, r5, asl #3
 3916 108c 0251A0E1 		mov	r5, r2, asl #2
 3917 1090 007095E5 		ldr	r7, [r5, #0]
 3918 1094 012083E2 		add	r2, r3, #1
 3919 1098 07E000E0 		and	lr, r0, r7
 3920 109c 01808EE1 		orr	r8, lr, r1
 3921 10a0 027182E0 		add	r7, r2, r2, asl #2
 3922 10a4 008085E5 		str	r8, [r5, #0]
 3923 10a8 87E184E0 		add	lr, r4, r7, asl #3
 3924 10ac 0EE1A0E1 		mov	lr, lr, asl #2
 3925 10b0 00509EE5 		ldr	r5, [lr, #0]
 3926 10b4 017082E2 		add	r7, r2, #1
 3927 10b8 058000E0 		and	r8, r0, r5
 3928 10bc 018088E1 		orr	r8, r8, r1
 3929 10c0 075187E0 		add	r5, r7, r7, asl #2
 3930 10c4 00808EE5 		str	r8, [lr, #0]
 3931 10c8 852184E0 		add	r2, r4, r5, asl #3
 3932 10cc 0251A0E1 		mov	r5, r2, asl #2
 3933 10d0 007095E5 		ldr	r7, [r5, #0]
 3934 10d4 032083E2 		add	r2, r3, #3
 3935 10d8 07E000E0 		and	lr, r0, r7
 3936 10dc 043083E2 		add	r3, r3, #4
 3937 10e0 01708EE1 		orr	r7, lr, r1
 241:../lcd.c      ****             for( wpy = wCury - usWidth / 2;
 3938              		.loc 1 241 0
 3939 10e4 060053E1 		cmp	r3, r6
 244:../lcd.c      ****                 (LCD_PutPixel(wCurx, wpy, ucColor));
 3940              		.loc 1 244 0
 3941 10e8 007085E5 		str	r7, [r5, #0]
 241:../lcd.c      ****             for( wpy = wCury - usWidth / 2;
 3942              		.loc 1 241 0
 3943 10ec DDFFFF1A 		bne	.L145
 3944              	.L144:
 3945              	.LVL188:
 247:../lcd.c      ****             for( wpy = wNexty - usWidth / 2;
 3946              		.loc 1 247 0
 3947 10f0 0A306CE0 		rsb	r3, ip, sl
 248:../lcd.c      ****                  wpy <= wNexty + usWidth / 2; wpy++ )
 3948              		.loc 1 248 0
 3949 10f4 0318A0E1 		mov	r1, r3, asl #16
 3950 10f8 0A68A0E1 		mov	r6, sl, asl #16
 3951 10fc 4178A0E1 		mov	r7, r1, asr #16
 3952 1100 46688CE0 		add	r6, ip, r6, asr #16
 247:../lcd.c      ****             for( wpy = wNexty - usWidth / 2;
 3953              		.loc 1 247 0
 3954 1104 060057E1 		cmp	r7, r6
 3955 1108 690000CA 		bgt	.L146
 3956 110c 38001BE5 		ldr	r0, [fp, #-56]
 3957 1110 0088A0E1 		mov	r8, r0, asl #16
 3958 1114 C8EFA0E1 		mov	lr, r8, asr #31
 3959 1118 AE2EA0E1 		mov	r2, lr, lsr #29
 3960 111c 4888A0E1 		mov	r8, r8, asr #16
 3961 1120 021088E0 		add	r1, r8, r2
 3962 1124 073001E2 		and	r3, r1, #7
 3963 1128 035062E0 		rsb	r5, r2, r3
 3964 112c 07E065E2 		rsb	lr, r5, #7
 3965 1130 3C201BE5 		ldr	r2, [fp, #-60]
 3966 1134 0501A0E1 		mov	r0, r5, asl #2
 3967 1138 0F42A0E3 		mov	r4, #-268435456
 3968 113c 3400E0E1 		mvn	r0, r4, lsr r0
 3969 1140 0E11A0E1 		mov	r1, lr, asl #2
 3970 1144 1211A0E1 		mov	r1, r2, asl r1
 3971 1148 073088E2 		add	r3, r8, #7
 3972 114c 000058E3 		cmp	r8, #0
 3973 1150 0380A0B1 		movlt	r8, r3
 3974 1154 C851A0E1 		mov	r5, r8, asr #3
 3975 1158 C34785E2 		add	r4, r5, #51118080
 250:../lcd.c      ****                 (LCD_PutPixel(wNextx, wpy, ucColor));
 3976              		.loc 1 250 0
 3977 115c 07E187E0 		add	lr, r7, r7, asl #2
 247:../lcd.c      ****             for( wpy = wNexty - usWidth / 2;
 3978              		.loc 1 247 0
 3979 1160 964D84E2 		add	r4, r4, #9600
 250:../lcd.c      ****                 (LCD_PutPixel(wNextx, wpy, ucColor));
 3980              		.loc 1 250 0
 3981 1164 8E2184E0 		add	r2, r4, lr, asl #3
 3982 1168 02E1A0E1 		mov	lr, r2, asl #2
 3983 116c 00809EE5 		ldr	r8, [lr, #0]
 199:../lcd.c      **** void Lcd_Draw_Line(INT16 usX0, INT16 usY0, INT16 usX1, INT16 usY1, INT8U ucColor, INT16U usWidth)
 3984              		.loc 1 199 0
 3985 1170 013087E2 		add	r3, r7, #1
 3986 1174 026086E2 		add	r6, r6, #2
 3987 1178 0370E0E1 		mvn	r7, r3
 250:../lcd.c      ****                 (LCD_PutPixel(wNextx, wpy, ucColor));
 3988              		.loc 1 250 0
 3989 117c 0320A0E1 		mov	r2, r3
 3990 1180 085000E0 		and	r5, r0, r8
 3991 1184 013083E2 		add	r3, r3, #1
 3992 1188 067087E0 		add	r7, r7, r6
 3993 118c 018085E1 		orr	r8, r5, r1
 247:../lcd.c      ****             for( wpy = wNexty - usWidth / 2;
 3994              		.loc 1 247 0
 3995 1190 060053E1 		cmp	r3, r6
 3996 1194 037007E2 		and	r7, r7, #3
 250:../lcd.c      ****                 (LCD_PutPixel(wNextx, wpy, ucColor));
 3997              		.loc 1 250 0
 3998 1198 00808EE5 		str	r8, [lr, #0]
 3999              	.LVL189:
 247:../lcd.c      ****             for( wpy = wNexty - usWidth / 2;
 4000              		.loc 1 247 0
 4001 119c 4400000A 		beq	.L146
 4002 11a0 000057E3 		cmp	r7, #0
 4003 11a4 2000000A 		beq	.L147
 4004 11a8 010057E3 		cmp	r7, #1
 4005 11ac 1300000A 		beq	.L207
 4006 11b0 020057E3 		cmp	r7, #2
 4007 11b4 0800000A 		beq	.L208
 250:../lcd.c      ****                 (LCD_PutPixel(wNextx, wpy, ucColor));
 4008              		.loc 1 250 0
 4009 11b8 02E182E0 		add	lr, r2, r2, asl #2
 4010 11bc 8E7184E0 		add	r7, r4, lr, asl #3
 4011 11c0 0771A0E1 		mov	r7, r7, asl #2
 4012 11c4 005097E5 		ldr	r5, [r7, #0]
 4013 11c8 052000E0 		and	r2, r0, r5
 4014 11cc 01E082E1 		orr	lr, r2, r1
 4015 11d0 00E087E5 		str	lr, [r7, #0]
 4016 11d4 0320A0E1 		mov	r2, r3
 4017 11d8 013083E2 		add	r3, r3, #1
 4018              	.L208:
 4019 11dc 025182E0 		add	r5, r2, r2, asl #2
 4020 11e0 852184E0 		add	r2, r4, r5, asl #3
 4021 11e4 0221A0E1 		mov	r2, r2, asl #2
 4022 11e8 00E092E5 		ldr	lr, [r2, #0]
 4023 11ec 0E7000E0 		and	r7, r0, lr
 4024 11f0 015087E1 		orr	r5, r7, r1
 4025 11f4 005082E5 		str	r5, [r2, #0]
 4026 11f8 0320A0E1 		mov	r2, r3
 4027 11fc 013083E2 		add	r3, r3, #1
 4028              	.L207:
 4029 1200 02E182E0 		add	lr, r2, r2, asl #2
 4030 1204 8E2184E0 		add	r2, r4, lr, asl #3
 4031 1208 02E1A0E1 		mov	lr, r2, asl #2
 4032 120c 00509EE5 		ldr	r5, [lr, #0]
 4033 1210 0320A0E1 		mov	r2, r3
 4034 1214 057000E0 		and	r7, r0, r5
 4035 1218 013083E2 		add	r3, r3, #1
 4036 121c 017087E1 		orr	r7, r7, r1
 247:../lcd.c      ****             for( wpy = wNexty - usWidth / 2;
 4037              		.loc 1 247 0
 4038 1220 060053E1 		cmp	r3, r6
 250:../lcd.c      ****                 (LCD_PutPixel(wNextx, wpy, ucColor));
 4039              		.loc 1 250 0
 4040 1224 00708EE5 		str	r7, [lr, #0]
 247:../lcd.c      ****             for( wpy = wNexty - usWidth / 2;
 4041              		.loc 1 247 0
 4042 1228 2100000A 		beq	.L146
 4043              	.L147:
 250:../lcd.c      ****                 (LCD_PutPixel(wNextx, wpy, ucColor));
 4044              		.loc 1 250 0
 4045 122c 028182E0 		add	r8, r2, r2, asl #2
 4046 1230 885184E0 		add	r5, r4, r8, asl #3
 4047 1234 0581A0E1 		mov	r8, r5, asl #2
 4048 1238 002098E5 		ldr	r2, [r8, #0]
 4049 123c 02E000E0 		and	lr, r0, r2
 4050 1240 035183E0 		add	r5, r3, r3, asl #2
 4051 1244 01708EE1 		orr	r7, lr, r1
 4052 1248 007088E5 		str	r7, [r8, #0]
 4053 124c 852184E0 		add	r2, r4, r5, asl #3
 4054 1250 0251A0E1 		mov	r5, r2, asl #2
 4055 1254 00E095E5 		ldr	lr, [r5, #0]
 4056 1258 012083E2 		add	r2, r3, #1
 4057 125c 0E7000E0 		and	r7, r0, lr
 4058 1260 018087E1 		orr	r8, r7, r1
 4059 1264 02E182E0 		add	lr, r2, r2, asl #2
 4060 1268 008085E5 		str	r8, [r5, #0]
 4061 126c 8E7184E0 		add	r7, r4, lr, asl #3
 4062 1270 0771A0E1 		mov	r7, r7, asl #2
 4063 1274 005097E5 		ldr	r5, [r7, #0]
 4064 1278 01E082E2 		add	lr, r2, #1
 4065 127c 058000E0 		and	r8, r0, r5
 4066 1280 018088E1 		orr	r8, r8, r1
 4067 1284 0E518EE0 		add	r5, lr, lr, asl #2
 4068 1288 008087E5 		str	r8, [r7, #0]
 4069 128c 852184E0 		add	r2, r4, r5, asl #3
 4070 1290 0251A0E1 		mov	r5, r2, asl #2
 4071 1294 00E095E5 		ldr	lr, [r5, #0]
 4072 1298 032083E2 		add	r2, r3, #3
 4073 129c 0E7000E0 		and	r7, r0, lr
 4074 12a0 043083E2 		add	r3, r3, #4
 4075 12a4 017087E1 		orr	r7, r7, r1
 247:../lcd.c      ****             for( wpy = wNexty - usWidth / 2;
 4076              		.loc 1 247 0
 4077 12a8 060053E1 		cmp	r3, r6
 250:../lcd.c      ****                 (LCD_PutPixel(wNextx, wpy, ucColor));
 4078              		.loc 1 250 0
 4079 12ac 007085E5 		str	r7, [r5, #0]
 247:../lcd.c      ****             for( wpy = wNexty - usWidth / 2;
 4080              		.loc 1 247 0
 4081 12b0 DDFFFF1A 		bne	.L147
 4082              	.L146:
 233:../lcd.c      ****              wCurx <= wNextx; wCurx++, wNextx--, decision += usDy )
 4083              		.loc 1 233 0
 4084 12b4 34501BE5 		ldr	r5, [fp, #-52]
 4085 12b8 38601BE5 		ldr	r6, [fp, #-56]
 4086 12bc 012085E2 		add	r2, r5, #1
 4087 12c0 013046E2 		sub	r3, r6, #1
 4088 12c4 02E8A0E1 		mov	lr, r2, asl #16
 4089              	.LVL190:
 4090 12c8 0318A0E1 		mov	r1, r3, asl #16
 4091              	.LVL191:
 231:../lcd.c      ****         for( wCurx = usX0, wCury = usY0, wNextx = usX1,
 4092              		.loc 1 231 0
 4093 12cc 2E08A0E1 		mov	r0, lr, lsr #16
 4094 12d0 2138A0E1 		mov	r3, r1, lsr #16
 4095 12d4 01005EE1 		cmp	lr, r1
 4096 12d8 34000BE5 		str	r0, [fp, #-52]
 4097 12dc 38300BE5 		str	r3, [fp, #-56]
 4098 12e0 110100CA 		bgt	.L128
 233:../lcd.c      ****              wCurx <= wNextx; wCurx++, wNextx--, decision += usDy )
 4099              		.loc 1 233 0
 4100 12e4 44701BE5 		ldr	r7, [fp, #-68]
 4101 12e8 096087E0 		add	r6, r7, r9
 4102 12ec 0698A0E1 		mov	r9, r6, asl #16
 4103 12f0 2998A0E1 		mov	r9, r9, lsr #16
 4104 12f4 FAFEFFEA 		b	.L148
 4105              	.LVL192:
 4106              	.L142:
 256:../lcd.c      ****         for( wCurx = usX0, wCury = usY0, wNextx = usX1,
 4107              		.loc 1 256 0
 4108 12f8 060054E1 		cmp	r4, r6
 4109 12fc 0A0100CA 		bgt	.L128
 257:../lcd.c      ****              wNexty = usY1, decision = (usDy >> 1);
 4110              		.loc 1 257 0
 4111 1300 CA38A0E1 		mov	r3, sl, asr #17
 199:../lcd.c      **** void Lcd_Draw_Line(INT16 usX0, INT16 usY0, INT16 usX1, INT16 usY1, INT8U ucColor, INT16U usWidth)
 4112              		.loc 1 199 0
 4113 1304 061186E0 		add	r1, r6, r6, asl #2
 4114 1308 042184E0 		add	r2, r4, r4, asl #2
 257:../lcd.c      ****              wNexty = usY1, decision = (usDy >> 1);
 4115              		.loc 1 257 0
 4116 130c 03A8A0E1 		mov	sl, r3, asl #16
 199:../lcd.c      **** void Lcd_Draw_Line(INT16 usX0, INT16 usY0, INT16 usX1, INT16 usY1, INT8U ucColor, INT16U usWidth)
 4117              		.loc 1 199 0
 4118 1310 81E1A0E1 		mov	lr, r1, asl #3
 4119 1314 8221A0E1 		mov	r2, r2, asl #3
 257:../lcd.c      ****              wNexty = usY1, decision = (usDy >> 1);
 4120              		.loc 1 257 0
 4121 1318 2AA8A0E1 		mov	sl, sl, lsr #16
 4122 131c 2938A0E1 		mov	r3, r9, lsr #16
 199:../lcd.c      **** void Lcd_Draw_Line(INT16 usX0, INT16 usY0, INT16 usX1, INT16 usY1, INT8U ucColor, INT16U usWidth)
 4123              		.loc 1 199 0
 4124 1320 C3178EE2 		add	r1, lr, #51118080
 257:../lcd.c      ****              wNexty = usY1, decision = (usDy >> 1);
 4125              		.loc 1 257 0
 4126 1324 30A00BE5 		str	sl, [fp, #-48]
 199:../lcd.c      **** void Lcd_Draw_Line(INT16 usX0, INT16 usY0, INT16 usX1, INT16 usY1, INT8U ucColor, INT16U usWidth)
 4127              		.loc 1 199 0
 4128 1328 C3E782E2 		add	lr, r2, #51118080
 257:../lcd.c      ****              wNexty = usY1, decision = (usDy >> 1);
 4129              		.loc 1 257 0
 4130 132c 4C300BE5 		str	r3, [fp, #-76]
 199:../lcd.c      **** void Lcd_Draw_Line(INT16 usX0, INT16 usY0, INT16 usX1, INT16 usY1, INT8U ucColor, INT16U usWidth)
 4131              		.loc 1 199 0
 4132 1330 40600BE5 		str	r6, [fp, #-64]
 4133 1334 38800BE5 		str	r8, [fp, #-56]
 4134 1338 34500BE5 		str	r5, [fp, #-52]
 263:../lcd.c      ****                 wCurx += x_sign;
 4135              		.loc 1 263 0
 4136 133c 48000BE5 		str	r0, [fp, #-72]
 257:../lcd.c      ****              wNexty = usY1, decision = (usDy >> 1);
 4137              		.loc 1 257 0
 4138 1340 AC90A0E1 		mov	r9, ip, lsr #1
 199:../lcd.c      **** void Lcd_Draw_Line(INT16 usX0, INT16 usY0, INT16 usX1, INT16 usY1, INT8U ucColor, INT16U usWidth)
 4139              		.loc 1 199 0
 4140 1344 3C400BE5 		str	r4, [fp, #-60]
 4141 1348 961D81E2 		add	r1, r1, #9600
 4142 134c 962D8EE2 		add	r2, lr, #9600
 269:../lcd.c      ****                 (LCD_PutPixel(wpx, wCury, ucColor));
 4143              		.loc 1 269 0
 4144 1350 0FC2A0E3 		mov	ip, #-268435456
 4145 1354 0A40A0E1 		mov	r4, sl
 4146              	.LVL193:
 4147              	.L154:
 260:../lcd.c      ****             if( decision >= usDy )
 4148              		.loc 1 260 0
 4149 1358 44501BE5 		ldr	r5, [fp, #-68]
 4150 135c 0408A0E1 		mov	r0, r4, asl #16
 4151 1360 400855E1 		cmp	r5, r0, asr #16
 4152 1364 0F0000CA 		bgt	.L149
 263:../lcd.c      ****                 wCurx += x_sign;
 4153              		.loc 1 263 0
 4154 1368 48A01BE5 		ldr	sl, [fp, #-72]
 4155 136c 34301BE5 		ldr	r3, [fp, #-52]
 264:../lcd.c      ****                 wNextx -= x_sign;
 4156              		.loc 1 264 0
 4157 1370 38E01BE5 		ldr	lr, [fp, #-56]
 262:../lcd.c      ****                 decision -= usDy;
 4158              		.loc 1 262 0
 4159 1374 50501BE5 		ldr	r5, [fp, #-80]
 263:../lcd.c      ****                 wCurx += x_sign;
 4160              		.loc 1 263 0
 4161 1378 03008AE0 		add	r0, sl, r3
 264:../lcd.c      ****                 wNextx -= x_sign;
 4162              		.loc 1 264 0
 4163 137c 0E606AE0 		rsb	r6, sl, lr
 262:../lcd.c      ****                 decision -= usDy;
 4164              		.loc 1 262 0
 4165 1380 044065E0 		rsb	r4, r5, r4
 4166 1384 0458A0E1 		mov	r5, r4, asl #16
 263:../lcd.c      ****                 wCurx += x_sign;
 4167              		.loc 1 263 0
 4168 1388 00E8A0E1 		mov	lr, r0, asl #16
 264:../lcd.c      ****                 wNextx -= x_sign;
 4169              		.loc 1 264 0
 4170 138c 0668A0E1 		mov	r6, r6, asl #16
 262:../lcd.c      ****                 decision -= usDy;
 4171              		.loc 1 262 0
 4172 1390 2538A0E1 		mov	r3, r5, lsr #16
 263:../lcd.c      ****                 wCurx += x_sign;
 4173              		.loc 1 263 0
 4174 1394 2EA8A0E1 		mov	sl, lr, lsr #16
 264:../lcd.c      ****                 wNextx -= x_sign;
 4175              		.loc 1 264 0
 4176 1398 2648A0E1 		mov	r4, r6, lsr #16
 262:../lcd.c      ****                 decision -= usDy;
 4177              		.loc 1 262 0
 4178 139c 30300BE5 		str	r3, [fp, #-48]
 4179              	.LVL194:
 263:../lcd.c      ****                 wCurx += x_sign;
 4180              		.loc 1 263 0
 4181 13a0 34A00BE5 		str	sl, [fp, #-52]
 4182              	.LVL195:
 264:../lcd.c      ****                 wNextx -= x_sign;
 4183              		.loc 1 264 0
 4184 13a4 38400BE5 		str	r4, [fp, #-56]
 4185              	.LVL196:
 4186              	.L149:
 266:../lcd.c      ****             for( wpx = wCurx - usWidth / 2;
 4187              		.loc 1 266 0
 4188 13a8 34401BE5 		ldr	r4, [fp, #-52]
 4189 13ac 04A069E0 		rsb	sl, r9, r4
 4190 13b0 0A08A0E1 		mov	r0, sl, asl #16
 4191 13b4 2008A0E1 		mov	r0, r0, lsr #16
 4192              	.LVL197:
 267:../lcd.c      ****                  wpx <= wCurx + usWidth / 2; wpx++ )
 4193              		.loc 1 267 0
 4194 13b8 0468A0E1 		mov	r6, r4, asl #16
 4195 13bc 00A8A0E1 		mov	sl, r0, asl #16
 4196 13c0 465889E0 		add	r5, r9, r6, asr #16
 4197 13c4 4A38A0E1 		mov	r3, sl, asr #16
 266:../lcd.c      ****             for( wpx = wCurx - usWidth / 2;
 4198              		.loc 1 266 0
 4199 13c8 050053E1 		cmp	r3, r5
 4200 13cc 3C0000CA 		bgt	.L150
 199:../lcd.c      **** void Lcd_Draw_Line(INT16 usX0, INT16 usY0, INT16 usX1, INT16 usY1, INT8U ucColor, INT16U usWidth)
 4201              		.loc 1 199 0
 4202 13d0 018085E2 		add	r8, r5, #1
 4203 13d4 085063E0 		rsb	r5, r3, r8
 4204 13d8 010015E3 		tst	r5, #1
 4205 13dc 0060A0E3 		mov	r6, #0
 4206 13e0 B500000A 		beq	.L211
 4207 13e4 0AE0A0E1 		mov	lr, sl
 4208 13e8 01A0A0E1 		mov	sl, r1
 4209 13ec 0E10A0E1 		mov	r1, lr
 4210 13f0 180000EA 		b	.L151
 4211              	.LVL198:
 4212              	.L226:
 269:../lcd.c      ****                 (LCD_PutPixel(wpx, wCury, ucColor));
 4213              		.loc 1 269 0
 4214 13f4 028911E2 		ands	r8, r1, #32768
 4215 13f8 0080E013 		mvnne	r8, #0
 4216 13fc 000053E3 		cmp	r3, #0
 4217 1400 A8EEA0E1 		mov	lr, r8, lsr #29
 4218 1404 0340A0A1 		movge	r4, r3
 4219 1408 0040A0B1 		movlt	r4, r0
 4220 140c C44182E0 		add	r4, r2, r4, asr #3
 4221 1410 0E0083E0 		add	r0, r3, lr
 4222 1414 073000E2 		and	r3, r0, #7
 4223 1418 0441A0E1 		mov	r4, r4, asl #2
 4224 141c 03E06EE0 		rsb	lr, lr, r3
 4225 1420 000094E5 		ldr	r0, [r4, #0]
 4226 1424 0E81A0E1 		mov	r8, lr, asl #2
 4227 1428 3C08C0E1 		bic	r0, r0, ip, lsr r8
 4228 142c 07306EE2 		rsb	r3, lr, #7
 4229 1430 03E1A0E1 		mov	lr, r3, asl #2
 4230 1434 178E80E1 		orr	r8, r0, r7, asl lr
 267:../lcd.c      ****                  wpx <= wCurx + usWidth / 2; wpx++ )
 4231              		.loc 1 267 0
 4232 1438 011081E2 		add	r1, r1, #1
 4233 143c 0108A0E1 		mov	r0, r1, asl #16
 4234 1440 2008A0E1 		mov	r0, r0, lsr #16
 4235              	.LVL199:
 4236 1444 0038A0E1 		mov	r3, r0, asl #16
 269:../lcd.c      ****                 (LCD_PutPixel(wpx, wCury, ucColor));
 4237              		.loc 1 269 0
 4238 1448 008084E5 		str	r8, [r4, #0]
 4239 144c 0310A0E1 		mov	r1, r3
 267:../lcd.c      ****                  wpx <= wCurx + usWidth / 2; wpx++ )
 4240              		.loc 1 267 0
 4241 1450 016086E2 		add	r6, r6, #1
 4242 1454 4338A0E1 		mov	r3, r3, asr #16
 4243              	.LVL200:
 4244              	.L151:
 269:../lcd.c      ****                 (LCD_PutPixel(wpx, wCury, ucColor));
 4245              		.loc 1 269 0
 4246 1458 000053E3 		cmp	r3, #0
 4247 145c C1EFA0E1 		mov	lr, r1, asr #31
 4248 1460 078083E2 		add	r8, r3, #7
 4249 1464 AE1EA0E1 		mov	r1, lr, lsr #29
 4250 1468 0380A0A1 		movge	r8, r3
 4251 146c C84182E0 		add	r4, r2, r8, asr #3
 4252 1470 013083E0 		add	r3, r3, r1
 4253 1474 0441A0E1 		mov	r4, r4, asl #2
 4254 1478 07E003E2 		and	lr, r3, #7
 4255 147c 008094E5 		ldr	r8, [r4, #0]
 4256 1480 0E3061E0 		rsb	r3, r1, lr
 4257 1484 0311A0E1 		mov	r1, r3, asl #2
 4258 1488 3CE1C8E1 		bic	lr, r8, ip, lsr r1
 4259 148c 073063E2 		rsb	r3, r3, #7
 4260 1490 0381A0E1 		mov	r8, r3, asl #2
 4261 1494 17888EE1 		orr	r8, lr, r7, asl r8
 267:../lcd.c      ****                  wpx <= wCurx + usWidth / 2; wpx++ )
 4262              		.loc 1 267 0
 4263 1498 010080E2 		add	r0, r0, #1
 4264 149c 0018A0E1 		mov	r1, r0, asl #16
 4265 14a0 2118A0E1 		mov	r1, r1, lsr #16
 4266 14a4 016086E2 		add	r6, r6, #1
 4267 14a8 0138A0E1 		mov	r3, r1, asl #16
 4268 14ac 4338A0E1 		mov	r3, r3, asr #16
 266:../lcd.c      ****             for( wpx = wCurx - usWidth / 2;
 4269              		.loc 1 266 0
 4270 14b0 050056E1 		cmp	r6, r5
 269:../lcd.c      ****                 (LCD_PutPixel(wpx, wCury, ucColor));
 4271              		.loc 1 269 0
 4272 14b4 070083E2 		add	r0, r3, #7
 4273 14b8 008084E5 		str	r8, [r4, #0]
 266:../lcd.c      ****             for( wpx = wCurx - usWidth / 2;
 4274              		.loc 1 266 0
 4275 14bc CCFFFF1A 		bne	.L226
 4276 14c0 0A10A0E1 		mov	r1, sl
 4277              	.L150:
 272:../lcd.c      ****             for( wpx = wNextx - usWidth / 2;
 4278              		.loc 1 272 0
 4279 14c4 38401BE5 		ldr	r4, [fp, #-56]
 4280 14c8 04A069E0 		rsb	sl, r9, r4
 4281 14cc 0A68A0E1 		mov	r6, sl, asl #16
 4282 14d0 2608A0E1 		mov	r0, r6, lsr #16
 4283              	.LVL201:
 273:../lcd.c      ****                  wpx <= wNextx + usWidth / 2; wpx++ )
 4284              		.loc 1 273 0
 4285 14d4 0458A0E1 		mov	r5, r4, asl #16
 4286 14d8 00A8A0E1 		mov	sl, r0, asl #16
 4287 14dc 455889E0 		add	r5, r9, r5, asr #16
 4288 14e0 4A38A0E1 		mov	r3, sl, asr #16
 272:../lcd.c      ****             for( wpx = wNextx - usWidth / 2;
 4289              		.loc 1 272 0
 4290 14e4 050053E1 		cmp	r3, r5
 4291 14e8 3C0000CA 		bgt	.L152
 199:../lcd.c      **** void Lcd_Draw_Line(INT16 usX0, INT16 usY0, INT16 usX1, INT16 usY1, INT8U ucColor, INT16U usWidth)
 4292              		.loc 1 199 0
 4293 14ec 01E085E2 		add	lr, r5, #1
 4294 14f0 0E5063E0 		rsb	r5, r3, lr
 4295 14f4 010015E3 		tst	r5, #1
 4296 14f8 0060A0E3 		mov	r6, #0
 4297 14fc 5100000A 		beq	.L212
 4298 1500 0A40A0E1 		mov	r4, sl
 4299 1504 02A0A0E1 		mov	sl, r2
 4300 1508 0420A0E1 		mov	r2, r4
 4301 150c 180000EA 		b	.L153
 4302              	.LVL202:
 4303              	.L227:
 275:../lcd.c      ****                 (LCD_PutPixel(wpx, wNexty, ucColor));
 4304              		.loc 1 275 0
 4305 1510 028912E2 		ands	r8, r2, #32768
 4306 1514 0080E013 		mvnne	r8, #0
 4307 1518 000053E3 		cmp	r3, #0
 4308 151c A8EEA0E1 		mov	lr, r8, lsr #29
 4309 1520 0340A0A1 		movge	r4, r3
 4310 1524 0040A0B1 		movlt	r4, r0
 4311 1528 C44181E0 		add	r4, r1, r4, asr #3
 4312 152c 0E0083E0 		add	r0, r3, lr
 4313 1530 073000E2 		and	r3, r0, #7
 4314 1534 0441A0E1 		mov	r4, r4, asl #2
 4315 1538 03E06EE0 		rsb	lr, lr, r3
 4316 153c 000094E5 		ldr	r0, [r4, #0]
 4317 1540 0E81A0E1 		mov	r8, lr, asl #2
 4318 1544 3C08C0E1 		bic	r0, r0, ip, lsr r8
 4319 1548 07306EE2 		rsb	r3, lr, #7
 4320 154c 03E1A0E1 		mov	lr, r3, asl #2
 4321 1550 178E80E1 		orr	r8, r0, r7, asl lr
 273:../lcd.c      ****                  wpx <= wNextx + usWidth / 2; wpx++ )
 4322              		.loc 1 273 0
 4323 1554 012082E2 		add	r2, r2, #1
 4324 1558 0208A0E1 		mov	r0, r2, asl #16
 4325 155c 2008A0E1 		mov	r0, r0, lsr #16
 4326              	.LVL203:
 4327 1560 0038A0E1 		mov	r3, r0, asl #16
 275:../lcd.c      ****                 (LCD_PutPixel(wpx, wNexty, ucColor));
 4328              		.loc 1 275 0
 4329 1564 008084E5 		str	r8, [r4, #0]
 4330 1568 0320A0E1 		mov	r2, r3
 273:../lcd.c      ****                  wpx <= wNextx + usWidth / 2; wpx++ )
 4331              		.loc 1 273 0
 4332 156c 016086E2 		add	r6, r6, #1
 4333 1570 4338A0E1 		mov	r3, r3, asr #16
 4334              	.LVL204:
 4335              	.L153:
 275:../lcd.c      ****                 (LCD_PutPixel(wpx, wNexty, ucColor));
 4336              		.loc 1 275 0
 4337 1574 000053E3 		cmp	r3, #0
 4338 1578 C2EFA0E1 		mov	lr, r2, asr #31
 4339 157c 078083E2 		add	r8, r3, #7
 4340 1580 AE2EA0E1 		mov	r2, lr, lsr #29
 4341 1584 0380A0A1 		movge	r8, r3
 4342 1588 C84181E0 		add	r4, r1, r8, asr #3
 4343 158c 023083E0 		add	r3, r3, r2
 4344 1590 0441A0E1 		mov	r4, r4, asl #2
 4345 1594 07E003E2 		and	lr, r3, #7
 4346 1598 008094E5 		ldr	r8, [r4, #0]
 4347 159c 0E3062E0 		rsb	r3, r2, lr
 4348 15a0 0321A0E1 		mov	r2, r3, asl #2
 4349 15a4 3CE2C8E1 		bic	lr, r8, ip, lsr r2
 4350 15a8 073063E2 		rsb	r3, r3, #7
 4351 15ac 0381A0E1 		mov	r8, r3, asl #2
 4352 15b0 17888EE1 		orr	r8, lr, r7, asl r8
 273:../lcd.c      ****                  wpx <= wNextx + usWidth / 2; wpx++ )
 4353              		.loc 1 273 0
 4354 15b4 010080E2 		add	r0, r0, #1
 4355 15b8 0028A0E1 		mov	r2, r0, asl #16
 4356 15bc 2228A0E1 		mov	r2, r2, lsr #16
 4357 15c0 016086E2 		add	r6, r6, #1
 4358 15c4 0238A0E1 		mov	r3, r2, asl #16
 4359 15c8 4338A0E1 		mov	r3, r3, asr #16
 272:../lcd.c      ****             for( wpx = wNextx - usWidth / 2;
 4360              		.loc 1 272 0
 4361 15cc 050056E1 		cmp	r6, r5
 275:../lcd.c      ****                 (LCD_PutPixel(wpx, wNexty, ucColor));
 4362              		.loc 1 275 0
 4363 15d0 070083E2 		add	r0, r3, #7
 4364 15d4 008084E5 		str	r8, [r4, #0]
 272:../lcd.c      ****             for( wpx = wNextx - usWidth / 2;
 4365              		.loc 1 272 0
 4366 15d8 CCFFFF1A 		bne	.L227
 4367 15dc 0A20A0E1 		mov	r2, sl
 4368              	.L152:
 258:../lcd.c      ****              wCury <= wNexty; wCury++, wNexty--, decision += usDx )
 4369              		.loc 1 258 0
 4370 15e0 3C501BE5 		ldr	r5, [fp, #-60]
 4371 15e4 40601BE5 		ldr	r6, [fp, #-64]
 4372 15e8 01E085E2 		add	lr, r5, #1
 4373 15ec 013046E2 		sub	r3, r6, #1
 4374 15f0 0E08A0E1 		mov	r0, lr, asl #16
 4375              	.LVL205:
 4376 15f4 03E8A0E1 		mov	lr, r3, asl #16
 4377              	.LVL206:
 256:../lcd.c      ****         for( wCurx = usX0, wCury = usY0, wNextx = usX1,
 4378              		.loc 1 256 0
 4379 15f8 0E0050E1 		cmp	r0, lr
 4380 15fc 2E38A0E1 		mov	r3, lr, lsr #16
 4381 1600 2008A0E1 		mov	r0, r0, lsr #16
 4382              	.LVL207:
 258:../lcd.c      ****              wCury <= wNexty; wCury++, wNexty--, decision += usDx )
 4383              		.loc 1 258 0
 4384 1604 281041E2 		sub	r1, r1, #40
 4385 1608 282082E2 		add	r2, r2, #40
 256:../lcd.c      ****         for( wCurx = usX0, wCury = usY0, wNextx = usX1,
 4386              		.loc 1 256 0
 4387 160c 3C000BE5 		str	r0, [fp, #-60]
 4388 1610 40300BE5 		str	r3, [fp, #-64]
 4389 1614 440000CA 		bgt	.L128
 258:../lcd.c      ****              wCury <= wNexty; wCury++, wNexty--, decision += usDx )
 4390              		.loc 1 258 0
 4391 1618 30401BE5 		ldr	r4, [fp, #-48]
 4392 161c 4C001BE5 		ldr	r0, [fp, #-76]
 4393 1620 04A080E0 		add	sl, r0, r4
 4394 1624 0A68A0E1 		mov	r6, sl, asl #16
 4395 1628 2658A0E1 		mov	r5, r6, lsr #16
 4396 162c 30500BE5 		str	r5, [fp, #-48]
 4397 1630 0540A0E1 		mov	r4, r5
 4398 1634 47FFFFEA 		b	.L154
 4399              	.LVL208:
 4400              	.L225:
 220:../lcd.c      **** 	if( ((usDx >= usDy && (usX0 > usX1)) ||
 4401              		.loc 1 220 0 discriminator 1
 4402 1638 000051E1 		cmp	r1, r0
 4403 163c 060054C1 		cmpgt	r4, r6
 4404 1640 09FEFFDA 		ble	.L141
 4405 1644 FEFDFFEA 		b	.L140
 4406              	.LVL209:
 4407              	.L212:
 275:../lcd.c      ****                 (LCD_PutPixel(wpx, wNexty, ucColor));
 4408              		.loc 1 275 0
 4409 1648 000053E3 		cmp	r3, #0
 4410 164c 076083E2 		add	r6, r3, #7
 4411 1650 CA8FA0E1 		mov	r8, sl, asr #31
 4412 1654 0360A0A1 		movge	r6, r3
 4413 1658 A8EEA0E1 		mov	lr, r8, lsr #29
 4414 165c 86A6A0E1 		mov	sl, r6, asl #13
 4415 1660 0E3083E0 		add	r3, r3, lr
 4416 1664 4A4881E0 		add	r4, r1, sl, asr #16
 4417 1668 078003E2 		and	r8, r3, #7
 4418 166c 0441A0E1 		mov	r4, r4, asl #2
 4419 1670 08E06EE0 		rsb	lr, lr, r8
 4420 1674 006094E5 		ldr	r6, [r4, #0]
 4421 1678 0EA1A0E1 		mov	sl, lr, asl #2
 4422 167c 3C8AC6E1 		bic	r8, r6, ip, lsr sl
 4423 1680 07306EE2 		rsb	r3, lr, #7
 4424 1684 03A1A0E1 		mov	sl, r3, asl #2
 4425 1688 176A88E1 		orr	r6, r8, r7, asl sl
 273:../lcd.c      ****                  wpx <= wNextx + usWidth / 2; wpx++ )
 4426              		.loc 1 273 0
 4427 168c 01E080E2 		add	lr, r0, #1
 4428 1690 0E08A0E1 		mov	r0, lr, asl #16
 4429              	.LVL210:
 4430 1694 2008A0E1 		mov	r0, r0, lsr #16
 4431              	.LVL211:
 4432 1698 0038A0E1 		mov	r3, r0, asl #16
 4433 169c 03A0A0E1 		mov	sl, r3
 4434 16a0 0A80A0E1 		mov	r8, sl
 275:../lcd.c      ****                 (LCD_PutPixel(wpx, wNexty, ucColor));
 4435              		.loc 1 275 0
 4436 16a4 006084E5 		str	r6, [r4, #0]
 4437 16a8 02A0A0E1 		mov	sl, r2
 273:../lcd.c      ****                  wpx <= wNextx + usWidth / 2; wpx++ )
 4438              		.loc 1 273 0
 4439 16ac 0160A0E3 		mov	r6, #1
 4440 16b0 4338A0E1 		mov	r3, r3, asr #16
 4441 16b4 0820A0E1 		mov	r2, r8
 4442 16b8 ADFFFFEA 		b	.L153
 4443              	.L211:
 269:../lcd.c      ****                 (LCD_PutPixel(wpx, wCury, ucColor));
 4444              		.loc 1 269 0
 4445 16bc 000053E3 		cmp	r3, #0
 4446 16c0 076083E2 		add	r6, r3, #7
 4447 16c4 CA8FA0E1 		mov	r8, sl, asr #31
 4448 16c8 0360A0A1 		movge	r6, r3
 4449 16cc A8AEA0E1 		mov	sl, r8, lsr #29
 4450 16d0 8646A0E1 		mov	r4, r6, asl #13
 4451 16d4 0A3083E0 		add	r3, r3, sl
 4452 16d8 44E882E0 		add	lr, r2, r4, asr #16
 4453 16dc 078003E2 		and	r8, r3, #7
 4454 16e0 0EE1A0E1 		mov	lr, lr, asl #2
 4455 16e4 08A06AE0 		rsb	sl, sl, r8
 4456 16e8 00609EE5 		ldr	r6, [lr, #0]
 4457 16ec 0A41A0E1 		mov	r4, sl, asl #2
 4458 16f0 3C84C6E1 		bic	r8, r6, ip, lsr r4
 4459 16f4 07306AE2 		rsb	r3, sl, #7
 4460 16f8 0341A0E1 		mov	r4, r3, asl #2
 4461 16fc 17A488E1 		orr	sl, r8, r7, asl r4
 267:../lcd.c      ****                  wpx <= wCurx + usWidth / 2; wpx++ )
 4462              		.loc 1 267 0
 4463 1700 016080E2 		add	r6, r0, #1
 4464 1704 0608A0E1 		mov	r0, r6, asl #16
 4465              	.LVL212:
 4466 1708 2008A0E1 		mov	r0, r0, lsr #16
 4467              	.LVL213:
 4468 170c 0038A0E1 		mov	r3, r0, asl #16
 4469 1710 0340A0E1 		mov	r4, r3
 269:../lcd.c      ****                 (LCD_PutPixel(wpx, wCury, ucColor));
 4470              		.loc 1 269 0
 4471 1714 00A08EE5 		str	sl, [lr, #0]
 267:../lcd.c      ****                  wpx <= wCurx + usWidth / 2; wpx++ )
 4472              		.loc 1 267 0
 4473 1718 0160A0E3 		mov	r6, #1
 4474 171c 01A0A0E1 		mov	sl, r1
 4475 1720 4338A0E1 		mov	r3, r3, asr #16
 4476 1724 0410A0E1 		mov	r1, r4
 4477 1728 4AFFFFEA 		b	.L151
 4478              	.LVL214:
 4479              	.L128:
 279:../lcd.c      **** }
 4480              		.loc 1 279 0
 4481 172c 28D04BE2 		sub	sp, fp, #40
 4482 1730 F06F9DE8 		ldmfd	sp, {r4, r5, r6, r7, r8, r9, sl, fp, sp, lr}
 4483 1734 1EFF2FE1 		bx	lr
 4484              	.LVL215:
 4485              	.L223:
 4486              	.LBB32:
 4487              	.LBB33:
 296:../lcd.c      ****     if( usX1 < usX0 )
 4488              		.loc 1 296 0
 4489 1738 020050E1 		cmp	r0, r2
 4490 173c 080000DA 		ble	.L130
 298:../lcd.c      ****         GUISWAP (usX1, usX0);
 4491              		.loc 1 298 0
 4492 1740 008022E0 		eor	r8, r2, r0
 4493 1744 0828A0E1 		mov	r2, r8, asl #16
 4494              	.LVL216:
 4495 1748 2218A0E1 		mov	r1, r2, lsr #16
 4496              	.LVL217:
 4497 174c 010020E0 		eor	r0, r0, r1
 4498              	.LVL218:
 4499 1750 0058A0E1 		mov	r5, r0, asl #16
 4500              	.LVL219:
 4501 1754 4558A0E1 		mov	r5, r5, asr #16
 4502              	.LVL220:
 4503 1758 013025E0 		eor	r3, r5, r1
 4504              	.LVL221:
 4505 175c 0388A0E1 		mov	r8, r3, asl #16
 4506 1760 4888A0E1 		mov	r8, r8, asr #16
 4507              	.LVL222:
 4508              	.L130:
 301:../lcd.c      ****     while( (usWidth--) > 0 )
 4509              		.loc 1 301 0
 4510 1764 00005CE3 		cmp	ip, #0
 4511 1768 EFFFFF0A 		beq	.L128
 4512 176c 0888A0E1 		mov	r8, r8, asl #16
 4513              	.LVL223:
 4514 1770 011888E2 		add	r1, r8, #65536
 4515 1774 212865E0 		rsb	r2, r5, r1, lsr #16
 4516 1778 0238A0E1 		mov	r3, r2, asl #16
 4517 177c 2388A0E1 		mov	r8, r3, lsr #16
 4518 1780 01A048E2 		sub	sl, r8, #1
 199:../lcd.c      **** void Lcd_Draw_Line(INT16 usX0, INT16 usY0, INT16 usX1, INT16 usY1, INT8U ucColor, INT16U usWidth)
 4519              		.loc 1 199 0
 4520 1784 0A08A0E1 		mov	r0, sl, asl #16
 4521 1788 4098A0E1 		mov	r9, r0, asr #16
 4522 178c 30900BE5 		str	r9, [fp, #-48]
 4523 1790 044184E0 		add	r4, r4, r4, asl #2
 4524              	.LVL224:
 4525 1794 30101BE5 		ldr	r1, [fp, #-48]
 301:../lcd.c      ****     while( (usWidth--) > 0 )
 4526              		.loc 1 301 0
 4527 1798 01C04CE2 		sub	ip, ip, #1
 4528              	.LVL225:
 199:../lcd.c      **** void Lcd_Draw_Line(INT16 usX0, INT16 usY0, INT16 usX1, INT16 usY1, INT8U ucColor, INT16U usWidth)
 4529              		.loc 1 199 0
 4530 179c 8461A0E1 		mov	r6, r4, asl #3
 4531 17a0 013048E2 		sub	r3, r8, #1
 4532 17a4 012045E2 		sub	r2, r5, #1
 301:../lcd.c      ****     while( (usWidth--) > 0 )
 4533              		.loc 1 301 0
 4534 17a8 0CA8A0E1 		mov	sl, ip, asl #16
 199:../lcd.c      **** void Lcd_Draw_Line(INT16 usX0, INT16 usY0, INT16 usX1, INT16 usY1, INT8U ucColor, INT16U usWidth)
 4535              		.loc 1 199 0
 4536 17ac C30786E2 		add	r0, r6, #51118080
 4537 17b0 0898A0E1 		mov	r9, r8, asl #16
 4538 17b4 016082E0 		add	r6, r2, r1
 4539 17b8 03C8A0E1 		mov	ip, r3, asl #16
 4540              	.LVL226:
 4541 17bc 2C8846E0 		sub	r8, r6, ip, lsr #16
 301:../lcd.c      ****     while( (usWidth--) > 0 )
 4542              		.loc 1 301 0
 4543 17c0 2AA8A0E1 		mov	sl, sl, lsr #16
 199:../lcd.c      **** void Lcd_Draw_Line(INT16 usX0, INT16 usY0, INT16 usX1, INT16 usY1, INT8U ucColor, INT16U usWidth)
 4544              		.loc 1 199 0
 4545 17c4 960D80E2 		add	r0, r0, #9600
 4546 17c8 4998A0E1 		mov	r9, r9, asr #16
 4547 17cc 0560A0E1 		mov	r6, r5
 4548              	.LVL227:
 4549              	.L134:
 304:../lcd.c      ****         while( (usLen--) > 0 )
 4550              		.loc 1 304 0
 4551 17d0 000059E3 		cmp	r9, #0
 4552 17d4 540000DA 		ble	.L132
 199:../lcd.c      **** void Lcd_Draw_Line(INT16 usX0, INT16 usY0, INT16 usX1, INT16 usY1, INT8U ucColor, INT16U usWidth)
 4553              		.loc 1 199 0
 4554 17d8 30201BE5 		ldr	r2, [fp, #-48]
 4555 17dc 062082E0 		add	r2, r2, r6
 306:../lcd.c      ****         	(LCD_PutPixel(usX0 + usLen, usY0, ucColor));
 4556              		.loc 1 306 0
 4557 17e0 C23FA0E1 		mov	r3, r2, asr #31
 4558 17e4 000052E3 		cmp	r2, #0
 4559 17e8 A3CEA0E1 		mov	ip, r3, lsr #29
 4560 17ec 074082E2 		add	r4, r2, #7
 4561 17f0 0240A0A1 		movge	r4, r2
 4562 17f4 0C5082E0 		add	r5, r2, ip
 4563 17f8 C41180E0 		add	r1, r0, r4, asr #3
 4564 17fc 0111A0E1 		mov	r1, r1, asl #2
 4565 1800 073005E2 		and	r3, r5, #7
 4566 1804 03306CE0 		rsb	r3, ip, r3
 4567 1808 004091E5 		ldr	r4, [r1, #0]
 4568 180c 0351A0E1 		mov	r5, r3, asl #2
 4569 1810 0FC2A0E3 		mov	ip, #-268435456
 4570 1814 3C55C4E1 		bic	r5, r4, ip, lsr r5
 4571 1818 073063E2 		rsb	r3, r3, #7
 4572 181c 0341A0E1 		mov	r4, r3, asl #2
 4573 1820 174485E1 		orr	r4, r5, r7, asl r4
 4574 1824 013042E2 		sub	r3, r2, #1
 4575 1828 085062E0 		rsb	r5, r2, r8
 4576 182c 0550E0E1 		mvn	r5, r5
 304:../lcd.c      ****         while( (usLen--) > 0 )
 4577              		.loc 1 304 0
 4578 1830 080053E1 		cmp	r3, r8
 4579 1834 015005E2 		and	r5, r5, #1
 306:../lcd.c      ****         	(LCD_PutPixel(usX0 + usLen, usY0, ucColor));
 4580              		.loc 1 306 0
 4581 1838 004081E5 		str	r4, [r1, #0]
 304:../lcd.c      ****         while( (usLen--) > 0 )
 4582              		.loc 1 304 0
 4583 183c 3A00000A 		beq	.L132
 4584 1840 000055E3 		cmp	r5, #0
 4585 1844 1300000A 		beq	.L133
 306:../lcd.c      ****         	(LCD_PutPixel(usX0 + usLen, usY0, ucColor));
 4586              		.loc 1 306 0
 4587 1848 000053E3 		cmp	r3, #0
 4588 184c C35FA0E1 		mov	r5, r3, asr #31
 4589 1850 A54EA0E1 		mov	r4, r5, lsr #29
 4590 1854 0320A0A1 		movge	r2, r3
 4591 1858 062082B2 		addlt	r2, r2, #6
 4592 185c 041083E0 		add	r1, r3, r4
 4593 1860 C22180E0 		add	r2, r0, r2, asr #3
 4594 1864 0221A0E1 		mov	r2, r2, asl #2
 4595 1868 075001E2 		and	r5, r1, #7
 4596 186c 051064E0 		rsb	r1, r4, r5
 4597 1870 004092E5 		ldr	r4, [r2, #0]
 4598 1874 0151A0E1 		mov	r5, r1, asl #2
 4599 1878 3C45C4E1 		bic	r4, r4, ip, lsr r5
 4600 187c 071061E2 		rsb	r1, r1, #7
 4601 1880 0111A0E1 		mov	r1, r1, asl #2
 4602 1884 174184E1 		orr	r4, r4, r7, asl r1
 4603 1888 013043E2 		sub	r3, r3, #1
 304:../lcd.c      ****         while( (usLen--) > 0 )
 4604              		.loc 1 304 0
 4605 188c 080053E1 		cmp	r3, r8
 306:../lcd.c      ****         	(LCD_PutPixel(usX0 + usLen, usY0, ucColor));
 4606              		.loc 1 306 0
 4607 1890 004082E5 		str	r4, [r2, #0]
 304:../lcd.c      ****         while( (usLen--) > 0 )
 4608              		.loc 1 304 0
 4609 1894 2400000A 		beq	.L132
 4610              	.L133:
 306:../lcd.c      ****         	(LCD_PutPixel(usX0 + usLen, usY0, ucColor));
 4611              		.loc 1 306 0
 4612 1898 000053E3 		cmp	r3, #0
 4613 189c C35FA0E1 		mov	r5, r3, asr #31
 4614 18a0 072083E2 		add	r2, r3, #7
 4615 18a4 A55EA0E1 		mov	r5, r5, lsr #29
 4616 18a8 0320A0A1 		movge	r2, r3
 4617 18ac 054083E0 		add	r4, r3, r5
 4618 18b0 C21180E0 		add	r1, r0, r2, asr #3
 4619 18b4 0111A0E1 		mov	r1, r1, asl #2
 4620 18b8 072004E2 		and	r2, r4, #7
 4621 18bc 022065E0 		rsb	r2, r5, r2
 4622 18c0 004091E5 		ldr	r4, [r1, #0]
 4623 18c4 0251A0E1 		mov	r5, r2, asl #2
 4624 18c8 3C55C4E1 		bic	r5, r4, ip, lsr r5
 4625 18cc 074062E2 		rsb	r4, r2, #7
 4626 18d0 0421A0E1 		mov	r2, r4, asl #2
 4627 18d4 174285E1 		orr	r4, r5, r7, asl r2
 4628 18d8 012053E2 		subs	r2, r3, #1
 4629 18dc C25FA0E1 		mov	r5, r2, asr #31
 4630 18e0 06308342 		addmi	r3, r3, #6
 4631 18e4 0230A051 		movpl	r3, r2
 4632 18e8 A55EA0E1 		mov	r5, r5, lsr #29
 4633 18ec 004081E5 		str	r4, [r1, #0]
 4634 18f0 054082E0 		add	r4, r2, r5
 4635 18f4 C31180E0 		add	r1, r0, r3, asr #3
 4636 18f8 0111A0E1 		mov	r1, r1, asl #2
 4637 18fc 073004E2 		and	r3, r4, #7
 4638 1900 035065E0 		rsb	r5, r5, r3
 4639 1904 003091E5 		ldr	r3, [r1, #0]
 4640 1908 0541A0E1 		mov	r4, r5, asl #2
 4641 190c 3C34C3E1 		bic	r3, r3, ip, lsr r4
 4642 1910 075065E2 		rsb	r5, r5, #7
 4643 1914 0541A0E1 		mov	r4, r5, asl #2
 4644 1918 174483E1 		orr	r4, r3, r7, asl r4
 4645 191c 013042E2 		sub	r3, r2, #1
 304:../lcd.c      ****         while( (usLen--) > 0 )
 4646              		.loc 1 304 0
 4647 1920 080053E1 		cmp	r3, r8
 306:../lcd.c      ****         	(LCD_PutPixel(usX0 + usLen, usY0, ucColor));
 4648              		.loc 1 306 0
 4649 1924 004081E5 		str	r4, [r1, #0]
 304:../lcd.c      ****         while( (usLen--) > 0 )
 4650              		.loc 1 304 0
 4651 1928 DAFFFF1A 		bne	.L133
 4652              	.L132:
 4653              	.LVL228:
 301:../lcd.c      ****     while( (usWidth--) > 0 )
 4654              		.loc 1 301 0
 4655 192c 00005AE3 		cmp	sl, #0
 304:../lcd.c      ****         while( (usLen--) > 0 )
 4656              		.loc 1 304 0
 4657 1930 280080E2 		add	r0, r0, #40
 301:../lcd.c      ****     while( (usWidth--) > 0 )
 4658              		.loc 1 301 0
 4659 1934 7CFFFF0A 		beq	.L128
 4660 1938 01C04AE2 		sub	ip, sl, #1
 4661 193c 0CA8A0E1 		mov	sl, ip, asl #16
 4662              	.LVL229:
 4663 1940 2AA8A0E1 		mov	sl, sl, lsr #16
 4664 1944 A1FFFFEA 		b	.L134
 4665              	.LVL230:
 4666              	.L224:
 4667              	.LBE33:
 4668              	.LBE32:
 4669              	.LBB34:
 4670              	.LBB35:
 327:../lcd.c      ****     if( usY1 < usY0 )
 4671              		.loc 1 327 0
 4672 1948 030051E1 		cmp	r1, r3
 4673 194c 740000CA 		bgt	.L228
 4674              	.LVL231:
 4675              	.L136:
 332:../lcd.c      ****     while( (usWidth--) > 0 )
 4676              		.loc 1 332 0
 4677 1950 00005CE3 		cmp	ip, #0
 4678 1954 74FFFF0A 		beq	.L128
 4679 1958 0488A0E1 		mov	r8, r4, asl #16
 4680 195c 0628A0E1 		mov	r2, r6, asl #16
 4681 1960 011882E2 		add	r1, r2, #65536
 4682 1964 2838A0E1 		mov	r3, r8, lsr #16
 4683 1968 210863E0 		rsb	r0, r3, r1, lsr #16
 4684 196c 00A8A0E1 		mov	sl, r0, asl #16
 4685 1970 2A98A0E1 		mov	r9, sl, lsr #16
 4686 1974 018049E2 		sub	r8, r9, #1
 199:../lcd.c      **** void Lcd_Draw_Line(INT16 usX0, INT16 usY0, INT16 usX1, INT16 usY1, INT8U ucColor, INT16U usWidth)
 4687              		.loc 1 199 0
 4688 1978 0828A0E1 		mov	r2, r8, asl #16
 4689 197c 421884E0 		add	r1, r4, r2, asr #16
 4690 1980 014181E0 		add	r4, r1, r1, asl #2
 4691              	.LVL232:
 4692 1984 8441A0E1 		mov	r4, r4, asl #3
 332:../lcd.c      ****     while( (usWidth--) > 0 )
 4693              		.loc 1 332 0
 4694 1988 01304CE2 		sub	r3, ip, #1
 199:../lcd.c      **** void Lcd_Draw_Line(INT16 usX0, INT16 usY0, INT16 usX1, INT16 usY1, INT8U ucColor, INT16U usWidth)
 4695              		.loc 1 199 0
 4696 198c C3C784E2 		add	ip, r4, #51118080
 4697              	.LVL233:
 4698 1990 968D8CE2 		add	r8, ip, #9600
 332:../lcd.c      ****     while( (usWidth--) > 0 )
 4699              		.loc 1 332 0
 4700 1994 30900BE5 		str	r9, [fp, #-48]
 4701 1998 03A8A0E1 		mov	sl, r3, asl #16
 4702 199c 0998A0E1 		mov	r9, r9, asl #16
 199:../lcd.c      **** void Lcd_Draw_Line(INT16 usX0, INT16 usY0, INT16 usX1, INT16 usY1, INT8U ucColor, INT16U usWidth)
 4703              		.loc 1 199 0
 4704 19a0 34400BE5 		str	r4, [fp, #-52]
 4705 19a4 38800BE5 		str	r8, [fp, #-56]
 332:../lcd.c      ****     while( (usWidth--) > 0 )
 4706              		.loc 1 332 0
 4707 19a8 2AA8A0E1 		mov	sl, sl, lsr #16
 4708 19ac 4998A0E1 		mov	r9, r9, asr #16
 199:../lcd.c      **** void Lcd_Draw_Line(INT16 usX0, INT16 usY0, INT16 usX1, INT16 usY1, INT8U ucColor, INT16U usWidth)
 4709              		.loc 1 199 0
 4710 19b0 0780A0E1 		mov	r8, r7
 4711              	.LVL234:
 4712              	.L139:
 335:../lcd.c      ****         while( (usLen--) > 0 )
 4713              		.loc 1 335 0
 4714 19b4 000059E3 		cmp	r9, #0
 4715 19b8 500000DA 		ble	.L137
 4716 19bc C56FA0E1 		mov	r6, r5, asr #31
 4717 19c0 A62EA0E1 		mov	r2, r6, lsr #29
 4718 19c4 023085E0 		add	r3, r5, r2
 4719 19c8 074003E2 		and	r4, r3, #7
 4720 19cc 04C062E0 		rsb	ip, r2, r4
 4721 19d0 07606CE2 		rsb	r6, ip, #7
 4722 19d4 0C11A0E1 		mov	r1, ip, asl #2
 4723 19d8 0F02A0E3 		mov	r0, #-268435456
 4724 19dc 3011E0E1 		mvn	r1, r0, lsr r1
 4725 19e0 0621A0E1 		mov	r2, r6, asl #2
 4726 19e4 1822A0E1 		mov	r2, r8, asl r2
 199:../lcd.c      **** void Lcd_Draw_Line(INT16 usX0, INT16 usY0, INT16 usX1, INT16 usY1, INT8U ucColor, INT16U usWidth)
 4727              		.loc 1 199 0
 4728 19e8 30301BE5 		ldr	r3, [fp, #-48]
 335:../lcd.c      ****         while( (usLen--) > 0 )
 4729              		.loc 1 335 0
 4730 19ec 000055E3 		cmp	r5, #0
 4731 19f0 074085E2 		add	r4, r5, #7
 199:../lcd.c      **** void Lcd_Draw_Line(INT16 usX0, INT16 usY0, INT16 usX1, INT16 usY1, INT8U ucColor, INT16U usWidth)
 4732              		.loc 1 199 0
 4733 19f4 01C043E2 		sub	ip, r3, #1
 335:../lcd.c      ****         while( (usLen--) > 0 )
 4734              		.loc 1 335 0
 4735 19f8 0540A0A1 		movge	r4, r5
 199:../lcd.c      **** void Lcd_Draw_Line(INT16 usX0, INT16 usY0, INT16 usX1, INT16 usY1, INT8U ucColor, INT16U usWidth)
 4736              		.loc 1 199 0
 4737 19fc 0C68A0E1 		mov	r6, ip, asl #16
 4738 1a00 38301BE5 		ldr	r3, [fp, #-56]
 335:../lcd.c      ****         while( (usLen--) > 0 )
 4739              		.loc 1 335 0
 4740 1a04 8406A0E1 		mov	r0, r4, asl #13
 199:../lcd.c      **** void Lcd_Draw_Line(INT16 usX0, INT16 usY0, INT16 usX1, INT16 usY1, INT8U ucColor, INT16U usWidth)
 4741              		.loc 1 199 0
 4742 1a08 4008A0E1 		mov	r0, r0, asr #16
 4743 1a0c 2648A0E1 		mov	r4, r6, lsr #16
 4744 1a10 00C083E0 		add	ip, r3, r0
 4745 1a14 046184E0 		add	r6, r4, r4, asl #2
 4746 1a18 2C319FE5 		ldr	r3, .L229
 4747 1a1c 8641A0E1 		mov	r4, r6, asl #3
 4748 1a20 0CC1A0E1 		mov	ip, ip, asl #2
 4749 1a24 033064E0 		rsb	r3, r4, r3
 4750 1a28 34401BE5 		ldr	r4, [fp, #-52]
 337:../lcd.c      ****         	(LCD_PutPixel(usX0, usY0 + usLen, ucColor));
 4751              		.loc 1 337 0
 4752 1a2c 00609CE5 		ldr	r6, [ip, #0]
 199:../lcd.c      **** void Lcd_Draw_Line(INT16 usX0, INT16 usY0, INT16 usX1, INT16 usY1, INT8U ucColor, INT16U usWidth)
 4753              		.loc 1 199 0
 4754 1a30 043083E0 		add	r3, r3, r4
 4755 1a34 000083E0 		add	r0, r3, r0
 337:../lcd.c      ****         	(LCD_PutPixel(usX0, usY0 + usLen, ucColor));
 4756              		.loc 1 337 0
 4757 1a38 066001E0 		and	r6, r1, r6
 199:../lcd.c      **** void Lcd_Draw_Line(INT16 usX0, INT16 usY0, INT16 usX1, INT16 usY1, INT8U ucColor, INT16U usWidth)
 4758              		.loc 1 199 0
 4759 1a3c 0001A0E1 		mov	r0, r0, asl #2
 337:../lcd.c      ****         	(LCD_PutPixel(usX0, usY0 + usLen, ucColor));
 4760              		.loc 1 337 0
 4761 1a40 0C30A0E1 		mov	r3, ip
 4762 1a44 066082E1 		orr	r6, r2, r6
 4763 1a48 0C4060E0 		rsb	r4, r0, ip
 4764 1a4c A06003E4 		str	r6, [r3], #-160
 4765 1a50 A04044E2 		sub	r4, r4, #160
 4766 1a54 A442A0E1 		mov	r4, r4, lsr #5
 335:../lcd.c      ****         while( (usLen--) > 0 )
 4767              		.loc 1 335 0
 4768 1a58 000053E1 		cmp	r3, r0
 4769 1a5c 034004E2 		and	r4, r4, #3
 4770 1a60 2600000A 		beq	.L137
 4771 1a64 000054E3 		cmp	r4, #0
 4772 1a68 1100000A 		beq	.L138
 4773 1a6c 010054E3 		cmp	r4, #1
 4774 1a70 0900000A 		beq	.L205
 4775 1a74 020054E3 		cmp	r4, #2
 337:../lcd.c      ****         	(LCD_PutPixel(usX0, usY0 + usLen, ucColor));
 4776              		.loc 1 337 0
 4777 1a78 A0301C15 		ldrne	r3, [ip, #-160]
 4778 1a7c 03300110 		andne	r3, r1, r3
 4779 1a80 03308211 		orrne	r3, r2, r3
 4780 1a84 A0300C15 		strne	r3, [ip, #-160]
 4781 1a88 053D4C12 		subne	r3, ip, #320
 4782 1a8c 00C093E5 		ldr	ip, [r3, #0]
 4783 1a90 0CC001E0 		and	ip, r1, ip
 4784 1a94 0CC082E1 		orr	ip, r2, ip
 4785 1a98 A0C003E4 		str	ip, [r3], #-160
 4786              	.L205:
 4787 1a9c 00C093E5 		ldr	ip, [r3, #0]
 4788 1aa0 0CC001E0 		and	ip, r1, ip
 4789 1aa4 0CC082E1 		orr	ip, r2, ip
 4790 1aa8 A0C003E4 		str	ip, [r3], #-160
 335:../lcd.c      ****         while( (usLen--) > 0 )
 4791              		.loc 1 335 0
 4792 1aac 000053E1 		cmp	r3, r0
 4793 1ab0 1200000A 		beq	.L137
 4794              	.L138:
 337:../lcd.c      ****         	(LCD_PutPixel(usX0, usY0 + usLen, ucColor));
 4795              		.loc 1 337 0
 4796 1ab4 007093E5 		ldr	r7, [r3, #0]
 4797 1ab8 A06013E5 		ldr	r6, [r3, #-160]
 4798 1abc 404113E5 		ldr	r4, [r3, #-320]
 4799 1ac0 E0C113E5 		ldr	ip, [r3, #-480]
 4800 1ac4 077001E0 		and	r7, r1, r7
 4801 1ac8 066001E0 		and	r6, r1, r6
 4802 1acc 044001E0 		and	r4, r1, r4
 4803 1ad0 0CC001E0 		and	ip, r1, ip
 4804 1ad4 077082E1 		orr	r7, r2, r7
 4805 1ad8 066082E1 		orr	r6, r2, r6
 4806 1adc 044082E1 		orr	r4, r2, r4
 4807 1ae0 0CC082E1 		orr	ip, r2, ip
 4808 1ae4 007083E5 		str	r7, [r3, #0]
 4809 1ae8 A06003E5 		str	r6, [r3, #-160]
 4810 1aec 404103E5 		str	r4, [r3, #-320]
 4811 1af0 E0C103E5 		str	ip, [r3, #-480]
 4812 1af4 0A3D43E2 		sub	r3, r3, #640
 335:../lcd.c      ****         while( (usLen--) > 0 )
 4813              		.loc 1 335 0
 4814 1af8 000053E1 		cmp	r3, r0
 4815 1afc ECFFFF1A 		bne	.L138
 4816              	.L137:
 4817              	.LVL235:
 332:../lcd.c      ****     while( (usWidth--) > 0 )
 4818              		.loc 1 332 0
 4819 1b00 00005AE3 		cmp	sl, #0
 4820 1b04 08FFFF0A 		beq	.L128
 339:../lcd.c      ****         usX0++;
 4821              		.loc 1 339 0
 4822 1b08 010085E2 		add	r0, r5, #1
 332:../lcd.c      ****     while( (usWidth--) > 0 )
 4823              		.loc 1 332 0
 4824 1b0c 01104AE2 		sub	r1, sl, #1
 339:../lcd.c      ****         usX0++;
 4825              		.loc 1 339 0
 4826 1b10 0058A0E1 		mov	r5, r0, asl #16
 4827              	.LVL236:
 332:../lcd.c      ****     while( (usWidth--) > 0 )
 4828              		.loc 1 332 0
 4829 1b14 01A8A0E1 		mov	sl, r1, asl #16
 4830              	.LVL237:
 339:../lcd.c      ****         usX0++;
 4831              		.loc 1 339 0
 4832 1b18 4558A0E1 		mov	r5, r5, asr #16
 332:../lcd.c      ****     while( (usWidth--) > 0 )
 4833              		.loc 1 332 0
 4834 1b1c 2AA8A0E1 		mov	sl, sl, lsr #16
 4835 1b20 A3FFFFEA 		b	.L139
 4836              	.LVL238:
 4837              	.L228:
 329:../lcd.c      ****         GUISWAP (usY1, usY0);
 4838              		.loc 1 329 0
 4839 1b24 016023E0 		eor	r6, r3, r1
 4840 1b28 0628A0E1 		mov	r2, r6, asl #16
 4841              	.LVL239:
 4842 1b2c 2238A0E1 		mov	r3, r2, lsr #16
 4843              	.LVL240:
 4844 1b30 031021E0 		eor	r1, r1, r3
 4845              	.LVL241:
 4846 1b34 0148A0E1 		mov	r4, r1, asl #16
 4847              	.LVL242:
 4848 1b38 4448A0E1 		mov	r4, r4, asr #16
 4849              	.LVL243:
 4850 1b3c 030024E0 		eor	r0, r4, r3
 4851              	.LVL244:
 4852 1b40 0068A0E1 		mov	r6, r0, asl #16
 4853 1b44 4668A0E1 		mov	r6, r6, asr #16
 4854              	.LVL245:
 4855 1b48 80FFFFEA 		b	.L136
 4856              	.L230:
 4857              		.align	2
 4858              	.L229:
 4859 1b4c 58250C03 		.word	51127640
 4860              	.LBE35:
 4861              	.LBE34:
 4862              		.cfi_endproc
 4863              	.LFE6:
 4865              		.align	2
 4866              		.global	Lcd_Draw_HLine
 4868              	Lcd_Draw_HLine:
 4869              	.LFB7:
 293:../lcd.c      **** {
 4870              		.loc 1 293 0
 4871              		.cfi_startproc
 4872              		@ Function supports interworking.
 4873              		@ args = 4, pretend = 0, frame = 8
 4874              		@ frame_needed = 0, uses_anonymous_args = 0
 4875              		@ link register save eliminated.
 4876              	.LVL246:
 4877 1b50 F0072DE9 		stmfd	sp!, {r4, r5, r6, r7, r8, r9, sl}
 4878              	.LCFI7:
 4879              		.cfi_def_cfa_offset 28
 4880 1b54 0CD04DE2 		sub	sp, sp, #12
 4881              	.LCFI8:
 4882              		.cfi_def_cfa_offset 40
 296:../lcd.c      ****     if( usX1 < usX0 )
 4883              		.loc 1 296 0
 4884 1b58 000051E1 		cmp	r1, r0
 293:../lcd.c      **** {
 4885              		.loc 1 293 0
 4886 1b5c B8C2DDE1 		ldrh	ip, [sp, #40]
 298:../lcd.c      ****         GUISWAP (usX1, usX0);
 4887              		.loc 1 298 0
 4888 1b60 004021B0 		eorlt	r4, r1, r0
 4889              		.cfi_offset 10, -4
 4890              		.cfi_offset 9, -8
 4891              		.cfi_offset 8, -12
 4892              		.cfi_offset 7, -16
 4893              		.cfi_offset 6, -20
 4894              		.cfi_offset 5, -24
 4895              		.cfi_offset 4, -28
 4896 1b64 0100A0B1 		movlt	r0, r1
 4897              	.LVL247:
 4898 1b68 041021B0 		eorlt	r1, r1, r4
 4899              	.LVL248:
 301:../lcd.c      ****     while( (usWidth--) > 0 )
 4900              		.loc 1 301 0
 4901 1b6c 00005CE3 		cmp	ip, #0
 4902 1b70 7400000A 		beq	.L231
 4903 1b74 01A8A0E1 		mov	sl, r1, asl #16
 4904 1b78 01488AE2 		add	r4, sl, #65536
 4905 1b7c 241860E0 		rsb	r1, r0, r4, lsr #16
 4906              	.LVL249:
 4907 1b80 0158A0E1 		mov	r5, r1, asl #16
 4908 1b84 2518A0E1 		mov	r1, r5, lsr #16
 4909 1b88 01A041E2 		sub	sl, r1, #1
 292:../lcd.c      **** void Lcd_Draw_HLine(INT16 usX0, INT16 usX1, INT16 usY0, INT8U ucColor, INT16U usWidth)
 4910              		.loc 1 292 0
 4911 1b8c 028182E0 		add	r8, r2, r2, asl #2
 4912 1b90 0A58A0E1 		mov	r5, sl, asl #16
 4913 1b94 0520A0E1 		mov	r2, r5
 4914              	.LVL250:
 4915 1b98 8841A0E1 		mov	r4, r8, asl #3
 4916 1b9c 0118A0E1 		mov	r1, r1, asl #16
 4917 1ba0 018040E2 		sub	r8, r0, #1
 4918 1ba4 4558A0E1 		mov	r5, r5, asr #16
 4919 1ba8 228848E0 		sub	r8, r8, r2, lsr #16
 301:../lcd.c      ****     while( (usWidth--) > 0 )
 4920              		.loc 1 301 0
 4921 1bac 01C04CE2 		sub	ip, ip, #1
 4922              	.LVL251:
 4923 1bb0 4128A0E1 		mov	r2, r1, asr #16
 4924 1bb4 0CA8A0E1 		mov	sl, ip, asl #16
 292:../lcd.c      **** void Lcd_Draw_HLine(INT16 usX0, INT16 usX1, INT16 usY0, INT8U ucColor, INT16U usWidth)
 4925              		.loc 1 292 0
 4926 1bb8 C34784E2 		add	r4, r4, #51118080
 4927 1bbc 24008DE8 		stmia	sp, {r2, r5}	@ phole stm
 301:../lcd.c      ****     while( (usWidth--) > 0 )
 4928              		.loc 1 301 0
 4929 1bc0 2AA8A0E1 		mov	sl, sl, lsr #16
 292:../lcd.c      **** void Lcd_Draw_HLine(INT16 usX0, INT16 usX1, INT16 usY0, INT8U ucColor, INT16U usWidth)
 4930              		.loc 1 292 0
 4931 1bc4 964D84E2 		add	r4, r4, #9600
 4932 1bc8 058088E0 		add	r8, r8, r5
 4933              	.LVL252:
 4934              	.L236:
 304:../lcd.c      ****         while( (usLen--) > 0 )
 4935              		.loc 1 304 0
 4936 1bcc 000052E3 		cmp	r2, #0
 4937 1bd0 540000DA 		ble	.L234
 292:../lcd.c      **** void Lcd_Draw_HLine(INT16 usX0, INT16 usX1, INT16 usY0, INT8U ucColor, INT16U usWidth)
 4938              		.loc 1 292 0
 4939 1bd4 04109DE5 		ldr	r1, [sp, #4]
 4940 1bd8 001081E0 		add	r1, r1, r0
 306:../lcd.c      ****         	(LCD_PutPixel(usX0 + usLen, usY0, ucColor));
 4941              		.loc 1 306 0
 4942 1bdc C12FA0E1 		mov	r2, r1, asr #31
 4943 1be0 000051E3 		cmp	r1, #0
 4944 1be4 A25EA0E1 		mov	r5, r2, lsr #29
 4945 1be8 076081E2 		add	r6, r1, #7
 4946 1bec 0160A0A1 		movge	r6, r1
 4947 1bf0 057081E0 		add	r7, r1, r5
 4948 1bf4 C6C184E0 		add	ip, r4, r6, asr #3
 4949 1bf8 0CC1A0E1 		mov	ip, ip, asl #2
 4950 1bfc 072007E2 		and	r2, r7, #7
 4951 1c00 022065E0 		rsb	r2, r5, r2
 4952 1c04 00609CE5 		ldr	r6, [ip, #0]
 4953 1c08 0271A0E1 		mov	r7, r2, asl #2
 4954 1c0c 0F52A0E3 		mov	r5, #-268435456
 4955 1c10 3577C6E1 		bic	r7, r6, r5, lsr r7
 4956 1c14 072062E2 		rsb	r2, r2, #7
 4957 1c18 0261A0E1 		mov	r6, r2, asl #2
 4958 1c1c 136687E1 		orr	r6, r7, r3, asl r6
 4959 1c20 012041E2 		sub	r2, r1, #1
 4960 1c24 087061E0 		rsb	r7, r1, r8
 4961 1c28 0770E0E1 		mvn	r7, r7
 304:../lcd.c      ****         while( (usLen--) > 0 )
 4962              		.loc 1 304 0
 4963 1c2c 080052E1 		cmp	r2, r8
 4964 1c30 017007E2 		and	r7, r7, #1
 306:../lcd.c      ****         	(LCD_PutPixel(usX0 + usLen, usY0, ucColor));
 4965              		.loc 1 306 0
 4966 1c34 00608CE5 		str	r6, [ip, #0]
 304:../lcd.c      ****         while( (usLen--) > 0 )
 4967              		.loc 1 304 0
 4968 1c38 3A00000A 		beq	.L234
 4969 1c3c 000057E3 		cmp	r7, #0
 4970 1c40 1300000A 		beq	.L235
 306:../lcd.c      ****         	(LCD_PutPixel(usX0 + usLen, usY0, ucColor));
 4971              		.loc 1 306 0
 4972 1c44 000052E3 		cmp	r2, #0
 4973 1c48 C27FA0E1 		mov	r7, r2, asr #31
 4974 1c4c A76EA0E1 		mov	r6, r7, lsr #29
 4975 1c50 0210A0A1 		movge	r1, r2
 4976 1c54 061081B2 		addlt	r1, r1, #6
 4977 1c58 06C082E0 		add	ip, r2, r6
 4978 1c5c C11184E0 		add	r1, r4, r1, asr #3
 4979 1c60 0111A0E1 		mov	r1, r1, asl #2
 4980 1c64 07700CE2 		and	r7, ip, #7
 4981 1c68 07C066E0 		rsb	ip, r6, r7
 4982 1c6c 006091E5 		ldr	r6, [r1, #0]
 4983 1c70 0C71A0E1 		mov	r7, ip, asl #2
 4984 1c74 3567C6E1 		bic	r6, r6, r5, lsr r7
 4985 1c78 07C06CE2 		rsb	ip, ip, #7
 4986 1c7c 0CC1A0E1 		mov	ip, ip, asl #2
 4987 1c80 136C86E1 		orr	r6, r6, r3, asl ip
 4988 1c84 012042E2 		sub	r2, r2, #1
 304:../lcd.c      ****         while( (usLen--) > 0 )
 4989              		.loc 1 304 0
 4990 1c88 080052E1 		cmp	r2, r8
 306:../lcd.c      ****         	(LCD_PutPixel(usX0 + usLen, usY0, ucColor));
 4991              		.loc 1 306 0
 4992 1c8c 006081E5 		str	r6, [r1, #0]
 304:../lcd.c      ****         while( (usLen--) > 0 )
 4993              		.loc 1 304 0
 4994 1c90 2400000A 		beq	.L234
 4995              	.L235:
 306:../lcd.c      ****         	(LCD_PutPixel(usX0 + usLen, usY0, ucColor));
 4996              		.loc 1 306 0
 4997 1c94 C26FA0E1 		mov	r6, r2, asr #31
 4998 1c98 000052E3 		cmp	r2, #0
 4999 1c9c 071082E2 		add	r1, r2, #7
 5000 1ca0 A67EA0E1 		mov	r7, r6, lsr #29
 5001 1ca4 0210A0A1 		movge	r1, r2
 5002 1ca8 079082E0 		add	r9, r2, r7
 5003 1cac C1C184E0 		add	ip, r4, r1, asr #3
 5004 1cb0 0CC1A0E1 		mov	ip, ip, asl #2
 5005 1cb4 076009E2 		and	r6, r9, #7
 5006 1cb8 067067E0 		rsb	r7, r7, r6
 5007 1cbc 00909CE5 		ldr	r9, [ip, #0]
 5008 1cc0 0711A0E1 		mov	r1, r7, asl #2
 5009 1cc4 3591C9E1 		bic	r9, r9, r5, lsr r1
 5010 1cc8 076067E2 		rsb	r6, r7, #7
 5011 1ccc 0611A0E1 		mov	r1, r6, asl #2
 5012 1cd0 136189E1 		orr	r6, r9, r3, asl r1
 5013 1cd4 011052E2 		subs	r1, r2, #1
 5014 1cd8 C17FA0E1 		mov	r7, r1, asr #31
 5015 1cdc 06208242 		addmi	r2, r2, #6
 5016 1ce0 0120A051 		movpl	r2, r1
 5017 1ce4 A77EA0E1 		mov	r7, r7, lsr #29
 5018 1ce8 00608CE5 		str	r6, [ip, #0]
 5019 1cec 076081E0 		add	r6, r1, r7
 5020 1cf0 C2C184E0 		add	ip, r4, r2, asr #3
 5021 1cf4 0CC1A0E1 		mov	ip, ip, asl #2
 5022 1cf8 072006E2 		and	r2, r6, #7
 5023 1cfc 027067E0 		rsb	r7, r7, r2
 5024 1d00 00209CE5 		ldr	r2, [ip, #0]
 5025 1d04 0761A0E1 		mov	r6, r7, asl #2
 5026 1d08 3526C2E1 		bic	r2, r2, r5, lsr r6
 5027 1d0c 077067E2 		rsb	r7, r7, #7
 5028 1d10 0761A0E1 		mov	r6, r7, asl #2
 5029 1d14 136682E1 		orr	r6, r2, r3, asl r6
 5030 1d18 012041E2 		sub	r2, r1, #1
 304:../lcd.c      ****         while( (usLen--) > 0 )
 5031              		.loc 1 304 0
 5032 1d1c 080052E1 		cmp	r2, r8
 306:../lcd.c      ****         	(LCD_PutPixel(usX0 + usLen, usY0, ucColor));
 5033              		.loc 1 306 0
 5034 1d20 00608CE5 		str	r6, [ip, #0]
 304:../lcd.c      ****         while( (usLen--) > 0 )
 5035              		.loc 1 304 0
 5036 1d24 DAFFFF1A 		bne	.L235
 5037              	.L234:
 5038              	.LVL253:
 301:../lcd.c      ****     while( (usWidth--) > 0 )
 5039              		.loc 1 301 0
 5040 1d28 00005AE3 		cmp	sl, #0
 304:../lcd.c      ****         while( (usLen--) > 0 )
 5041              		.loc 1 304 0
 5042 1d2c 284084E2 		add	r4, r4, #40
 301:../lcd.c      ****     while( (usWidth--) > 0 )
 5043              		.loc 1 301 0
 5044 1d30 0400000A 		beq	.L231
 5045 1d34 01204AE2 		sub	r2, sl, #1
 5046 1d38 02A8A0E1 		mov	sl, r2, asl #16
 5047              	.LVL254:
 5048 1d3c 2AA8A0E1 		mov	sl, sl, lsr #16
 5049 1d40 00209DE5 		ldr	r2, [sp, #0]
 5050              	.LVL255:
 5051 1d44 A0FFFFEA 		b	.L236
 5052              	.L231:
 310:../lcd.c      **** }
 5053              		.loc 1 310 0
 5054 1d48 0CD08DE2 		add	sp, sp, #12
 5055 1d4c F007BDE8 		ldmfd	sp!, {r4, r5, r6, r7, r8, r9, sl}
 5056 1d50 1EFF2FE1 		bx	lr
 5057              		.cfi_endproc
 5058              	.LFE7:
 5060              		.align	2
 5061              		.global	Lcd_Draw_VLine
 5063              	Lcd_Draw_VLine:
 5064              	.LFB8:
 324:../lcd.c      **** {
 5065              		.loc 1 324 0
 5066              		.cfi_startproc
 5067              		@ Function supports interworking.
 5068              		@ args = 4, pretend = 0, frame = 16
 5069              		@ frame_needed = 0, uses_anonymous_args = 0
 5070              		@ link register save eliminated.
 5071              	.LVL256:
 5072 1d54 F0072DE9 		stmfd	sp!, {r4, r5, r6, r7, r8, r9, sl}
 5073              	.LCFI9:
 5074              		.cfi_def_cfa_offset 28
 5075 1d58 14D04DE2 		sub	sp, sp, #20
 5076              	.LCFI10:
 5077              		.cfi_def_cfa_offset 48
 327:../lcd.c      ****     if( usY1 < usY0 )
 5078              		.loc 1 327 0
 5079 1d5c 000051E1 		cmp	r1, r0
 324:../lcd.c      **** {
 5080              		.loc 1 324 0
 5081 1d60 08308DE5 		str	r3, [sp, #8]
 5082 1d64 B033DDE1 		ldrh	r3, [sp, #48]
 5083              	.LVL257:
 329:../lcd.c      ****         GUISWAP (usY1, usY0);
 5084              		.loc 1 329 0
 5085 1d68 00C021B0 		eorlt	ip, r1, r0
 5086 1d6c 0100A0B1 		movlt	r0, r1
 5087              	.LVL258:
 5088 1d70 0C1021B0 		eorlt	r1, r1, ip
 5089              	.LVL259:
 332:../lcd.c      ****     while( (usWidth--) > 0 )
 5090              		.loc 1 332 0
 5091 1d74 000053E3 		cmp	r3, #0
 5092 1d78 6D00000A 		beq	.L245
 5093              		.cfi_offset 10, -4
 5094              		.cfi_offset 9, -8
 5095              		.cfi_offset 8, -12
 5096              		.cfi_offset 7, -16
 5097              		.cfi_offset 6, -20
 5098              		.cfi_offset 5, -24
 5099              		.cfi_offset 4, -28
 5100 1d7c 0188A0E1 		mov	r8, r1, asl #16
 5101 1d80 01A888E2 		add	sl, r8, #65536
 5102 1d84 2AC860E0 		rsb	ip, r0, sl, lsr #16
 5103 1d88 0C98A0E1 		mov	r9, ip, asl #16
 5104 1d8c 2998A0E1 		mov	r9, r9, lsr #16
 5105 1d90 011049E2 		sub	r1, r9, #1
 5106              	.LVL260:
 323:../lcd.c      **** void Lcd_Draw_VLine (INT16 usY0, INT16 usY1, INT16 usX0, INT8U ucColor, INT16U usWidth)
 5107              		.loc 1 323 0
 5108 1d94 0188A0E1 		mov	r8, r1, asl #16
 5109 1d98 48A880E0 		add	sl, r0, r8, asr #16
 5110 1d9c 0A018AE0 		add	r0, sl, sl, asl #2
 5111              	.LVL261:
 5112 1da0 8011A0E1 		mov	r1, r0, asl #3
 5113 1da4 C30781E2 		add	r0, r1, #51118080
 332:../lcd.c      ****     while( (usWidth--) > 0 )
 5114              		.loc 1 332 0
 5115 1da8 01C043E2 		sub	ip, r3, #1
 323:../lcd.c      **** void Lcd_Draw_VLine (INT16 usY0, INT16 usY1, INT16 usX0, INT8U ucColor, INT16U usWidth)
 5116              		.loc 1 323 0
 5117 1dac 963D80E2 		add	r3, r0, #9600
 5118              	.LVL262:
 332:../lcd.c      ****     while( (usWidth--) > 0 )
 5119              		.loc 1 332 0
 5120 1db0 0C88A0E1 		mov	r8, ip, asl #16
 5121 1db4 09A8A0E1 		mov	sl, r9, asl #16
 323:../lcd.c      **** void Lcd_Draw_VLine (INT16 usY0, INT16 usY1, INT16 usX0, INT8U ucColor, INT16U usWidth)
 5122              		.loc 1 323 0
 5123 1db8 04108DE5 		str	r1, [sp, #4]
 5124 1dbc 0C308DE5 		str	r3, [sp, #12]
 332:../lcd.c      ****     while( (usWidth--) > 0 )
 5125              		.loc 1 332 0
 5126 1dc0 2888A0E1 		mov	r8, r8, lsr #16
 5127 1dc4 4AA8A0E1 		mov	sl, sl, asr #16
 5128              	.LVL263:
 5129              	.L250:
 335:../lcd.c      ****         while( (usLen--) > 0 )
 5130              		.loc 1 335 0
 5131 1dc8 00005AE3 		cmp	sl, #0
 5132 1dcc 4F0000DA 		ble	.L248
 5133 1dd0 C26FA0E1 		mov	r6, r2, asr #31
 5134 1dd4 A65EA0E1 		mov	r5, r6, lsr #29
 5135 1dd8 051082E0 		add	r1, r2, r5
 5136 1ddc 074001E2 		and	r4, r1, #7
 5137 1de0 04C065E0 		rsb	ip, r5, r4
 5138 1de4 0C31A0E1 		mov	r3, ip, asl #2
 5139 1de8 07606CE2 		rsb	r6, ip, #7
 5140 1dec 08509DE5 		ldr	r5, [sp, #8]
 5141 1df0 0F02A0E3 		mov	r0, #-268435456
 5142 1df4 3003E0E1 		mvn	r0, r0, lsr r3
 5143 1df8 0611A0E1 		mov	r1, r6, asl #2
 5144 1dfc 1511A0E1 		mov	r1, r5, asl r1
 323:../lcd.c      **** void Lcd_Draw_VLine (INT16 usY0, INT16 usY1, INT16 usX0, INT8U ucColor, INT16U usWidth)
 5145              		.loc 1 323 0
 5146 1e00 014049E2 		sub	r4, r9, #1
 335:../lcd.c      ****         while( (usLen--) > 0 )
 5147              		.loc 1 335 0
 5148 1e04 000052E3 		cmp	r2, #0
 323:../lcd.c      **** void Lcd_Draw_VLine (INT16 usY0, INT16 usY1, INT16 usX0, INT8U ucColor, INT16U usWidth)
 5149              		.loc 1 323 0
 5150 1e08 0468A0E1 		mov	r6, r4, asl #16
 5151 1e0c 0C309DE5 		ldr	r3, [sp, #12]
 335:../lcd.c      ****         while( (usLen--) > 0 )
 5152              		.loc 1 335 0
 5153 1e10 07C082E2 		add	ip, r2, #7
 5154 1e14 02C0A0A1 		movge	ip, r2
 323:../lcd.c      **** void Lcd_Draw_VLine (INT16 usY0, INT16 usY1, INT16 usX0, INT8U ucColor, INT16U usWidth)
 5155              		.loc 1 323 0
 5156 1e18 CCC1A0E1 		mov	ip, ip, asr #3
 5157 1e1c 2658A0E1 		mov	r5, r6, lsr #16
 5158 1e20 0C4083E0 		add	r4, r3, ip
 5159 1e24 056185E0 		add	r6, r5, r5, asl #2
 5160 1e28 10319FE5 		ldr	r3, .L267
 5161 1e2c 8651A0E1 		mov	r5, r6, asl #3
 5162 1e30 0441A0E1 		mov	r4, r4, asl #2
 5163 1e34 033065E0 		rsb	r3, r5, r3
 5164 1e38 04509DE5 		ldr	r5, [sp, #4]
 337:../lcd.c      ****         	(LCD_PutPixel(usX0, usY0 + usLen, ucColor));
 5165              		.loc 1 337 0
 5166 1e3c 006094E5 		ldr	r6, [r4, #0]
 323:../lcd.c      **** void Lcd_Draw_VLine (INT16 usY0, INT16 usY1, INT16 usX0, INT8U ucColor, INT16U usWidth)
 5167              		.loc 1 323 0
 5168 1e40 055083E0 		add	r5, r3, r5
 5169 1e44 0C3085E0 		add	r3, r5, ip
 337:../lcd.c      ****         	(LCD_PutPixel(usX0, usY0 + usLen, ucColor));
 5170              		.loc 1 337 0
 5171 1e48 066000E0 		and	r6, r0, r6
 323:../lcd.c      **** void Lcd_Draw_VLine (INT16 usY0, INT16 usY1, INT16 usX0, INT8U ucColor, INT16U usWidth)
 5172              		.loc 1 323 0
 5173 1e4c 03C1A0E1 		mov	ip, r3, asl #2
 337:../lcd.c      ****         	(LCD_PutPixel(usX0, usY0 + usLen, ucColor));
 5174              		.loc 1 337 0
 5175 1e50 066081E1 		orr	r6, r1, r6
 5176 1e54 0430A0E1 		mov	r3, r4
 5177 1e58 04506CE0 		rsb	r5, ip, r4
 5178 1e5c A06003E4 		str	r6, [r3], #-160
 5179 1e60 A05045E2 		sub	r5, r5, #160
 5180 1e64 A552A0E1 		mov	r5, r5, lsr #5
 335:../lcd.c      ****         while( (usLen--) > 0 )
 5181              		.loc 1 335 0
 5182 1e68 0C0053E1 		cmp	r3, ip
 5183 1e6c 035005E2 		and	r5, r5, #3
 5184 1e70 2600000A 		beq	.L248
 5185 1e74 000055E3 		cmp	r5, #0
 5186 1e78 1100000A 		beq	.L249
 5187 1e7c 010055E3 		cmp	r5, #1
 5188 1e80 0900000A 		beq	.L263
 5189 1e84 020055E3 		cmp	r5, #2
 337:../lcd.c      ****         	(LCD_PutPixel(usX0, usY0 + usLen, ucColor));
 5190              		.loc 1 337 0
 5191 1e88 A0301415 		ldrne	r3, [r4, #-160]
 5192 1e8c 03300010 		andne	r3, r0, r3
 5193 1e90 03308111 		orrne	r3, r1, r3
 5194 1e94 A0300415 		strne	r3, [r4, #-160]
 5195 1e98 053D4412 		subne	r3, r4, #320
 5196 1e9c 004093E5 		ldr	r4, [r3, #0]
 5197 1ea0 044000E0 		and	r4, r0, r4
 5198 1ea4 044081E1 		orr	r4, r1, r4
 5199 1ea8 A04003E4 		str	r4, [r3], #-160
 5200              	.L263:
 5201 1eac 004093E5 		ldr	r4, [r3, #0]
 5202 1eb0 044000E0 		and	r4, r0, r4
 5203 1eb4 044081E1 		orr	r4, r1, r4
 5204 1eb8 A04003E4 		str	r4, [r3], #-160
 335:../lcd.c      ****         while( (usLen--) > 0 )
 5205              		.loc 1 335 0
 5206 1ebc 0C0053E1 		cmp	r3, ip
 5207 1ec0 1200000A 		beq	.L248
 5208              	.L249:
 337:../lcd.c      ****         	(LCD_PutPixel(usX0, usY0 + usLen, ucColor));
 5209              		.loc 1 337 0
 5210 1ec4 007093E5 		ldr	r7, [r3, #0]
 5211 1ec8 A06013E5 		ldr	r6, [r3, #-160]
 5212 1ecc 405113E5 		ldr	r5, [r3, #-320]
 5213 1ed0 E04113E5 		ldr	r4, [r3, #-480]
 5214 1ed4 077000E0 		and	r7, r0, r7
 5215 1ed8 066000E0 		and	r6, r0, r6
 5216 1edc 055000E0 		and	r5, r0, r5
 5217 1ee0 044000E0 		and	r4, r0, r4
 5218 1ee4 077081E1 		orr	r7, r1, r7
 5219 1ee8 066081E1 		orr	r6, r1, r6
 5220 1eec 055081E1 		orr	r5, r1, r5
 5221 1ef0 044081E1 		orr	r4, r1, r4
 5222 1ef4 007083E5 		str	r7, [r3, #0]
 5223 1ef8 A06003E5 		str	r6, [r3, #-160]
 5224 1efc 405103E5 		str	r5, [r3, #-320]
 5225 1f00 E04103E5 		str	r4, [r3, #-480]
 5226 1f04 0A3D43E2 		sub	r3, r3, #640
 335:../lcd.c      ****         while( (usLen--) > 0 )
 5227              		.loc 1 335 0
 5228 1f08 0C0053E1 		cmp	r3, ip
 5229 1f0c ECFFFF1A 		bne	.L249
 5230              	.L248:
 5231              	.LVL264:
 332:../lcd.c      ****     while( (usWidth--) > 0 )
 5232              		.loc 1 332 0
 5233 1f10 000058E3 		cmp	r8, #0
 5234 1f14 0600000A 		beq	.L245
 339:../lcd.c      ****         usX0++;
 5235              		.loc 1 339 0
 5236 1f18 013082E2 		add	r3, r2, #1
 332:../lcd.c      ****     while( (usWidth--) > 0 )
 5237              		.loc 1 332 0
 5238 1f1c 010048E2 		sub	r0, r8, #1
 339:../lcd.c      ****         usX0++;
 5239              		.loc 1 339 0
 5240 1f20 0328A0E1 		mov	r2, r3, asl #16
 5241              	.LVL265:
 332:../lcd.c      ****     while( (usWidth--) > 0 )
 5242              		.loc 1 332 0
 5243 1f24 0088A0E1 		mov	r8, r0, asl #16
 5244              	.LVL266:
 339:../lcd.c      ****         usX0++;
 5245              		.loc 1 339 0
 5246 1f28 4228A0E1 		mov	r2, r2, asr #16
 332:../lcd.c      ****     while( (usWidth--) > 0 )
 5247              		.loc 1 332 0
 5248 1f2c 2888A0E1 		mov	r8, r8, lsr #16
 5249 1f30 A4FFFFEA 		b	.L250
 5250              	.LVL267:
 5251              	.L245:
 341:../lcd.c      **** }
 5252              		.loc 1 341 0
 5253 1f34 14D08DE2 		add	sp, sp, #20
 5254 1f38 F007BDE8 		ldmfd	sp!, {r4, r5, r6, r7, r8, r9, sl}
 5255 1f3c 1EFF2FE1 		bx	lr
 5256              	.L268:
 5257              		.align	2
 5258              	.L267:
 5259 1f40 58250C03 		.word	51127640
 5260              		.cfi_endproc
 5261              	.LFE8:
 5263              		.align	2
 5264              		.global	Lcd_DisplayString
 5266              	Lcd_DisplayString:
 5267              	.LFB9:
 343:../lcd.c      **** void Lcd_DisplayString(INT16U usX0, INT16U usY0, INT8U *pucStr){
 5268              		.loc 1 343 0
 5269              		.cfi_startproc
 5270              		@ Function supports interworking.
 5271              		@ args = 0, pretend = 0, frame = 0
 5272              		@ frame_needed = 0, uses_anonymous_args = 0
 5273              		@ link register save eliminated.
 5274              	.LVL268:
 345:../lcd.c      **** }
 5275              		.loc 1 345 0
 5276 1f44 1EFF2FE1 		bx	lr
 5277              		.cfi_endproc
 5278              	.LFE9:
 5280              		.align	2
 5281              		.global	Lcd_DspAscII8x16
 5283              	Lcd_DspAscII8x16:
 5284              	.LFB10:
 358:../lcd.c      **** {
 5285              		.loc 1 358 0
 5286              		.cfi_startproc
 5287              		@ Function supports interworking.
 5288              		@ args = 0, pretend = 0, frame = 192
 5289              		@ frame_needed = 1, uses_anonymous_args = 0
 5290              	.LVL269:
 5291 1f48 0DC0A0E1 		mov	ip, sp
 5292              	.LCFI11:
 5293              		.cfi_def_cfa_register 12
 5294 1f4c F0DF2DE9 		stmfd	sp!, {r4, r5, r6, r7, r8, r9, sl, fp, ip, lr, pc}
 357:../lcd.c      **** void Lcd_DspAscII8x16(INT16U x0, INT16U y0, INT8U ForeColor, INT8U * s)
 5295              		.loc 1 357 0
 5296 1f50 011181E0 		add	r1, r1, r1, asl #2
 5297              	.LVL270:
 358:../lcd.c      **** {
 5298              		.loc 1 358 0
 5299 1f54 04B04CE2 		sub	fp, ip, #4
 5300              		.cfi_offset 14, -8
 5301              		.cfi_offset 13, -12
 5302              		.cfi_offset 11, -16
 5303              		.cfi_offset 10, -20
 5304              		.cfi_offset 9, -24
 5305              		.cfi_offset 8, -28
 5306              		.cfi_offset 7, -32
 5307              		.cfi_offset 6, -36
 5308              		.cfi_offset 5, -40
 5309              		.cfi_offset 4, -44
 5310              	.LCFI12:
 5311              		.cfi_def_cfa 11, 4
 357:../lcd.c      **** void Lcd_DspAscII8x16(INT16U x0, INT16U y0, INT8U ForeColor, INT8U * s)
 5312              		.loc 1 357 0
 5313 1f58 81E1A0E1 		mov	lr, r1, asl #3
 358:../lcd.c      **** {
 5314              		.loc 1 358 0
 5315 1f5c C4D04DE2 		sub	sp, sp, #196
 357:../lcd.c      **** void Lcd_DspAscII8x16(INT16U x0, INT16U y0, INT8U ForeColor, INT8U * s)
 5316              		.loc 1 357 0
 5317 1f60 C3C78EE2 		add	ip, lr, #51118080
 358:../lcd.c      **** {
 5318              		.loc 1 358 0
 5319 1f64 7C000BE5 		str	r0, [fp, #-124]
 364:../lcd.c      **** 	for( i = 0; i < strlen((const char*)s); i++ )
 5320              		.loc 1 364 0
 5321 1f68 0000A0E3 		mov	r0, #0
 5322              	.LVL271:
 357:../lcd.c      **** void Lcd_DspAscII8x16(INT16U x0, INT16U y0, INT8U ForeColor, INT8U * s)
 5323              		.loc 1 357 0
 5324 1f6c 961D8CE2 		add	r1, ip, #9600
 364:../lcd.c      **** 	for( i = 0; i < strlen((const char*)s); i++ )
 5325              		.loc 1 364 0
 5326 1f70 AC000BE5 		str	r0, [fp, #-172]
 5327 1f74 0300A0E1 		mov	r0, r3
 5328              	.LVL272:
 357:../lcd.c      **** void Lcd_DspAscII8x16(INT16U x0, INT16U y0, INT8U ForeColor, INT8U * s)
 5329              		.loc 1 357 0
 5330 1f78 84100BE5 		str	r1, [fp, #-132]
 358:../lcd.c      **** {
 5331              		.loc 1 358 0
 5332 1f7c 80200BE5 		str	r2, [fp, #-128]
 5333 1f80 B0300BE5 		str	r3, [fp, #-176]
 364:../lcd.c      **** 	for( i = 0; i < strlen((const char*)s); i++ )
 5334              		.loc 1 364 0
 5335 1f84 FEFFFFEB 		bl	strlen
 5336              	.LVL273:
 5337 1f88 AC101BE5 		ldr	r1, [fp, #-172]
 5338 1f8c 010050E1 		cmp	r0, r1
 5339 1f90 8A01009A 		bls	.L270
 5340              	.L282:
 366:../lcd.c      **** 		if( (INT8U)*(s+i) >= 161 )
 5341              		.loc 1 366 0
 5342 1f94 B0301BE5 		ldr	r3, [fp, #-176]
 5343 1f98 0120D3E7 		ldrb	r2, [r3, r1]	@ zero_extendqisi2
 5344 1f9c A00052E3 		cmp	r2, #160
 5345 1fa0 88200BE5 		str	r2, [fp, #-136]
 5346 1fa4 8501008A 		bhi	.L270
 5347              	.LVL274:
 357:../lcd.c      **** void Lcd_DspAscII8x16(INT16U x0, INT16U y0, INT8U ForeColor, INT8U * s)
 5348              		.loc 1 357 0
 5349 1fa8 7C301BE5 		ldr	r3, [fp, #-124]
 5350 1fac 026083E2 		add	r6, r3, #2
 5351 1fb0 042083E2 		add	r2, r3, #4
 5352              	.LVL275:
 5353 1fb4 017083E2 		add	r7, r3, #1
 5354 1fb8 031083E2 		add	r1, r3, #3
 5355 1fbc 055083E2 		add	r5, r3, #5
 389:../lcd.c      **** 			       		(LCD_PutPixel(xx, y + y0, (INT8U)ForeColor));
 5356              		.loc 1 389 0
 5357 1fc0 0688A0E1 		mov	r8, r6, asl #16
 5358 1fc4 0268A0E1 		mov	r6, r2, asl #16
 357:../lcd.c      **** void Lcd_DspAscII8x16(INT16U x0, INT16U y0, INT8U ForeColor, INT8U * s)
 5359              		.loc 1 357 0
 5360 1fc8 06E083E2 		add	lr, r3, #6
 389:../lcd.c      **** 			       		(LCD_PutPixel(xx, y + y0, (INT8U)ForeColor));
 5361              		.loc 1 389 0
 5362 1fcc 07A8A0E1 		mov	sl, r7, asl #16
 5363 1fd0 C60FA0E1 		mov	r0, r6, asr #31
 5364 1fd4 0178A0E1 		mov	r7, r1, asl #16
 5365 1fd8 0518A0E1 		mov	r1, r5, asl #16
 5366 1fdc 4C000BE5 		str	r0, [fp, #-76]
 5367 1fe0 0E28A0E1 		mov	r2, lr, asl #16
 5368 1fe4 C10FA0E1 		mov	r0, r1, asr #31
 357:../lcd.c      **** void Lcd_DspAscII8x16(INT16U x0, INT16U y0, INT8U ForeColor, INT8U * s)
 5369              		.loc 1 357 0
 5370 1fe8 07C083E2 		add	ip, r3, #7
 389:../lcd.c      **** 			       		(LCD_PutPixel(xx, y + y0, (INT8U)ForeColor));
 5371              		.loc 1 389 0
 5372 1fec 40000BE5 		str	r0, [fp, #-64]
 5373 1ff0 0C38A0E1 		mov	r3, ip, asl #16
 5374 1ff4 C20FA0E1 		mov	r0, r2, asr #31
 5375 1ff8 44000BE5 		str	r0, [fp, #-68]
 5376 1ffc 4118A0E1 		mov	r1, r1, asr #16
 5377 2000 C30FA0E1 		mov	r0, r3, asr #31
 5378 2004 48000BE5 		str	r0, [fp, #-72]
 5379 2008 A0100BE5 		str	r1, [fp, #-160]
 5380 200c 4608A0E1 		mov	r0, r6, asr #16
 5381 2010 40101BE5 		ldr	r1, [fp, #-64]
 5382 2014 4368A0E1 		mov	r6, r3, asr #16
 5383 2018 A8600BE5 		str	r6, [fp, #-168]
 5384 201c C7CFA0E1 		mov	ip, r7, asr #31
 5385 2020 A0601BE5 		ldr	r6, [fp, #-160]
 5386 2024 4778A0E1 		mov	r7, r7, asr #16
 5387 2028 98700BE5 		str	r7, [fp, #-152]
 5388 202c A11EA0E1 		mov	r1, r1, lsr #29
 5389 2030 4278A0E1 		mov	r7, r2, asr #16
 5390 2034 A4700BE5 		str	r7, [fp, #-164]
 5391 2038 44201BE5 		ldr	r2, [fp, #-68]
 5392 203c 016086E0 		add	r6, r6, r1
 5393 2040 40600BE5 		str	r6, [fp, #-64]
 5394 2044 7C401BE5 		ldr	r4, [fp, #-124]
 5395 2048 A4601BE5 		ldr	r6, [fp, #-164]
 5396 204c A22EA0E1 		mov	r2, r2, lsr #29
 5397 2050 0498A0E1 		mov	r9, r4, asl #16
 5398 2054 48301BE5 		ldr	r3, [fp, #-72]
 5399 2058 026086E0 		add	r6, r6, r2
 5400 205c CA4FA0E1 		mov	r4, sl, asr #31
 5401 2060 44600BE5 		str	r6, [fp, #-68]
 5402 2064 4AA8A0E1 		mov	sl, sl, asr #16
 5403 2068 A44EA0E1 		mov	r4, r4, lsr #29
 5404 206c A8601BE5 		ldr	r6, [fp, #-168]
 5405 2070 90A00BE5 		str	sl, [fp, #-144]
 5406 2074 A33EA0E1 		mov	r3, r3, lsr #29
 5407 2078 04A08AE0 		add	sl, sl, r4
 5408 207c 9C000BE5 		str	r0, [fp, #-156]
 5409 2080 036086E0 		add	r6, r6, r3
 5410 2084 4C001BE5 		ldr	r0, [fp, #-76]
 5411 2088 4CA00BE5 		str	sl, [fp, #-76]
 5412 208c 48600BE5 		str	r6, [fp, #-72]
 5413 2090 4C601BE5 		ldr	r6, [fp, #-76]
 5414 2094 076006E2 		and	r6, r6, #7
 5415 2098 4C600BE5 		str	r6, [fp, #-76]
 5416 209c 40601BE5 		ldr	r6, [fp, #-64]
 5417 20a0 076006E2 		and	r6, r6, #7
 5418 20a4 40600BE5 		str	r6, [fp, #-64]
 5419 20a8 44601BE5 		ldr	r6, [fp, #-68]
 5420 20ac C95FA0E1 		mov	r5, r9, asr #31
 5421 20b0 C8EFA0E1 		mov	lr, r8, asr #31
 5422 20b4 076006E2 		and	r6, r6, #7
 5423 20b8 4888A0E1 		mov	r8, r8, asr #16
 5424 20bc A55EA0E1 		mov	r5, r5, lsr #29
 5425 20c0 4998A0E1 		mov	r9, r9, asr #16
 5426 20c4 AEEEA0E1 		mov	lr, lr, lsr #29
 5427 20c8 9C701BE5 		ldr	r7, [fp, #-156]
 5428 20cc 44600BE5 		str	r6, [fp, #-68]
 5429 20d0 48601BE5 		ldr	r6, [fp, #-72]
 5430 20d4 0EA088E0 		add	sl, r8, lr
 5431 20d8 8C900BE5 		str	r9, [fp, #-140]
 5432 20dc 94800BE5 		str	r8, [fp, #-148]
 5433 20e0 A00EA0E1 		mov	r0, r0, lsr #29
 5434 20e4 059089E0 		add	r9, r9, r5
 5435 20e8 98801BE5 		ldr	r8, [fp, #-152]
 5436 20ec ACCEA0E1 		mov	ip, ip, lsr #29
 5437 20f0 007087E0 		add	r7, r7, r0
 5438 20f4 076006E2 		and	r6, r6, #7
 5439 20f8 079009E2 		and	r9, r9, #7
 5440 20fc 48600BE5 		str	r6, [fp, #-72]
 5441 2100 099065E0 		rsb	r9, r5, r9
 5442 2104 0C8088E0 		add	r8, r8, ip
 5443 2108 40501BE5 		ldr	r5, [fp, #-64]
 5444 210c 077007E2 		and	r7, r7, #7
 5445 2110 070060E0 		rsb	r0, r0, r7
 5446 2114 07A00AE2 		and	sl, sl, #7
 5447 2118 078008E2 		and	r8, r8, #7
 5448 211c 0AE06EE0 		rsb	lr, lr, sl
 5449 2120 08C06CE0 		rsb	ip, ip, r8
 5450 2124 051061E0 		rsb	r1, r1, r5
 5451 2128 44801BE5 		ldr	r8, [fp, #-68]
 5452 212c 07A060E2 		rsb	sl, r0, #7
 5453 2130 4C601BE5 		ldr	r6, [fp, #-76]
 5454 2134 4CA00BE5 		str	sl, [fp, #-76]
 5455 2138 07A061E2 		rsb	sl, r1, #7
 5456 213c 48701BE5 		ldr	r7, [fp, #-72]
 5457 2140 40A00BE5 		str	sl, [fp, #-64]
 5458 2144 082062E0 		rsb	r2, r2, r8
 5459 2148 0001A0E1 		mov	r0, r0, asl #2
 5460 214c 68000BE5 		str	r0, [fp, #-104]
 5461 2150 07A062E2 		rsb	sl, r2, #7
 5462 2154 40001BE5 		ldr	r0, [fp, #-64]
 5463 2158 44A00BE5 		str	sl, [fp, #-68]
 5464 215c 073063E0 		rsb	r3, r3, r7
 5465 2160 0111A0E1 		mov	r1, r1, asl #2
 5466 2164 70100BE5 		str	r1, [fp, #-112]
 5467 2168 07A063E2 		rsb	sl, r3, #7
 5468 216c 0011A0E1 		mov	r1, r0, asl #2
 5469 2170 44001BE5 		ldr	r0, [fp, #-68]
 5470 2174 48A00BE5 		str	sl, [fp, #-72]
 5471 2178 4CA01BE5 		ldr	sl, [fp, #-76]
 5472 217c 4C100BE5 		str	r1, [fp, #-76]
 5473 2180 0011A0E1 		mov	r1, r0, asl #2
 5474 2184 48001BE5 		ldr	r0, [fp, #-72]
 5475 2188 50100BE5 		str	r1, [fp, #-80]
 5476 218c 0011A0E1 		mov	r1, r0, asl #2
 5477 2190 064064E0 		rsb	r4, r4, r6
 5478 2194 54100BE5 		str	r1, [fp, #-84]
 5479 2198 076069E2 		rsb	r6, r9, #7
 5480 219c 80101BE5 		ldr	r1, [fp, #-128]
 5481 21a0 0661A0E1 		mov	r6, r6, asl #2
 5482 21a4 1166A0E1 		mov	r6, r1, asl r6
 5483 21a8 075064E2 		rsb	r5, r4, #7
 5484 21ac 0551A0E1 		mov	r5, r5, asl #2
 5485 21b0 1155A0E1 		mov	r5, r1, asl r5
 5486 21b4 0F02A0E3 		mov	r0, #-268435456
 5487 21b8 0441A0E1 		mov	r4, r4, asl #2
 5488 21bc 40600BE5 		str	r6, [fp, #-64]
 5489 21c0 3064E0E1 		mvn	r6, r0, lsr r4
 5490 21c4 07806EE2 		rsb	r8, lr, #7
 5491 21c8 07706CE2 		rsb	r7, ip, #7
 5492 21cc 0771A0E1 		mov	r7, r7, asl #2
 5493 21d0 0881A0E1 		mov	r8, r8, asl #2
 5494 21d4 1188A0E1 		mov	r8, r1, asl r8
 5495 21d8 48500BE5 		str	r5, [fp, #-72]
 5496 21dc 1157A0E1 		mov	r5, r1, asl r7
 5497 21e0 0EE1A0E1 		mov	lr, lr, asl #2
 5498 21e4 0CC1A0E1 		mov	ip, ip, asl #2
 5499 21e8 304EE0E1 		mvn	r4, r0, lsr lr
 5500 21ec 44600BE5 		str	r6, [fp, #-68]
 5501 21f0 306CE0E1 		mvn	r6, r0, lsr ip
 5502 21f4 0AA1A0E1 		mov	sl, sl, asl #2
 5503 21f8 68E01BE5 		ldr	lr, [fp, #-104]
 5504 21fc 11CAA0E1 		mov	ip, r1, asl sl
 5505 2200 5C800BE5 		str	r8, [fp, #-92]
 5506 2204 4CA01BE5 		ldr	sl, [fp, #-76]
 5507 2208 70801BE5 		ldr	r8, [fp, #-112]
 5508 220c 64500BE5 		str	r5, [fp, #-100]
 5509 2210 50501BE5 		ldr	r5, [fp, #-80]
 5510 2214 0221A0E1 		mov	r2, r2, asl #2
 5511 2218 3078E0E1 		mvn	r7, r0, lsr r8
 5512 221c 3022E0E1 		mvn	r2, r0, lsr r2
 5513 2220 58400BE5 		str	r4, [fp, #-88]
 5514 2224 60600BE5 		str	r6, [fp, #-96]
 5515 2228 304EE0E1 		mvn	r4, r0, lsr lr
 5516 222c 116AA0E1 		mov	r6, r1, asl sl
 5517 2230 11E5A0E1 		mov	lr, r1, asl r5
 5518 2234 0331A0E1 		mov	r3, r3, asl #2
 5519 2238 0991A0E1 		mov	r9, r9, asl #2
 5520 223c 3099E0E1 		mvn	r9, r0, lsr r9
 5521 2240 68400BE5 		str	r4, [fp, #-104]
 5522 2244 6CC00BE5 		str	ip, [fp, #-108]
 5523 2248 3043E0E1 		mvn	r4, r0, lsr r3
 5524 224c 70700BE5 		str	r7, [fp, #-112]
 5525 2250 4C600BE5 		str	r6, [fp, #-76]
 5526 2254 74200BE5 		str	r2, [fp, #-116]
 5527 2258 50E00BE5 		str	lr, [fp, #-80]
 5528 225c 54001BE5 		ldr	r0, [fp, #-84]
 5529 2260 1130A0E1 		mov	r3, r1, asl r0
 378:../lcd.c      **** 				ywbuf[j] = g_auc_Ascii8x16[ulOffset + j];
 5530              		.loc 1 378 0
 5531 2264 88C01BE5 		ldr	ip, [fp, #-136]
 5532 2268 5C839FE5 		ldr	r8, .L284
 389:../lcd.c      **** 			       		(LCD_PutPixel(xx, y + y0, (INT8U)ForeColor));
 5533              		.loc 1 389 0
 5534 226c 54300BE5 		str	r3, [fp, #-84]
 378:../lcd.c      **** 				ywbuf[j] = g_auc_Ascii8x16[ulOffset + j];
 5535              		.loc 1 378 0
 5536 2270 0C3288E0 		add	r3, r8, ip, asl #4
 5537 2274 0170D3E5 		ldrb	r7, [r3, #1]	@ zero_extendqisi2
 5538 2278 02A0D3E5 		ldrb	sl, [r3, #2]	@ zero_extendqisi2
 5539 227c 0360D3E5 		ldrb	r6, [r3, #3]	@ zero_extendqisi2
 5540 2280 0420D3E5 		ldrb	r2, [r3, #4]	@ zero_extendqisi2
 5541 2284 0550D3E5 		ldrb	r5, [r3, #5]	@ zero_extendqisi2
 5542 2288 0C82D8E7 		ldrb	r8, [r8, ip, asl #4]	@ zero_extendqisi2
 5543 228c 06E0D3E5 		ldrb	lr, [r3, #6]	@ zero_extendqisi2
 5544 2290 0810D3E5 		ldrb	r1, [r3, #8]	@ zero_extendqisi2
 5545 2294 0900D3E5 		ldrb	r0, [r3, #9]	@ zero_extendqisi2
 5546 2298 0AC0D3E5 		ldrb	ip, [r3, #10]	@ zero_extendqisi2
 389:../lcd.c      **** 			       		(LCD_PutPixel(xx, y + y0, (INT8U)ForeColor));
 5547              		.loc 1 389 0
 5548 229c 78400BE5 		str	r4, [fp, #-120]
 378:../lcd.c      **** 				ywbuf[j] = g_auc_Ascii8x16[ulOffset + j];
 5549              		.loc 1 378 0
 5550 22a0 88700BE5 		str	r7, [fp, #-136]
 5551 22a4 0740D3E5 		ldrb	r4, [r3, #7]	@ zero_extendqisi2
 5552 22a8 0B70D3E5 		ldrb	r7, [r3, #11]	@ zero_extendqisi2
 5553 22ac B4A00BE5 		str	sl, [fp, #-180]
 5554 22b0 B8600BE5 		str	r6, [fp, #-184]
 5555 22b4 0CA0D3E5 		ldrb	sl, [r3, #12]	@ zero_extendqisi2
 5556 22b8 0D60D3E5 		ldrb	r6, [r3, #13]	@ zero_extendqisi2
 5557 22bc BC200BE5 		str	r2, [fp, #-188]
 5558 22c0 C0500BE5 		str	r5, [fp, #-192]
 5559 22c4 0E20D3E5 		ldrb	r2, [r3, #14]	@ zero_extendqisi2
 5560 22c8 0F50D3E5 		ldrb	r5, [r3, #15]	@ zero_extendqisi2
 5561 22cc C4E00BE5 		str	lr, [fp, #-196]
 5562 22d0 C8400BE5 		str	r4, [fp, #-200]
 5563 22d4 CC100BE5 		str	r1, [fp, #-204]
 5564 22d8 D0000BE5 		str	r0, [fp, #-208]
 5565 22dc D4C00BE5 		str	ip, [fp, #-212]
 5566 22e0 D8700BE5 		str	r7, [fp, #-216]
 5567 22e4 DCA00BE5 		str	sl, [fp, #-220]
 5568 22e8 E0600BE5 		str	r6, [fp, #-224]
 5569 22ec E4200BE5 		str	r2, [fp, #-228]
 5570 22f0 E8500BE5 		str	r5, [fp, #-232]
 389:../lcd.c      **** 			       		(LCD_PutPixel(xx, y + y0, (INT8U)ForeColor));
 5571              		.loc 1 389 0
 5572 22f4 A8E01BE5 		ldr	lr, [fp, #-168]
 5573 22f8 94701BE5 		ldr	r7, [fp, #-148]
 5574 22fc A4401BE5 		ldr	r4, [fp, #-164]
 5575 2300 8C601BE5 		ldr	r6, [fp, #-140]
 5576 2304 07308EE2 		add	r3, lr, #7
 5577 2308 07E087E2 		add	lr, r7, #7
 5578 230c A8701BE5 		ldr	r7, [fp, #-168]
 5579 2310 072084E2 		add	r2, r4, #7
 5580 2314 074086E2 		add	r4, r6, #7
 5581 2318 A4601BE5 		ldr	r6, [fp, #-164]
 5582 231c A0501BE5 		ldr	r5, [fp, #-160]
 5583 2320 000057E3 		cmp	r7, #0
 5584 2324 0370A0B1 		movlt	r7, r3
 5585 2328 A0104BE2 		sub	r1, fp, #160
 5586 232c 0A0091E8 		ldmia	r1, {r1, r3}	@ phole ldm
 5587 2330 000056E3 		cmp	r6, #0
 5588 2334 0260A0B1 		movlt	r6, r2
 5589 2338 9C001BE5 		ldr	r0, [fp, #-156]
 5590 233c 000055E3 		cmp	r5, #0
 5591 2340 98201BE5 		ldr	r2, [fp, #-152]
 5592 2344 071081E2 		add	r1, r1, #7
 5593 2348 0510A0A1 		movge	r1, r5
 5594 234c 000053E3 		cmp	r3, #0
 5595 2350 070080E2 		add	r0, r0, #7
 5596 2354 98C01BE5 		ldr	ip, [fp, #-152]
 5597 2358 0300A0A1 		movge	r0, r3
 5598 235c 94304BE2 		sub	r3, fp, #148
 5599 2360 280093E8 		ldmia	r3, {r3, r5}	@ phole ldm
 5600 2364 000052E3 		cmp	r2, #0
 5601 2368 07C08CE2 		add	ip, ip, #7
 5602 236c 90A01BE5 		ldr	sl, [fp, #-144]
 5603 2370 02C0A0A1 		movge	ip, r2
 5604 2374 8C201BE5 		ldr	r2, [fp, #-140]
 5605 2378 000053E3 		cmp	r3, #0
 5606 237c 0E30A0B1 		movlt	r3, lr
 5607 2380 000055E3 		cmp	r5, #0
 357:../lcd.c      **** void Lcd_DspAscII8x16(INT16U x0, INT16U y0, INT8U ForeColor, INT8U * s)
 5608              		.loc 1 357 0
 5609 2384 84E01BE5 		ldr	lr, [fp, #-132]
 389:../lcd.c      **** 			       		(LCD_PutPixel(xx, y + y0, (INT8U)ForeColor));
 5610              		.loc 1 389 0
 5611 2388 07A08AE2 		add	sl, sl, #7
 5612 238c 05A0A0A1 		movge	sl, r5
 5613 2390 000052E3 		cmp	r2, #0
 5614 2394 0420A0B1 		movlt	r2, r4
 357:../lcd.c      **** void Lcd_DspAscII8x16(INT16U x0, INT16U y0, INT8U ForeColor, INT8U * s)
 5615              		.loc 1 357 0
 5616 2398 C1518EE0 		add	r5, lr, r1, asr #3
 5617 239c C0418EE0 		add	r4, lr, r0, asr #3
 5618 23a0 CCC18EE0 		add	ip, lr, ip, asr #3
 5619 23a4 CA018EE0 		add	r0, lr, sl, asr #3
 5620 23a8 C2218EE0 		add	r2, lr, r2, asr #3
 378:../lcd.c      **** 				ywbuf[j] = g_auc_Ascii8x16[ulOffset + j];
 5621              		.loc 1 378 0
 5622 23ac B4A01BE5 		ldr	sl, [fp, #-180]
 5623 23b0 BC101BE5 		ldr	r1, [fp, #-188]
 357:../lcd.c      **** void Lcd_DspAscII8x16(INT16U x0, INT16U y0, INT8U ForeColor, INT8U * s)
 5624              		.loc 1 357 0
 5625 23b4 C7718EE0 		add	r7, lr, r7, asr #3
 5626 23b8 C6618EE0 		add	r6, lr, r6, asr #3
 5627 23bc C3318EE0 		add	r3, lr, r3, asr #3
 378:../lcd.c      **** 				ywbuf[j] = g_auc_Ascii8x16[ulOffset + j];
 5628              		.loc 1 378 0
 5629 23c0 3C804BE5 		strb	r8, [fp, #-60]
 5630              	.LVL276:
 5631 23c4 88E01BE5 		ldr	lr, [fp, #-136]
 5632 23c8 B8801BE5 		ldr	r8, [fp, #-184]
 5633 23cc 3BE04BE5 		strb	lr, [fp, #-59]
 5634              	.LVL277:
 5635 23d0 3AA04BE5 		strb	sl, [fp, #-58]
 5636              	.LVL278:
 5637 23d4 C4A04BE2 		sub	sl, fp, #196
 5638 23d8 00449AE8 		ldmia	sl, {sl, lr}	@ phole ldm
 5639 23dc 39804BE5 		strb	r8, [fp, #-57]
 5640              	.LVL279:
 5641 23e0 38104BE5 		strb	r1, [fp, #-56]
 5642              	.LVL280:
 5643 23e4 CC104BE2 		sub	r1, fp, #204
 5644 23e8 020191E8 		ldmia	r1, {r1, r8}	@ phole ldm
 5645 23ec 37E04BE5 		strb	lr, [fp, #-55]
 5646              	.LVL281:
 5647 23f0 36A04BE5 		strb	sl, [fp, #-54]
 5648              	.LVL282:
 5649 23f4 35804BE5 		strb	r8, [fp, #-53]
 5650              	.LVL283:
 5651 23f8 34104BE5 		strb	r1, [fp, #-52]
 5652              	.LVL284:
 5653 23fc D8804BE2 		sub	r8, fp, #216
 5654 2400 004598E8 		ldmia	r8, {r8, sl, lr}	@ phole ldm
 5655 2404 32A04BE5 		strb	sl, [fp, #-50]
 5656 2408 E4A01BE5 		ldr	sl, [fp, #-228]
 5657 240c DC101BE5 		ldr	r1, [fp, #-220]
 5658 2410 33E04BE5 		strb	lr, [fp, #-51]
 5659              	.LVL285:
 5660 2414 31804BE5 		strb	r8, [fp, #-49]
 5661              	.LVL286:
 5662 2418 E0E01BE5 		ldr	lr, [fp, #-224]
 5663 241c E8801BE5 		ldr	r8, [fp, #-232]
 5664 2420 2EA04BE5 		strb	sl, [fp, #-46]
 5665 2424 88900BE5 		str	r9, [fp, #-136]
 5666 2428 30104BE5 		strb	r1, [fp, #-48]
 5667              	.LVL287:
 5668 242c 2FE04BE5 		strb	lr, [fp, #-47]
 5669              	.LVL288:
 5670 2430 2D804BE5 		strb	r8, [fp, #-45]
 5671              	.LVL289:
 357:../lcd.c      **** void Lcd_DspAscII8x16(INT16U x0, INT16U y0, INT8U ForeColor, INT8U * s)
 5672              		.loc 1 357 0
 5673 2434 0CE1A0E1 		mov	lr, ip, asl #2
 5674 2438 0211A0E1 		mov	r1, r2, asl #2
 5675 243c 0771A0E1 		mov	r7, r7, asl #2
 5676 2440 0661A0E1 		mov	r6, r6, asl #2
 5677 2444 0551A0E1 		mov	r5, r5, asl #2
 5678 2448 0441A0E1 		mov	r4, r4, asl #2
 5679 244c 03C1A0E1 		mov	ip, r3, asl #2
 5680 2450 0001A0E1 		mov	r0, r0, asl #2
 5681 2454 0020A0E3 		mov	r2, #0
 5682 2458 3C804BE2 		sub	r8, fp, #60
 5683              	.LVL290:
 5684              	.L281:
 386:../lcd.c      **** 			    	if( ywbuf[y]  & (0x80 >> k) )
 5685              		.loc 1 386 0 discriminator 1
 5686 245c 0230D8E7 		ldrb	r3, [r8, r2]	@ zero_extendqisi2
 5687 2460 800013E3 		tst	r3, #128
 5688 2464 0500000A 		beq	.L273
 389:../lcd.c      **** 			       		(LCD_PutPixel(xx, y + y0, (INT8U)ForeColor));
 5689              		.loc 1 389 0
 5690 2468 88901BE5 		ldr	r9, [fp, #-136]
 5691 246c 00A091E5 		ldr	sl, [r1, #0]
 5692 2470 0AA009E0 		and	sl, r9, sl
 5693 2474 40901BE5 		ldr	r9, [fp, #-64]
 5694 2478 0AA089E1 		orr	sl, r9, sl
 5695 247c 00A081E5 		str	sl, [r1, #0]
 5696              	.LVL291:
 5697              	.L273:
 386:../lcd.c      **** 			    	if( ywbuf[y]  & (0x80 >> k) )
 5698              		.loc 1 386 0
 5699 2480 400013E3 		tst	r3, #64
 5700 2484 0500000A 		beq	.L274
 389:../lcd.c      **** 			       		(LCD_PutPixel(xx, y + y0, (INT8U)ForeColor));
 5701              		.loc 1 389 0
 5702 2488 44901BE5 		ldr	r9, [fp, #-68]
 5703 248c 00A090E5 		ldr	sl, [r0, #0]
 5704 2490 0AA009E0 		and	sl, r9, sl
 5705 2494 48901BE5 		ldr	r9, [fp, #-72]
 5706 2498 0AA089E1 		orr	sl, r9, sl
 5707 249c 00A080E5 		str	sl, [r0, #0]
 5708              	.L274:
 5709              	.LVL292:
 386:../lcd.c      **** 			    	if( ywbuf[y]  & (0x80 >> k) )
 5710              		.loc 1 386 0
 5711 24a0 200013E3 		tst	r3, #32
 5712 24a4 0500000A 		beq	.L275
 389:../lcd.c      **** 			       		(LCD_PutPixel(xx, y + y0, (INT8U)ForeColor));
 5713              		.loc 1 389 0
 5714 24a8 58901BE5 		ldr	r9, [fp, #-88]
 5715 24ac 00A09CE5 		ldr	sl, [ip, #0]
 5716 24b0 0AA009E0 		and	sl, r9, sl
 5717 24b4 5C901BE5 		ldr	r9, [fp, #-92]
 5718 24b8 0AA089E1 		orr	sl, r9, sl
 5719 24bc 00A08CE5 		str	sl, [ip, #0]
 5720              	.L275:
 5721              	.LVL293:
 386:../lcd.c      **** 			    	if( ywbuf[y]  & (0x80 >> k) )
 5722              		.loc 1 386 0
 5723 24c0 100013E3 		tst	r3, #16
 5724 24c4 0500000A 		beq	.L276
 389:../lcd.c      **** 			       		(LCD_PutPixel(xx, y + y0, (INT8U)ForeColor));
 5725              		.loc 1 389 0
 5726 24c8 60901BE5 		ldr	r9, [fp, #-96]
 5727 24cc 00A09EE5 		ldr	sl, [lr, #0]
 5728 24d0 0AA009E0 		and	sl, r9, sl
 5729 24d4 64901BE5 		ldr	r9, [fp, #-100]
 5730 24d8 0AA089E1 		orr	sl, r9, sl
 5731 24dc 00A08EE5 		str	sl, [lr, #0]
 5732              	.L276:
 5733              	.LVL294:
 386:../lcd.c      **** 			    	if( ywbuf[y]  & (0x80 >> k) )
 5734              		.loc 1 386 0
 5735 24e0 080013E3 		tst	r3, #8
 5736 24e4 0500000A 		beq	.L277
 389:../lcd.c      **** 			       		(LCD_PutPixel(xx, y + y0, (INT8U)ForeColor));
 5737              		.loc 1 389 0
 5738 24e8 68901BE5 		ldr	r9, [fp, #-104]
 5739 24ec 00A094E5 		ldr	sl, [r4, #0]
 5740 24f0 0AA009E0 		and	sl, r9, sl
 5741 24f4 6C901BE5 		ldr	r9, [fp, #-108]
 5742 24f8 0AA089E1 		orr	sl, r9, sl
 5743 24fc 00A084E5 		str	sl, [r4, #0]
 5744              	.L277:
 5745              	.LVL295:
 386:../lcd.c      **** 			    	if( ywbuf[y]  & (0x80 >> k) )
 5746              		.loc 1 386 0
 5747 2500 040013E3 		tst	r3, #4
 5748 2504 0500000A 		beq	.L278
 389:../lcd.c      **** 			       		(LCD_PutPixel(xx, y + y0, (INT8U)ForeColor));
 5749              		.loc 1 389 0
 5750 2508 70901BE5 		ldr	r9, [fp, #-112]
 5751 250c 00A095E5 		ldr	sl, [r5, #0]
 5752 2510 0AA009E0 		and	sl, r9, sl
 5753 2514 4C901BE5 		ldr	r9, [fp, #-76]
 5754 2518 0AA089E1 		orr	sl, r9, sl
 5755 251c 00A085E5 		str	sl, [r5, #0]
 5756              	.L278:
 5757              	.LVL296:
 386:../lcd.c      **** 			    	if( ywbuf[y]  & (0x80 >> k) )
 5758              		.loc 1 386 0
 5759 2520 020013E3 		tst	r3, #2
 5760 2524 0500000A 		beq	.L279
 389:../lcd.c      **** 			       		(LCD_PutPixel(xx, y + y0, (INT8U)ForeColor));
 5761              		.loc 1 389 0
 5762 2528 74901BE5 		ldr	r9, [fp, #-116]
 5763 252c 00A096E5 		ldr	sl, [r6, #0]
 5764 2530 0AA009E0 		and	sl, r9, sl
 5765 2534 50901BE5 		ldr	r9, [fp, #-80]
 5766 2538 0AA089E1 		orr	sl, r9, sl
 5767 253c 00A086E5 		str	sl, [r6, #0]
 5768              	.L279:
 5769              	.LVL297:
 386:../lcd.c      **** 			    	if( ywbuf[y]  & (0x80 >> k) )
 5770              		.loc 1 386 0
 5771 2540 010013E3 		tst	r3, #1
 5772 2544 0500000A 		beq	.L280
 389:../lcd.c      **** 			       		(LCD_PutPixel(xx, y + y0, (INT8U)ForeColor));
 5773              		.loc 1 389 0
 5774 2548 009097E5 		ldr	r9, [r7, #0]
 5775 254c 78301BE5 		ldr	r3, [fp, #-120]
 5776 2550 09A003E0 		and	sl, r3, r9
 5777 2554 54901BE5 		ldr	r9, [fp, #-84]
 5778 2558 0A3089E1 		orr	r3, r9, sl
 5779 255c 003087E5 		str	r3, [r7, #0]
 5780              	.L280:
 5781              	.LVL298:
 5782 2560 012082E2 		add	r2, r2, #1
 381:../lcd.c      ****             for( y = 0; y < 16; y++ )
 5783              		.loc 1 381 0
 5784 2564 100052E3 		cmp	r2, #16
 389:../lcd.c      **** 			       		(LCD_PutPixel(xx, y + y0, (INT8U)ForeColor));
 5785              		.loc 1 389 0
 5786 2568 A07087E2 		add	r7, r7, #160
 5787 256c A06086E2 		add	r6, r6, #160
 5788 2570 A05085E2 		add	r5, r5, #160
 5789 2574 A04084E2 		add	r4, r4, #160
 5790 2578 A0E08EE2 		add	lr, lr, #160
 5791 257c A0C08CE2 		add	ip, ip, #160
 5792 2580 A00080E2 		add	r0, r0, #160
 5793 2584 A01081E2 		add	r1, r1, #160
 381:../lcd.c      ****             for( y = 0; y < 16; y++ )
 5794              		.loc 1 381 0
 5795 2588 B3FFFF1A 		bne	.L281
 5796 258c 7CA01BE5 		ldr	sl, [fp, #-124]
 5797 2590 08108AE2 		add	r1, sl, #8
 5798 2594 01E8A0E1 		mov	lr, r1, asl #16
 5799 2598 AC201BE5 		ldr	r2, [fp, #-172]
 5800 259c 2E08A0E1 		mov	r0, lr, lsr #16
 5801 25a0 01C082E2 		add	ip, r2, #1
 5802 25a4 7C000BE5 		str	r0, [fp, #-124]
 5803 25a8 B0001BE5 		ldr	r0, [fp, #-176]
 5804 25ac ACC00BE5 		str	ip, [fp, #-172]
 364:../lcd.c      **** 	for( i = 0; i < strlen((const char*)s); i++ )
 5805              		.loc 1 364 0
 5806 25b0 FEFFFFEB 		bl	strlen
 5807 25b4 AC101BE5 		ldr	r1, [fp, #-172]
 5808 25b8 010050E1 		cmp	r0, r1
 5809 25bc 74FEFF8A 		bhi	.L282
 5810              	.LVL299:
 5811              	.L270:
 395:../lcd.c      **** }
 5812              		.loc 1 395 0
 5813 25c0 28D04BE2 		sub	sp, fp, #40
 5814 25c4 F06F9DE8 		ldmfd	sp, {r4, r5, r6, r7, r8, r9, sl, fp, sp, lr}
 5815 25c8 1EFF2FE1 		bx	lr
 5816              	.L285:
 5817              		.align	2
 5818              	.L284:
 5819 25cc 00000000 		.word	g_auc_Ascii8x16
 5820              		.cfi_endproc
 5821              	.LFE10:
 5823              		.align	2
 5824              		.global	Lcd_DspAscII6x8
 5826              	Lcd_DspAscII6x8:
 5827              	.LFB11:
 408:../lcd.c      **** {
 5828              		.loc 1 408 0
 5829              		.cfi_startproc
 5830              		@ Function supports interworking.
 5831              		@ args = 0, pretend = 0, frame = 32
 5832              		@ frame_needed = 0, uses_anonymous_args = 0
 5833              		@ link register save eliminated.
 5834              	.LVL300:
 5835 25d0 F0072DE9 		stmfd	sp!, {r4, r5, r6, r7, r8, r9, sl}
 5836              	.LCFI13:
 5837              		.cfi_def_cfa_offset 28
 5838 25d4 0380A0E1 		mov	r8, r3
 5839              		.cfi_offset 10, -4
 5840              		.cfi_offset 9, -8
 5841              		.cfi_offset 8, -12
 5842              		.cfi_offset 7, -16
 5843              		.cfi_offset 6, -20
 5844              		.cfi_offset 5, -24
 5845              		.cfi_offset 4, -28
 412:../lcd.c      **** 	while( *pucChar != 0 )
 5846              		.loc 1 412 0
 5847 25d8 0030D3E5 		ldrb	r3, [r3, #0]	@ zero_extendqisi2
 5848              	.LVL301:
 408:../lcd.c      **** {
 5849              		.loc 1 408 0
 5850 25dc 24D04DE2 		sub	sp, sp, #36
 5851              	.LCFI14:
 5852              		.cfi_def_cfa_offset 64
 412:../lcd.c      **** 	while( *pucChar != 0 )
 5853              		.loc 1 412 0
 5854 25e0 000053E3 		cmp	r3, #0
 408:../lcd.c      **** {
 5855              		.loc 1 408 0
 5856 25e4 18008DE5 		str	r0, [sp, #24]
 5857              	.LVL302:
 412:../lcd.c      **** 	while( *pucChar != 0 )
 5858              		.loc 1 412 0
 5859 25e8 BC00000A 		beq	.L286
 421:../lcd.c      ****   					LCD_PutPixel(usX0 + i, usY0 + 8 - j, (INT8U)ForeColor);
 5860              		.loc 1 421 0
 5861 25ec 01A041E2 		sub	sl, r1, #1
 5862 25f0 02C041E2 		sub	ip, r1, #2
 5863 25f4 034041E2 		sub	r4, r1, #3
 5864 25f8 040041E2 		sub	r0, r1, #4
 5865 25fc 055041E2 		sub	r5, r1, #5
 5866 2600 063041E2 		sub	r3, r1, #6
 5867 2604 077041E2 		sub	r7, r1, #7
 5868 2608 0A618AE0 		add	r6, sl, sl, asl #2
 5869 260c 011181E0 		add	r1, r1, r1, asl #2
 5870              	.LVL303:
 5871 2610 0C918CE0 		add	r9, ip, ip, asl #2
 5872 2614 04A184E0 		add	sl, r4, r4, asl #2
 5873 2618 00C180E0 		add	ip, r0, r0, asl #2
 5874 261c 050185E0 		add	r0, r5, r5, asl #2
 5875 2620 035183E0 		add	r5, r3, r3, asl #2
 5876 2624 0A43A0E1 		mov	r4, sl, asl #6
 5877 2628 073187E0 		add	r3, r7, r7, asl #2
 5878 262c 0CA3A0E1 		mov	sl, ip, asl #6
 5879 2630 0173A0E1 		mov	r7, r1, asl #6
 5880 2634 0003A0E1 		mov	r0, r0, asl #6
 5881 2638 0513A0E1 		mov	r1, r5, asl #6
 5882 263c 0ACC8AE2 		add	ip, sl, #2560
 5883 2640 0A5C80E2 		add	r5, r0, #2560
 5884 2644 0AAC81E2 		add	sl, r1, #2560
 5885 2648 0333A0E1 		mov	r3, r3, asl #6
 5886 264c 0A3C83E2 		add	r3, r3, #2560
 5887 2650 A500A0E1 		mov	r0, r5, lsr #1
 5888 2654 AA10A0E1 		mov	r1, sl, lsr #1
 5889 2658 0663A0E1 		mov	r6, r6, asl #6
 5890 265c 0993A0E1 		mov	r9, r9, asl #6
 5891 2660 0A4C84E2 		add	r4, r4, #2560
 5892 2664 ACC0A0E1 		mov	ip, ip, lsr #1
 5893 2668 A350A0E1 		mov	r5, r3, lsr #1
 5894 266c C3C68CE2 		add	ip, ip, #204472320
 5895 2670 C30680E2 		add	r0, r0, #204472320
 5896 2674 0A7C87E2 		add	r7, r7, #2560
 5897 2678 0A6C86E2 		add	r6, r6, #2560
 5898 267c 0A9C89E2 		add	r9, r9, #2560
 5899 2680 A440A0E1 		mov	r4, r4, lsr #1
 5900 2684 C31681E2 		add	r1, r1, #204472320
 5901 2688 963C8CE2 		add	r3, ip, #38400
 5902 268c A770A0E1 		mov	r7, r7, lsr #1
 5903 2690 C34684E2 		add	r4, r4, #204472320
 5904 2694 96CC80E2 		add	ip, r0, #38400
 5905 2698 A660A0E1 		mov	r6, r6, lsr #1
 5906 269c A990A0E1 		mov	r9, r9, lsr #1
 5907 26a0 C35685E2 		add	r5, r5, #204472320
 5908 26a4 960C81E2 		add	r0, r1, #38400
 5909 26a8 C3A687E2 		add	sl, r7, #204472320
 5910 26ac C36686E2 		add	r6, r6, #204472320
 5911 26b0 967C84E2 		add	r7, r4, #38400
 5912 26b4 C39689E2 		add	r9, r9, #204472320
 5913 26b8 964C85E2 		add	r4, r5, #38400
 5914 26bc 08308DE5 		str	r3, [sp, #8]
 5915 26c0 0CC08DE5 		str	ip, [sp, #12]
 5916 26c4 10008DE5 		str	r0, [sp, #16]
 5917 26c8 00808DE5 		str	r8, [sp, #0]
 5918 26cc 18309DE5 		ldr	r3, [sp, #24]
 5919 26d0 04708DE5 		str	r7, [sp, #4]
 5920 26d4 14408DE5 		str	r4, [sp, #20]
 5921 26d8 96AC8AE2 		add	sl, sl, #38400
 5922 26dc 966C86E2 		add	r6, r6, #38400
 5923 26e0 969C89E2 		add	r9, r9, #38400
 5924 26e4 0F42A0E3 		mov	r4, #-268435456
 5925 26e8 0870A0E1 		mov	r7, r8
 5926              	.LVL304:
 5927              	.L298:
 407:../lcd.c      **** void Lcd_DspAscII6x8(INT16U usX0, INT16U usY0,INT8U ForeColor, INT8U* pucChar)
 5928              		.loc 1 407 0
 5929 26ec 1C708DE5 		str	r7, [sp, #28]
 421:../lcd.c      ****   					LCD_PutPixel(usX0 + i, usY0 + 8 - j, (INT8U)ForeColor);
 5930              		.loc 1 421 0
 5931 26f0 0300E0E1 		mvn	r0, r3
 408:../lcd.c      **** {
 5932              		.loc 1 408 0
 5933 26f4 00C0A0E3 		mov	ip, #0
 5934              	.LVL305:
 5935              	.L297:
 416:../lcd.c      ****   			ucTemp = g_auc_Ascii6x8[(*pucChar) * 8 + i];
 5936              		.loc 1 416 0
 5937 26f8 00509DE5 		ldr	r5, [sp, #0]
 5938 26fc 0070D5E5 		ldrb	r7, [r5, #0]	@ zero_extendqisi2
 5939 2700 87118CE0 		add	r1, ip, r7, asl #3
 419:../lcd.c      ****   				if( (ucTemp & (0x80 >> j)) != 0 )
 5940              		.loc 1 419 0
 5941 2704 E0719FE5 		ldr	r7, .L300
 5942 2708 0110D7E7 		ldrb	r1, [r7, r1]	@ zero_extendqisi2
 5943 270c 800011E3 		tst	r1, #128
 5944 2710 0800000A 		beq	.L289
 421:../lcd.c      ****   					LCD_PutPixel(usX0 + i, usY0 + 8 - j, (INT8U)ForeColor);
 5945              		.loc 1 421 0
 5946 2714 A351A0E1 		mov	r5, r3, lsr #3
 5947 2718 05819AE7 		ldr	r8, [sl, r5, asl #2]
 5948 271c 077003E2 		and	r7, r3, #7
 5949 2720 0771A0E1 		mov	r7, r7, asl #2
 5950 2724 3477C8E1 		bic	r7, r8, r4, lsr r7
 5951 2728 078000E2 		and	r8, r0, #7
 5952 272c 0881A0E1 		mov	r8, r8, asl #2
 5953 2730 127887E1 		orr	r7, r7, r2, asl r8
 5954 2734 05718AE7 		str	r7, [sl, r5, asl #2]
 5955              	.L289:
 5956              	.LVL306:
 419:../lcd.c      ****   				if( (ucTemp & (0x80 >> j)) != 0 )
 5957              		.loc 1 419 0
 5958 2738 400011E3 		tst	r1, #64
 5959 273c 0800000A 		beq	.L290
 421:../lcd.c      ****   					LCD_PutPixel(usX0 + i, usY0 + 8 - j, (INT8U)ForeColor);
 5960              		.loc 1 421 0
 5961 2740 A351A0E1 		mov	r5, r3, lsr #3
 5962 2744 058196E7 		ldr	r8, [r6, r5, asl #2]
 5963 2748 077003E2 		and	r7, r3, #7
 5964 274c 0771A0E1 		mov	r7, r7, asl #2
 5965 2750 3477C8E1 		bic	r7, r8, r4, lsr r7
 5966 2754 078000E2 		and	r8, r0, #7
 5967 2758 0881A0E1 		mov	r8, r8, asl #2
 5968 275c 127887E1 		orr	r7, r7, r2, asl r8
 5969 2760 057186E7 		str	r7, [r6, r5, asl #2]
 5970              	.L290:
 5971              	.LVL307:
 419:../lcd.c      ****   				if( (ucTemp & (0x80 >> j)) != 0 )
 5972              		.loc 1 419 0
 5973 2764 200011E3 		tst	r1, #32
 5974 2768 0800000A 		beq	.L291
 421:../lcd.c      ****   					LCD_PutPixel(usX0 + i, usY0 + 8 - j, (INT8U)ForeColor);
 5975              		.loc 1 421 0
 5976 276c A351A0E1 		mov	r5, r3, lsr #3
 5977 2770 058199E7 		ldr	r8, [r9, r5, asl #2]
 5978 2774 077003E2 		and	r7, r3, #7
 5979 2778 0771A0E1 		mov	r7, r7, asl #2
 5980 277c 3477C8E1 		bic	r7, r8, r4, lsr r7
 5981 2780 078000E2 		and	r8, r0, #7
 5982 2784 0881A0E1 		mov	r8, r8, asl #2
 5983 2788 127887E1 		orr	r7, r7, r2, asl r8
 5984 278c 057189E7 		str	r7, [r9, r5, asl #2]
 5985              	.L291:
 5986              	.LVL308:
 419:../lcd.c      ****   				if( (ucTemp & (0x80 >> j)) != 0 )
 5987              		.loc 1 419 0
 5988 2790 100011E3 		tst	r1, #16
 5989 2794 0A00000A 		beq	.L292
 421:../lcd.c      ****   					LCD_PutPixel(usX0 + i, usY0 + 8 - j, (INT8U)ForeColor);
 5990              		.loc 1 421 0
 5991 2798 04809DE5 		ldr	r8, [sp, #4]
 5992 279c A351A0E1 		mov	r5, r3, lsr #3
 5993 27a0 058198E7 		ldr	r8, [r8, r5, asl #2]
 5994 27a4 077003E2 		and	r7, r3, #7
 5995 27a8 0771A0E1 		mov	r7, r7, asl #2
 5996 27ac 3477C8E1 		bic	r7, r8, r4, lsr r7
 5997 27b0 078000E2 		and	r8, r0, #7
 5998 27b4 0881A0E1 		mov	r8, r8, asl #2
 5999 27b8 127887E1 		orr	r7, r7, r2, asl r8
 6000 27bc 04809DE5 		ldr	r8, [sp, #4]
 6001 27c0 057188E7 		str	r7, [r8, r5, asl #2]
 6002              	.L292:
 6003              	.LVL309:
 419:../lcd.c      ****   				if( (ucTemp & (0x80 >> j)) != 0 )
 6004              		.loc 1 419 0
 6005 27c4 080011E3 		tst	r1, #8
 6006 27c8 0A00000A 		beq	.L293
 421:../lcd.c      ****   					LCD_PutPixel(usX0 + i, usY0 + 8 - j, (INT8U)ForeColor);
 6007              		.loc 1 421 0
 6008 27cc 08809DE5 		ldr	r8, [sp, #8]
 6009 27d0 A351A0E1 		mov	r5, r3, lsr #3
 6010 27d4 058198E7 		ldr	r8, [r8, r5, asl #2]
 6011 27d8 077003E2 		and	r7, r3, #7
 6012 27dc 0771A0E1 		mov	r7, r7, asl #2
 6013 27e0 3477C8E1 		bic	r7, r8, r4, lsr r7
 6014 27e4 078000E2 		and	r8, r0, #7
 6015 27e8 0881A0E1 		mov	r8, r8, asl #2
 6016 27ec 127887E1 		orr	r7, r7, r2, asl r8
 6017 27f0 08809DE5 		ldr	r8, [sp, #8]
 6018 27f4 057188E7 		str	r7, [r8, r5, asl #2]
 6019              	.L293:
 6020              	.LVL310:
 419:../lcd.c      ****   				if( (ucTemp & (0x80 >> j)) != 0 )
 6021              		.loc 1 419 0
 6022 27f8 040011E3 		tst	r1, #4
 6023 27fc 0A00000A 		beq	.L294
 421:../lcd.c      ****   					LCD_PutPixel(usX0 + i, usY0 + 8 - j, (INT8U)ForeColor);
 6024              		.loc 1 421 0
 6025 2800 0C809DE5 		ldr	r8, [sp, #12]
 6026 2804 A351A0E1 		mov	r5, r3, lsr #3
 6027 2808 058198E7 		ldr	r8, [r8, r5, asl #2]
 6028 280c 077003E2 		and	r7, r3, #7
 6029 2810 0771A0E1 		mov	r7, r7, asl #2
 6030 2814 3477C8E1 		bic	r7, r8, r4, lsr r7
 6031 2818 078000E2 		and	r8, r0, #7
 6032 281c 0881A0E1 		mov	r8, r8, asl #2
 6033 2820 127887E1 		orr	r7, r7, r2, asl r8
 6034 2824 0C809DE5 		ldr	r8, [sp, #12]
 6035 2828 057188E7 		str	r7, [r8, r5, asl #2]
 6036              	.L294:
 6037              	.LVL311:
 419:../lcd.c      ****   				if( (ucTemp & (0x80 >> j)) != 0 )
 6038              		.loc 1 419 0
 6039 282c 020011E3 		tst	r1, #2
 6040 2830 0A00000A 		beq	.L295
 421:../lcd.c      ****   					LCD_PutPixel(usX0 + i, usY0 + 8 - j, (INT8U)ForeColor);
 6041              		.loc 1 421 0
 6042 2834 10809DE5 		ldr	r8, [sp, #16]
 6043 2838 A351A0E1 		mov	r5, r3, lsr #3
 6044 283c 058198E7 		ldr	r8, [r8, r5, asl #2]
 6045 2840 077003E2 		and	r7, r3, #7
 6046 2844 0771A0E1 		mov	r7, r7, asl #2
 6047 2848 3477C8E1 		bic	r7, r8, r4, lsr r7
 6048 284c 078000E2 		and	r8, r0, #7
 6049 2850 0881A0E1 		mov	r8, r8, asl #2
 6050 2854 127887E1 		orr	r7, r7, r2, asl r8
 6051 2858 10809DE5 		ldr	r8, [sp, #16]
 6052 285c 057188E7 		str	r7, [r8, r5, asl #2]
 6053              	.L295:
 6054              	.LVL312:
 419:../lcd.c      ****   				if( (ucTemp & (0x80 >> j)) != 0 )
 6055              		.loc 1 419 0
 6056 2860 010011E3 		tst	r1, #1
 6057 2864 0A00000A 		beq	.L296
 421:../lcd.c      ****   					LCD_PutPixel(usX0 + i, usY0 + 8 - j, (INT8U)ForeColor);
 6058              		.loc 1 421 0
 6059 2868 14509DE5 		ldr	r5, [sp, #20]
 6060 286c A311A0E1 		mov	r1, r3, lsr #3
 6061 2870 017195E7 		ldr	r7, [r5, r1, asl #2]
 6062 2874 078003E2 		and	r8, r3, #7
 6063 2878 0851A0E1 		mov	r5, r8, asl #2
 6064 287c 3455C7E1 		bic	r5, r7, r4, lsr r5
 6065 2880 078000E2 		and	r8, r0, #7
 6066 2884 0871A0E1 		mov	r7, r8, asl #2
 6067 2888 125785E1 		orr	r5, r5, r2, asl r7
 6068 288c 14709DE5 		ldr	r7, [sp, #20]
 6069 2890 015187E7 		str	r5, [r7, r1, asl #2]
 6070              	.L296:
 6071              	.LVL313:
 414:../lcd.c      **** 		for( i=0; i < 8; i++ )
 6072              		.loc 1 414 0
 6073 2894 01C08CE2 		add	ip, ip, #1
 6074              	.LVL314:
 6075 2898 08005CE3 		cmp	ip, #8
 6076 289c 013083E2 		add	r3, r3, #1
 6077 28a0 010040E2 		sub	r0, r0, #1
 6078 28a4 93FFFF1A 		bne	.L297
 6079              	.LVL315:
 412:../lcd.c      **** 	while( *pucChar != 0 )
 6080              		.loc 1 412 0
 6081 28a8 1C809DE5 		ldr	r8, [sp, #28]
 414:../lcd.c      **** 		for( i=0; i < 8; i++ )
 6082              		.loc 1 414 0
 6083 28ac 00C09DE5 		ldr	ip, [sp, #0]
 6084              	.LVL316:
 412:../lcd.c      **** 	while( *pucChar != 0 )
 6085              		.loc 1 412 0
 6086 28b0 0130D8E5 		ldrb	r3, [r8, #1]	@ zero_extendqisi2
 414:../lcd.c      **** 		for( i=0; i < 8; i++ )
 6087              		.loc 1 414 0
 6088 28b4 01008CE2 		add	r0, ip, #1
 412:../lcd.c      **** 	while( *pucChar != 0 )
 6089              		.loc 1 412 0
 6090 28b8 000053E3 		cmp	r3, #0
 414:../lcd.c      **** 		for( i=0; i < 8; i++ )
 6091              		.loc 1 414 0
 6092 28bc 00008DE5 		str	r0, [sp, #0]
 412:../lcd.c      **** 	while( *pucChar != 0 )
 6093              		.loc 1 412 0
 6094 28c0 0600000A 		beq	.L286
 425:../lcd.c      **** 		usX0 += XWIDTH;
 6095              		.loc 1 425 0
 6096 28c4 18809DE5 		ldr	r8, [sp, #24]
 6097 28c8 067088E2 		add	r7, r8, #6
 6098 28cc 0718A0E1 		mov	r1, r7, asl #16
 6099 28d0 2138A0E1 		mov	r3, r1, lsr #16
 6100 28d4 18308DE5 		str	r3, [sp, #24]
 6101 28d8 00709DE5 		ldr	r7, [sp, #0]
 6102 28dc 82FFFFEA 		b	.L298
 6103              	.LVL317:
 6104              	.L286:
 428:../lcd.c      **** }
 6105              		.loc 1 428 0
 6106 28e0 24D08DE2 		add	sp, sp, #36
 6107 28e4 F007BDE8 		ldmfd	sp!, {r4, r5, r6, r7, r8, r9, sl}
 6108 28e8 1EFF2FE1 		bx	lr
 6109              	.L301:
 6110              		.align	2
 6111              	.L300:
 6112 28ec 00000000 		.word	g_auc_Ascii6x8
 6113              		.cfi_endproc
 6114              	.LFE11:
 6116              		.align	2
 6117              		.global	ReverseLine
 6119              	ReverseLine:
 6120              	.LFB12:
 441:../lcd.c      **** {
 6121              		.loc 1 441 0
 6122              		.cfi_startproc
 6123              		@ Function supports interworking.
 6124              		@ args = 0, pretend = 0, frame = 0
 6125              		@ frame_needed = 0, uses_anonymous_args = 0
 6126              		@ link register save eliminated.
 6127              	.LVL318:
 444:../lcd.c      **** 	for( i = 0; i < ulHeight; i++ )
 6128              		.loc 1 444 0
 6129 28f0 000050E3 		cmp	r0, #0
 453:../lcd.c      **** }
 6130              		.loc 1 453 0
 6131 28f4 01118110 		addne	r1, r1, r1, asl #2
 6132              	.LVL319:
 441:../lcd.c      **** {
 6133              		.loc 1 441 0
 6134 28f8 30002DE9 		stmfd	sp!, {r4, r5}
 6135              	.LCFI15:
 6136              		.cfi_def_cfa_offset 8
 453:../lcd.c      **** }
 6137              		.loc 1 453 0
 6138 28fc 0153A011 		movne	r5, r1, asl #6
 6139              		.cfi_offset 5, -4
 6140              		.cfi_offset 4, -8
 444:../lcd.c      **** 	for( i = 0; i < ulHeight; i++ )
 6141              		.loc 1 444 0
 6142 2900 0040A013 		movne	r4, #0
 6143 2904 1800000A 		beq	.L302
 6144              	.LVL320:
 6145              	.L306:
 453:../lcd.c      **** }
 6146              		.loc 1 453 0
 6147 2908 A520A0E1 		mov	r2, r5, lsr #1
 440:../lcd.c      **** void ReverseLine(INT32U ulHeight, INT32U ulY)
 6148              		.loc 1 440 0
 6149 290c 60C09FE5 		ldr	ip, .L312
 453:../lcd.c      **** }
 6150              		.loc 1 453 0
 6151 2910 C33682E2 		add	r3, r2, #204472320
 6152 2914 963C83E2 		add	r3, r3, #38400
 440:../lcd.c      **** void ReverseLine(INT32U ulHeight, INT32U ulY)
 6153              		.loc 1 440 0
 6154 2918 0CC082E0 		add	ip, r2, ip
 6155              	.LVL321:
 6156              	.L305:
 448:../lcd.c      **** 			temp = *(INT32U*)(LCD_VIRTUAL_BUFFER + (ulY+i)*SCR_XSIZE/2 + j*4);
 6157              		.loc 1 448 0 discriminator 2
 6158 291c 001093E5 		ldr	r1, [r3, #0]
 6159 2920 0320A0E1 		mov	r2, r3
 6160              	.LVL322:
 449:../lcd.c      **** 			temp ^= 0xFFFFFFFF;
 6161              		.loc 1 449 0 discriminator 2
 6162 2924 0110E0E1 		mvn	r1, r1
 450:../lcd.c      **** 			*(INT32U*)(LCD_VIRTUAL_BUFFER + (ulY+i)*SCR_XSIZE/2 + j*4) = temp;
 6163              		.loc 1 450 0 discriminator 2
 6164 2928 041082E4 		str	r1, [r2], #4
 6165              	.LVL323:
 448:../lcd.c      **** 			temp = *(INT32U*)(LCD_VIRTUAL_BUFFER + (ulY+i)*SCR_XSIZE/2 + j*4);
 6166              		.loc 1 448 0 discriminator 2
 6167 292c 041093E5 		ldr	r1, [r3, #4]
 449:../lcd.c      **** 			temp ^= 0xFFFFFFFF;
 6168              		.loc 1 449 0 discriminator 2
 6169 2930 0110E0E1 		mvn	r1, r1
 450:../lcd.c      **** 			*(INT32U*)(LCD_VIRTUAL_BUFFER + (ulY+i)*SCR_XSIZE/2 + j*4) = temp;
 6170              		.loc 1 450 0 discriminator 2
 6171 2934 001082E5 		str	r1, [r2, #0]
 448:../lcd.c      **** 			temp = *(INT32U*)(LCD_VIRTUAL_BUFFER + (ulY+i)*SCR_XSIZE/2 + j*4);
 6172              		.loc 1 448 0 discriminator 2
 6173 2938 041092E5 		ldr	r1, [r2, #4]
 6174 293c 0C2093E5 		ldr	r2, [r3, #12]
 449:../lcd.c      **** 			temp ^= 0xFFFFFFFF;
 6175              		.loc 1 449 0 discriminator 2
 6176 2940 0110E0E1 		mvn	r1, r1
 450:../lcd.c      **** 			*(INT32U*)(LCD_VIRTUAL_BUFFER + (ulY+i)*SCR_XSIZE/2 + j*4) = temp;
 6177              		.loc 1 450 0 discriminator 2
 6178 2944 081083E5 		str	r1, [r3, #8]
 448:../lcd.c      **** 			temp = *(INT32U*)(LCD_VIRTUAL_BUFFER + (ulY+i)*SCR_XSIZE/2 + j*4);
 6179              		.loc 1 448 0 discriminator 2
 6180 2948 103083E2 		add	r3, r3, #16
 449:../lcd.c      **** 			temp ^= 0xFFFFFFFF;
 6181              		.loc 1 449 0 discriminator 2
 6182 294c 0220E0E1 		mvn	r2, r2
 446:../lcd.c      **** 		for( j = 0; j < (SCR_XSIZE/4/2) ; j++ )
 6183              		.loc 1 446 0 discriminator 2
 6184 2950 0C0053E1 		cmp	r3, ip
 450:../lcd.c      **** 			*(INT32U*)(LCD_VIRTUAL_BUFFER + (ulY+i)*SCR_XSIZE/2 + j*4) = temp;
 6185              		.loc 1 450 0 discriminator 2
 6186 2954 042003E5 		str	r2, [r3, #-4]
 446:../lcd.c      **** 		for( j = 0; j < (SCR_XSIZE/4/2) ; j++ )
 6187              		.loc 1 446 0 discriminator 2
 6188 2958 EFFFFF1A 		bne	.L305
 444:../lcd.c      **** 	for( i = 0; i < ulHeight; i++ )
 6189              		.loc 1 444 0
 6190 295c 014084E2 		add	r4, r4, #1
 6191              	.LVL324:
 6192 2960 000054E1 		cmp	r4, r0
 6193 2964 055D85E2 		add	r5, r5, #320
 6194 2968 E6FFFF1A 		bne	.L306
 6195              	.LVL325:
 6196              	.L302:
 453:../lcd.c      **** }
 6197              		.loc 1 453 0
 6198 296c 3000BDE8 		ldmfd	sp!, {r4, r5}
 6199 2970 1EFF2FE1 		bx	lr
 6200              	.L313:
 6201              		.align	2
 6202              	.L312:
 6203 2974 A096300C 		.word	204510880
 6204              		.cfi_endproc
 6205              	.LFE12:
 6207              		.align	2
 6208              		.global	Lcd_Dma_Trans
 6210              	Lcd_Dma_Trans:
 6211              	.LFB14:
 472:../lcd.c      **** 
 473:../lcd.c      **** /*********************************************************************************************
 474:../lcd.c      **** * name:		Lcd_Dma_Trans()
 475:../lcd.c      **** * func:		dma transport virtual LCD screen to LCD actual screen
 476:../lcd.c      **** * para:		none
 477:../lcd.c      **** * ret:		none
 478:../lcd.c      **** * modify:
 479:../lcd.c      **** * comment:		
 480:../lcd.c      **** *********************************************************************************************/
 481:../lcd.c      **** void Lcd_Dma_Trans(void)
 482:../lcd.c      **** {
 6212              		.loc 1 482 0
 6213              		.cfi_startproc
 6214              		@ Function supports interworking.
 6215              		@ args = 0, pretend = 0, frame = 0
 6216              		@ frame_needed = 0, uses_anonymous_args = 0
 6217              		@ link register save eliminated.
 483:../lcd.c      **** 	INT8U err;
 484:../lcd.c      **** 	
 485:../lcd.c      **** 	//#define LCD_VIRTUAL_BUFFER	(0xc400000)
 486:../lcd.c      **** 	//#define LCD_ACTIVE_BUFFER	(LCD_VIRTUAL_BUFFER+(SCR_XSIZE*SCR_YSIZE/2))	//DMA ON
 487:../lcd.c      **** 	//#define LCD_ACTIVE_BUFFER	LCD_VIRTUAL_BUFFER								//DMA OFF
 488:../lcd.c      **** 	//#define LCD_BUF_SIZE		(SCR_XSIZE*SCR_YSIZE/2)
 489:../lcd.c      **** 	//So the Lcd Buffer Low area is from LCD_VIRTUAL_BUFFER to (LCD_ACTIVE_BUFFER+(SCR_XSIZE*SCR_YSIZE
 490:../lcd.c      **** 	rNCACHBE1=(((unsigned)(LCD_ACTIVE_BUFFER)>>12) <<16 )|((unsigned)(LCD_VIRTUAL_BUFFER)>>12);
 6218              		.loc 1 490 0
 6219 2978 38109FE5 		ldr	r1, .L315
 6220 297c 07C5A0E3 		mov	ip, #29360128
 6221 2980 08108CE5 		str	r1, [ip, #8]
 491:../lcd.c      ****   	rZDISRC0=(DW<<30)|(1<<28)     |LCD_VIRTUAL_BUFFER; // inc
 6222              		.loc 1 491 0
 6223 2984 30009FE5 		ldr	r0, .L315+4
 492:../lcd.c      ****   	rZDIDES0=( 2<<30)|(1<<28)     |LCD_ACTIVE_BUFFER; // inc
 6224              		.loc 1 492 0
 6225 2988 30209FE5 		ldr	r2, .L315+8
 493:../lcd.c      ****     rZDICNT0=( 2<<28)|(1<<26)     |(3<<22)     |(0<<20)      |(LCD_BUF_SIZE);
 6226              		.loc 1 493 0
 6227 298c 30C09FE5 		ldr	ip, .L315+12
 491:../lcd.c      ****   	rZDISRC0=(DW<<30)|(1<<28)     |LCD_VIRTUAL_BUFFER; // inc
 6228              		.loc 1 491 0
 6229 2990 7A37A0E3 		mov	r3, #31981568
 6230 2994 040083E5 		str	r0, [r3, #4]
 492:../lcd.c      ****   	rZDIDES0=( 2<<30)|(1<<28)     |LCD_ACTIVE_BUFFER; // inc
 6231              		.loc 1 492 0
 6232 2998 082083E5 		str	r2, [r3, #8]
 6233              		.loc 1 493 0
 6234 299c 0CC083E5 		str	ip, [r3, #12]
 494:../lcd.c      ****         //           |            |            |             |            |---->0 = Disable DMA
 495:../lcd.c      ****         //           |            |            |             |------------>Int. whenever transferre
 496:../lcd.c      ****         //           |            |            |-------------------->Write time on the fly
 497:../lcd.c      ****         //           |            |---------------------------->Block(4-word) transfer mode
 498:../lcd.c      ****         //           |------------------------------------>whole service
 499:../lcd.c      **** 	    //reEnable ZDMA transfer
 500:../lcd.c      ****   	rZDICNT0 |= (1<<20);		//after ES3
 6235              		.loc 1 500 0
 6236 29a0 0C1093E5 		ldr	r1, [r3, #12]
 501:../lcd.c      ****     rZDCON0=0x1; // start!!!  
 6237              		.loc 1 501 0
 6238 29a4 0120A0E3 		mov	r2, #1
 500:../lcd.c      ****   	rZDICNT0 |= (1<<20);		//after ES3
 6239              		.loc 1 500 0
 6240 29a8 010681E3 		orr	r0, r1, #1048576
 6241 29ac 0C0083E5 		str	r0, [r3, #12]
 6242              		.loc 1 501 0
 6243 29b0 002083E5 		str	r2, [r3, #0]
 502:../lcd.c      **** }
 6244              		.loc 1 502 0
 6245 29b4 1EFF2FE1 		bx	lr
 6246              	.L316:
 6247              		.align	2
 6248              	.L315:
 6249 29b8 09C300C3 		.word	-1023360247
 6250 29bc 0096301C 		.word	472946176
 6251 29c0 0000309C 		.word	-1674575872
 6252 29c4 0096C024 		.word	616601088
 6253              		.cfi_endproc
 6254              	.LFE14:
 6256              		.align	2
 6257              		.global	Lcd_Test
 6259              	Lcd_Test:
 6260              	.LFB15:
 503:../lcd.c      **** 
 504:../lcd.c      **** /*********************************************************************************************
 505:../lcd.c      **** * name:		Lcd_Test()
 506:../lcd.c      **** * func:		LCD test function
 507:../lcd.c      **** * para:		none
 508:../lcd.c      **** * ret:		none
 509:../lcd.c      **** * modify:
 510:../lcd.c      **** * comment:		
 511:../lcd.c      **** *********************************************************************************************/
 512:../lcd.c      **** void Lcd_Test(void)
 513:../lcd.c      **** {
 6261              		.loc 1 513 0
 6262              		.cfi_startproc
 6263              		@ Function supports interworking.
 6264              		@ args = 0, pretend = 0, frame = 200
 6265              		@ frame_needed = 1, uses_anonymous_args = 0
 6266 29c8 0DC0A0E1 		mov	ip, sp
 6267              	.LCFI16:
 6268              		.cfi_def_cfa_register 12
 6269 29cc F0DF2DE9 		stmfd	sp!, {r4, r5, r6, r7, r8, r9, sl, fp, ip, lr, pc}
 6270              	.LBB176:
 6271              	.LBB178:
  31:../lcd.c      **** 	rDP1_2 =0x5a5a;      
 6272              		.loc 1 31 0
 6273 29d0 CC2F9FE5 		ldr	r2, .L678
 6274              	.LBE178:
 6275              	.LBE176:
 6276              		.loc 1 513 0
 6277 29d4 04B04CE2 		sub	fp, ip, #4
 6278              		.cfi_offset 14, -8
 6279              		.cfi_offset 13, -12
 6280              		.cfi_offset 11, -16
 6281              		.cfi_offset 10, -20
 6282              		.cfi_offset 9, -24
 6283              		.cfi_offset 8, -28
 6284              		.cfi_offset 7, -32
 6285              		.cfi_offset 6, -36
 6286              		.cfi_offset 5, -40
 6287              		.cfi_offset 4, -44
 6288              	.LCFI17:
 6289              		.cfi_def_cfa 11, 4
 6290              	.LBB181:
 6291              	.LBB179:
  30:../lcd.c      **** 	rDITHMODE=0x1223a;
 6292              		.loc 1 30 0
 6293 29d8 C86F9FE5 		ldr	r6, .L678+4
  32:../lcd.c      **** 	rDP4_7 =0x366cd9b;
 6294              		.loc 1 32 0
 6295 29dc C8EF9FE5 		ldr	lr, .L678+8
  33:../lcd.c      **** 	rDP3_5 =0xda5a7;
 6296              		.loc 1 33 0
 6297 29e0 C8CF9FE5 		ldr	ip, .L678+12
  34:../lcd.c      **** 	rDP2_3 =0xad7;
 6298              		.loc 1 34 0
 6299 29e4 C89F9FE5 		ldr	r9, .L678+16
  30:../lcd.c      **** 	rDITHMODE=0x1223a;
 6300              		.loc 1 30 0
 6301 29e8 1FA6A0E3 		mov	sl, #32505856
 6302              	.LBE179:
 6303              	.LBE181:
 6304              		.loc 1 513 0
 6305 29ec D4D04DE2 		sub	sp, sp, #212
 6306              	.LBB182:
 6307              	.LBB177:
  35:../lcd.c      **** 	rDP5_7 =0xfeda5b7;
 6308              		.loc 1 35 0
 6309 29f0 C08F9FE5 		ldr	r8, .L678+20
  30:../lcd.c      **** 	rDITHMODE=0x1223a;
 6310              		.loc 1 30 0
 6311 29f4 44608AE5 		str	r6, [sl, #68]
  36:../lcd.c      **** 	rDP3_4 =0xebd7;
 6312              		.loc 1 36 0
 6313 29f8 BC7F9FE5 		ldr	r7, .L678+24
  31:../lcd.c      **** 	rDP1_2 =0x5a5a;      
 6314              		.loc 1 31 0
 6315 29fc 20208AE5 		str	r2, [sl, #32]
  37:../lcd.c      **** 	rDP4_5 =0xebfd7;
 6316              		.loc 1 37 0
 6317 2a00 B85F9FE5 		ldr	r5, .L678+28
  32:../lcd.c      **** 	rDP4_7 =0x366cd9b;
 6318              		.loc 1 32 0
 6319 2a04 24E08AE5 		str	lr, [sl, #36]
  38:../lcd.c      **** 	rDP6_7 =0x7efdfbf;
 6320              		.loc 1 38 0
 6321 2a08 B44F9FE5 		ldr	r4, .L678+32
  33:../lcd.c      **** 	rDP3_5 =0xda5a7;
 6322              		.loc 1 33 0
 6323 2a0c 28C08AE5 		str	ip, [sl, #40]
  40:../lcd.c      **** 	rLCDCON1=(0)|(1<<5)|(MVAL_USED<<7)|(0x0<<8)|(0x0<<10)|(CLKVAL_GREY16<<12);
 6324              		.loc 1 40 0
 6325 2a10 B01F9FE5 		ldr	r1, .L678+36
  34:../lcd.c      **** 	rDP2_3 =0xad7;
 6326              		.loc 1 34 0
 6327 2a14 2C908AE5 		str	r9, [sl, #44]
  41:../lcd.c      **** 	rLCDCON2=(LINEVAL)|(HOZVAL<<10)|(10<<21); 
 6328              		.loc 1 41 0
 6329 2a18 AC0F9FE5 		ldr	r0, .L678+40
  42:../lcd.c      **** 	rLCDSADDR1= (0x2<<27) | ( ((LCD_ACTIVE_BUFFER>>22)<<21 ) | M5D(LCD_ACTIVE_BUFFER>>1));
 6330              		.loc 1 42 0
 6331 2a1c AC3F9FE5 		ldr	r3, .L678+44
  43:../lcd.c      ****  	rLCDSADDR2= M5D(((LCD_ACTIVE_BUFFER+(SCR_XSIZE*LCD_YSIZE/2))>>1)) | (MVAL<<21);
 6332              		.loc 1 43 0
 6333 2a20 AC2F9FE5 		ldr	r2, .L678+48
  46:../lcd.c      **** 	rLCDCON1=(1)|(1<<5)|(MVAL_USED<<7)|(0x3<<8)|(0x3<<10)|(CLKVAL_GREY16<<12);
 6334              		.loc 1 46 0
 6335 2a24 ACCF9FE5 		ldr	ip, .L678+52
  47:../lcd.c      **** 	rBLUELUT=0xfa40;
 6336              		.loc 1 47 0
 6337 2a28 AC9F9FE5 		ldr	r9, .L678+56
  44:../lcd.c      **** 	rLCDSADDR3= (LCD_XSIZE/4) | ( ((SCR_XSIZE-LCD_XSIZE)/4)<<9 );
 6338              		.loc 1 44 0
 6339 2a2c 50E0A0E3 		mov	lr, #80
  35:../lcd.c      **** 	rDP5_7 =0xfeda5b7;
 6340              		.loc 1 35 0
 6341 2a30 30808AE5 		str	r8, [sl, #48]
  49:../lcd.c      **** 	rPDATE=rPDATE&0x0e;
 6342              		.loc 1 49 0
 6343 2a34 A46F9FE5 		ldr	r6, .L678+60
  36:../lcd.c      **** 	rDP3_4 =0xebd7;
 6344              		.loc 1 36 0
 6345 2a38 34708AE5 		str	r7, [sl, #52]
  37:../lcd.c      **** 	rDP4_5 =0xebfd7;
 6346              		.loc 1 37 0
 6347 2a3c 38508AE5 		str	r5, [sl, #56]
  38:../lcd.c      **** 	rDP6_7 =0x7efdfbf;
 6348              		.loc 1 38 0
 6349 2a40 3C408AE5 		str	r4, [sl, #60]
  40:../lcd.c      **** 	rLCDCON1=(0)|(1<<5)|(MVAL_USED<<7)|(0x0<<8)|(0x0<<10)|(CLKVAL_GREY16<<12);
 6350              		.loc 1 40 0
 6351 2a44 00108AE5 		str	r1, [sl, #0]
  41:../lcd.c      **** 	rLCDCON2=(LINEVAL)|(HOZVAL<<10)|(10<<21); 
 6352              		.loc 1 41 0
 6353 2a48 04008AE5 		str	r0, [sl, #4]
  42:../lcd.c      **** 	rLCDSADDR1= (0x2<<27) | ( ((LCD_ACTIVE_BUFFER>>22)<<21 ) | M5D(LCD_ACTIVE_BUFFER>>1));
 6354              		.loc 1 42 0
 6355 2a4c 08308AE5 		str	r3, [sl, #8]
  43:../lcd.c      ****  	rLCDSADDR2= M5D(((LCD_ACTIVE_BUFFER+(SCR_XSIZE*LCD_YSIZE/2))>>1)) | (MVAL<<21);
 6356              		.loc 1 43 0
 6357 2a50 0C208AE5 		str	r2, [sl, #12]
  44:../lcd.c      **** 	rLCDSADDR3= (LCD_XSIZE/4) | ( ((SCR_XSIZE-LCD_XSIZE)/4)<<9 );
 6358              		.loc 1 44 0
 6359 2a54 10E08AE5 		str	lr, [sl, #16]
  46:../lcd.c      **** 	rLCDCON1=(1)|(1<<5)|(MVAL_USED<<7)|(0x3<<8)|(0x3<<10)|(CLKVAL_GREY16<<12);
 6360              		.loc 1 46 0
 6361 2a58 00C08AE5 		str	ip, [sl, #0]
  47:../lcd.c      **** 	rBLUELUT=0xfa40;
 6362              		.loc 1 47 0
 6363 2a5c 1C908AE5 		str	r9, [sl, #28]
  49:../lcd.c      **** 	rPDATE=rPDATE&0x0e;
 6364              		.loc 1 49 0
 6365 2a60 2C8096E5 		ldr	r8, [r6, #44]
 6366 2a64 0E7008E2 		and	r7, r8, #14
 6367 2a68 2C7086E5 		str	r7, [r6, #44]
  52:../lcd.c      **** 	rINTMSK &= ~(BIT_GLOBAL|BIT_ZDMA0);
 6368              		.loc 1 52 0
 6369 2a6c 1E16A0E3 		mov	r1, #31457280
 6370 2a70 0C5091E5 		ldr	r5, [r1, #12]
  53:../lcd.c      ****     pISR_ZDMA0=(int)Zdma0Done;
 6371              		.loc 1 53 0
 6372 2a74 682F9FE5 		ldr	r2, .L678+64
 6373 2a78 683F9FE5 		ldr	r3, .L678+68
  52:../lcd.c      **** 	rINTMSK &= ~(BIT_GLOBAL|BIT_ZDMA0);
 6374              		.loc 1 52 0
 6375 2a7c 0143C5E3 		bic	r4, r5, #67108864
 6376 2a80 0207C4E3 		bic	r0, r4, #524288
 6377 2a84 0C0081E5 		str	r0, [r1, #12]
  53:../lcd.c      ****     pISR_ZDMA0=(int)Zdma0Done;
 6378              		.loc 1 53 0
 6379 2a88 932003E5 		str	r2, [r3, #-147]
 6380              	.LVL326:
 6381              	.LBE177:
 6382              	.LBE182:
 6383              	.LBB183:
 6384              	.LBB185:
 105:../lcd.c      **** 	for( i = 0; i < (SCR_XSIZE*SCR_YSIZE/2/4); i++ )
 6385              		.loc 1 105 0
 6386 2a8c 580F9FE5 		ldr	r0, .L678+72
 6387              	.LBE185:
 6388              	.LBE183:
 6389              	.LBB187:
 6390              	.LBB180:
 103:../lcd.c      **** 	INT32U *pDisp = (INT32U *)LCD_VIRTUAL_BUFFER;
 6391              		.loc 1 103 0
 6392 2a90 583F9FE5 		ldr	r3, .L678+76
 6393              	.LBE180:
 6394              	.LBE187:
 6395              	.LBB188:
 6396              	.LBB184:
 107:../lcd.c      **** 		*pDisp++ = WHITE;
 6397              		.loc 1 107 0
 6398 2a94 0020A0E3 		mov	r2, #0
 6399              	.LVL327:
 6400              	.L318:
 6401 2a98 03A0A0E1 		mov	sl, r3
 6402 2a9c 04208AE4 		str	r2, [sl], #4
 6403              	.LVL328:
 6404 2aa0 042083E5 		str	r2, [r3, #4]
 6405 2aa4 04208AE5 		str	r2, [sl, #4]
 6406 2aa8 0C2083E5 		str	r2, [r3, #12]
 6407 2aac 103083E2 		add	r3, r3, #16
 6408              	.LVL329:
 105:../lcd.c      **** 	for( i = 0; i < (SCR_XSIZE*SCR_YSIZE/2/4); i++ )
 6409              		.loc 1 105 0
 6410 2ab0 000053E1 		cmp	r3, r0
 6411 2ab4 F7FFFF1A 		bne	.L318
 6412              	.LBE184:
 6413              	.LBE188:
 6414              	.LBB189:
 6415              	.LBB191:
  69:../lcd.c      **** 	for( i = 0; i < (SCR_XSIZE*SCR_YSIZE/2/4); i++ )
 6416              		.loc 1 69 0
 6417 2ab8 300F9FE5 		ldr	r0, .L678+76
 6418              	.LBE191:
 6419              	.LBE189:
 6420              	.LBB193:
 6421              	.LBB186:
 105:../lcd.c      **** 	for( i = 0; i < (SCR_XSIZE*SCR_YSIZE/2/4); i++ )
 6422              		.loc 1 105 0
 6423 2abc C336A0E3 		mov	r3, #204472320
 6424              	.LVL330:
 6425              	.L319:
 6426              	.LBE186:
 6427              	.LBE193:
 6428              	.LBB194:
 6429              	.LBB190:
  71:../lcd.c      **** 		*pDisp++ = WHITE;
 6430              		.loc 1 71 0
 6431 2ac0 0310A0E1 		mov	r1, r3
 6432 2ac4 042081E4 		str	r2, [r1], #4
 6433              	.LVL331:
 6434 2ac8 042083E5 		str	r2, [r3, #4]
 6435              	.LVL332:
 6436 2acc 042081E5 		str	r2, [r1, #4]
 6437 2ad0 0C2083E5 		str	r2, [r3, #12]
 6438 2ad4 103083E2 		add	r3, r3, #16
 6439              	.LVL333:
  69:../lcd.c      **** 	for( i = 0; i < (SCR_XSIZE*SCR_YSIZE/2/4); i++ )
 6440              		.loc 1 69 0
 6441 2ad8 000053E1 		cmp	r3, r0
 6442 2adc F7FFFF1A 		bne	.L319
 6443 2ae0 0C4F9FE5 		ldr	r4, .L678+80
 6444 2ae4 0A00A0E3 		mov	r0, #10
 366:../lcd.c      **** 		if( (INT8U)*(s+i) >= 161 )
 6445              		.loc 1 366 0
 6446 2ae8 4330A0E3 		mov	r3, #67
 6447              	.LVL334:
  69:../lcd.c      **** 	for( i = 0; i < (SCR_XSIZE*SCR_YSIZE/2/4); i++ )
 6448              		.loc 1 69 0
 6449 2aec A8400BE5 		str	r4, [fp, #-168]
 6450 2af0 60000BE5 		str	r0, [fp, #-96]
 366:../lcd.c      **** 		if( (INT8U)*(s+i) >= 161 )
 6451              		.loc 1 366 0
 6452 2af4 A0300BE5 		str	r3, [fp, #-160]
 6453 2af8 3C804BE2 		sub	r8, fp, #60
 6454              	.L320:
 6455              	.LVL335:
 6456              	.LBE190:
 6457              	.LBE194:
 6458              	.LBB195:
 6459              	.LBB196:
 512:../lcd.c      **** void Lcd_Test(void)
 6460              		.loc 1 512 0
 6461 2afc 60601BE5 		ldr	r6, [fp, #-96]
 6462 2b00 60701BE5 		ldr	r7, [fp, #-96]
 6463 2b04 032086E2 		add	r2, r6, #3
 6464 2b08 010087E2 		add	r0, r7, #1
 6465 2b0c 043086E2 		add	r3, r6, #4
 6466 2b10 055086E2 		add	r5, r6, #5
 6467 2b14 064086E2 		add	r4, r6, #6
 6468 2b18 07E086E2 		add	lr, r6, #7
 389:../lcd.c      **** 			       		(LCD_PutPixel(xx, y + y0, (INT8U)ForeColor));
 6469              		.loc 1 389 0
 6470 2b1c 0698A0E1 		mov	r9, r6, asl #16
 6471 2b20 0268A0E1 		mov	r6, r2, asl #16
 6472 2b24 00A8A0E1 		mov	sl, r0, asl #16
 6473 2b28 C6CFA0E1 		mov	ip, r6, asr #31
 6474 2b2c 0308A0E1 		mov	r0, r3, asl #16
 512:../lcd.c      **** void Lcd_Test(void)
 6475              		.loc 1 512 0
 6476 2b30 021087E2 		add	r1, r7, #2
 389:../lcd.c      **** 			       		(LCD_PutPixel(xx, y + y0, (INT8U)ForeColor));
 6477              		.loc 1 389 0
 6478 2b34 50C00BE5 		str	ip, [fp, #-80]
 6479 2b38 0178A0E1 		mov	r7, r1, asl #16
 6480 2b3c C0CFA0E1 		mov	ip, r0, asr #31
 6481 2b40 0518A0E1 		mov	r1, r5, asl #16
 6482 2b44 40C00BE5 		str	ip, [fp, #-64]
 6483 2b48 0428A0E1 		mov	r2, r4, asl #16
 6484 2b4c C1CFA0E1 		mov	ip, r1, asr #31
 6485 2b50 0E38A0E1 		mov	r3, lr, asl #16
 6486 2b54 44C00BE5 		str	ip, [fp, #-68]
 6487 2b58 C2CFA0E1 		mov	ip, r2, asr #31
 6488 2b5c 48C00BE5 		str	ip, [fp, #-72]
 6489 2b60 CA4FA0E1 		mov	r4, sl, asr #31
 6490 2b64 C3CFA0E1 		mov	ip, r3, asr #31
 6491 2b68 4CC00BE5 		str	ip, [fp, #-76]
 6492 2b6c 4AA8A0E1 		mov	sl, sl, asr #16
 6493 2b70 46C8A0E1 		mov	ip, r6, asr #16
 6494 2b74 4008A0E1 		mov	r0, r0, asr #16
 6495 2b78 4268A0E1 		mov	r6, r2, asr #16
 6496 2b7c A44EA0E1 		mov	r4, r4, lsr #29
 6497 2b80 84000BE5 		str	r0, [fp, #-132]
 6498 2b84 98600BE5 		str	r6, [fp, #-152]
 6499 2b88 40001BE5 		ldr	r0, [fp, #-64]
 6500 2b8c 04608AE0 		add	r6, sl, r4
 6501 2b90 80C00BE5 		str	ip, [fp, #-128]
 6502 2b94 50C01BE5 		ldr	ip, [fp, #-80]
 6503 2b98 50600BE5 		str	r6, [fp, #-80]
 6504 2b9c 84601BE5 		ldr	r6, [fp, #-132]
 6505 2ba0 4118A0E1 		mov	r1, r1, asr #16
 6506 2ba4 A00EA0E1 		mov	r0, r0, lsr #29
 6507 2ba8 94100BE5 		str	r1, [fp, #-148]
 6508 2bac 006086E0 		add	r6, r6, r0
 6509 2bb0 44101BE5 		ldr	r1, [fp, #-68]
 6510 2bb4 40600BE5 		str	r6, [fp, #-64]
 6511 2bb8 94601BE5 		ldr	r6, [fp, #-148]
 6512 2bbc A11EA0E1 		mov	r1, r1, lsr #29
 6513 2bc0 48201BE5 		ldr	r2, [fp, #-72]
 6514 2bc4 016086E0 		add	r6, r6, r1
 6515 2bc8 C7EFA0E1 		mov	lr, r7, asr #31
 6516 2bcc 44600BE5 		str	r6, [fp, #-68]
 6517 2bd0 4778A0E1 		mov	r7, r7, asr #16
 6518 2bd4 98601BE5 		ldr	r6, [fp, #-152]
 6519 2bd8 90700BE5 		str	r7, [fp, #-144]
 6520 2bdc A22EA0E1 		mov	r2, r2, lsr #29
 6521 2be0 4378A0E1 		mov	r7, r3, asr #16
 6522 2be4 9C700BE5 		str	r7, [fp, #-156]
 6523 2be8 4C301BE5 		ldr	r3, [fp, #-76]
 6524 2bec 026086E0 		add	r6, r6, r2
 6525 2bf0 48600BE5 		str	r6, [fp, #-72]
 6526 2bf4 9C601BE5 		ldr	r6, [fp, #-156]
 6527 2bf8 A33EA0E1 		mov	r3, r3, lsr #29
 6528 2bfc 036086E0 		add	r6, r6, r3
 6529 2c00 4C600BE5 		str	r6, [fp, #-76]
 6530 2c04 50601BE5 		ldr	r6, [fp, #-80]
 6531 2c08 076006E2 		and	r6, r6, #7
 6532 2c0c 50600BE5 		str	r6, [fp, #-80]
 6533 2c10 40601BE5 		ldr	r6, [fp, #-64]
 6534 2c14 C95FA0E1 		mov	r5, r9, asr #31
 6535 2c18 076006E2 		and	r6, r6, #7
 6536 2c1c 4998A0E1 		mov	r9, r9, asr #16
 6537 2c20 88900BE5 		str	r9, [fp, #-136]
 6538 2c24 8CA00BE5 		str	sl, [fp, #-140]
 6539 2c28 80701BE5 		ldr	r7, [fp, #-128]
 6540 2c2c 90A01BE5 		ldr	sl, [fp, #-144]
 6541 2c30 40600BE5 		str	r6, [fp, #-64]
 6542 2c34 44601BE5 		ldr	r6, [fp, #-68]
 6543 2c38 076006E2 		and	r6, r6, #7
 6544 2c3c 44600BE5 		str	r6, [fp, #-68]
 6545 2c40 48601BE5 		ldr	r6, [fp, #-72]
 6546 2c44 AEEEA0E1 		mov	lr, lr, lsr #29
 6547 2c48 ACCEA0E1 		mov	ip, ip, lsr #29
 6548 2c4c 0EA08AE0 		add	sl, sl, lr
 6549 2c50 076006E2 		and	r6, r6, #7
 6550 2c54 48600BE5 		str	r6, [fp, #-72]
 6551 2c58 A55EA0E1 		mov	r5, r5, lsr #29
 6552 2c5c 4C601BE5 		ldr	r6, [fp, #-76]
 6553 2c60 0C7087E0 		add	r7, r7, ip
 6554 2c64 07A00AE2 		and	sl, sl, #7
 6555 2c68 0AE06EE0 		rsb	lr, lr, sl
 6556 2c6c 059089E0 		add	r9, r9, r5
 6557 2c70 40A01BE5 		ldr	sl, [fp, #-64]
 6558 2c74 077007E2 		and	r7, r7, #7
 6559 2c78 07C06CE0 		rsb	ip, ip, r7
 6560 2c7c 076006E2 		and	r6, r6, #7
 6561 2c80 079009E2 		and	r9, r9, #7
 6562 2c84 4C600BE5 		str	r6, [fp, #-76]
 6563 2c88 099065E0 		rsb	r9, r5, r9
 6564 2c8c 44601BE5 		ldr	r6, [fp, #-68]
 6565 2c90 50501BE5 		ldr	r5, [fp, #-80]
 6566 2c94 0A0060E0 		rsb	r0, r0, sl
 6567 2c98 07A06CE2 		rsb	sl, ip, #7
 6568 2c9c 50A00BE5 		str	sl, [fp, #-80]
 6569 2ca0 07A060E2 		rsb	sl, r0, #7
 6570 2ca4 40A00BE5 		str	sl, [fp, #-64]
 6571 2ca8 054064E0 		rsb	r4, r4, r5
 6572 2cac 061061E0 		rsb	r1, r1, r6
 6573 2cb0 48501BE5 		ldr	r5, [fp, #-72]
 6574 2cb4 0CC1A0E1 		mov	ip, ip, asl #2
 6575 2cb8 4C701BE5 		ldr	r7, [fp, #-76]
 6576 2cbc 07A061E2 		rsb	sl, r1, #7
 6577 2cc0 68C00BE5 		str	ip, [fp, #-104]
 6578 2cc4 40C01BE5 		ldr	ip, [fp, #-64]
 6579 2cc8 44A00BE5 		str	sl, [fp, #-68]
 6580 2ccc 052062E0 		rsb	r2, r2, r5
 6581 2cd0 0001A0E1 		mov	r0, r0, asl #2
 6582 2cd4 073063E0 		rsb	r3, r3, r7
 6583 2cd8 07A062E2 		rsb	sl, r2, #7
 6584 2cdc 70000BE5 		str	r0, [fp, #-112]
 6585 2ce0 0C01A0E1 		mov	r0, ip, asl #2
 6586 2ce4 44C01BE5 		ldr	ip, [fp, #-68]
 6587 2ce8 48A00BE5 		str	sl, [fp, #-72]
 6588 2cec 07A063E2 		rsb	sl, r3, #7
 6589 2cf0 4CA00BE5 		str	sl, [fp, #-76]
 6590 2cf4 50A01BE5 		ldr	sl, [fp, #-80]
 6591 2cf8 50000BE5 		str	r0, [fp, #-80]
 6592 2cfc 0C01A0E1 		mov	r0, ip, asl #2
 6593 2d00 48C01BE5 		ldr	ip, [fp, #-72]
 6594 2d04 54000BE5 		str	r0, [fp, #-84]
 6595 2d08 0C01A0E1 		mov	r0, ip, asl #2
 6596 2d0c 4CC01BE5 		ldr	ip, [fp, #-76]
 6597 2d10 58000BE5 		str	r0, [fp, #-88]
 6598 2d14 0C01A0E1 		mov	r0, ip, asl #2
 6599 2d18 076069E2 		rsb	r6, r9, #7
 6600 2d1c 5C000BE5 		str	r0, [fp, #-92]
 6601 2d20 0991A0E1 		mov	r9, r9, asl #2
 6602 2d24 0F02A0E3 		mov	r0, #-268435456
 6603 2d28 3099E0E1 		mvn	r9, r0, lsr r9
 6604 2d2c 075064E2 		rsb	r5, r4, #7
 6605 2d30 F0900BE5 		str	r9, [fp, #-240]
 6606 2d34 0661A0E1 		mov	r6, r6, asl #2
 6607 2d38 0F90A0E3 		mov	r9, #15
 6608 2d3c 0441A0E1 		mov	r4, r4, asl #2
 6609 2d40 1966A0E1 		mov	r6, r9, asl r6
 6610 2d44 3044E0E1 		mvn	r4, r0, lsr r4
 6611 2d48 0551A0E1 		mov	r5, r5, asl #2
 6612 2d4c 19C5A0E1 		mov	ip, r9, asl r5
 6613 2d50 07706EE2 		rsb	r7, lr, #7
 6614 2d54 68501BE5 		ldr	r5, [fp, #-104]
 6615 2d58 0771A0E1 		mov	r7, r7, asl #2
 6616 2d5c 0EE1A0E1 		mov	lr, lr, asl #2
 6617 2d60 30EEE0E1 		mvn	lr, r0, lsr lr
 6618 2d64 40600BE5 		str	r6, [fp, #-64]
 6619 2d68 44400BE5 		str	r4, [fp, #-68]
 6620 2d6c 1967A0E1 		mov	r6, r9, asl r7
 6621 2d70 3045E0E1 		mvn	r4, r0, lsr r5
 6622 2d74 48C00BE5 		str	ip, [fp, #-72]
 6623 2d78 4CE00BE5 		str	lr, [fp, #-76]
 6624 2d7c 64600BE5 		str	r6, [fp, #-100]
 6625 2d80 68400BE5 		str	r4, [fp, #-104]
 6626 2d84 70E01BE5 		ldr	lr, [fp, #-112]
 6627 2d88 0AA1A0E1 		mov	sl, sl, asl #2
 6628 2d8c 19CAA0E1 		mov	ip, r9, asl sl
 6629 2d90 30AEE0E1 		mvn	sl, r0, lsr lr
 6630 2d94 50701BE5 		ldr	r7, [fp, #-80]
 6631 2d98 1967A0E1 		mov	r6, r9, asl r7
 6632 2d9c 0111A0E1 		mov	r1, r1, asl #2
 6633 2da0 70A00BE5 		str	sl, [fp, #-112]
 6634 2da4 0FA2A0E3 		mov	sl, #-268435456
 6635 2da8 3A51E0E1 		mvn	r5, sl, lsr r1
 6636 2dac 0331A0E1 		mov	r3, r3, asl #2
 6637 2db0 50600BE5 		str	r6, [fp, #-80]
 6638 2db4 5C601BE5 		ldr	r6, [fp, #-92]
 6639 2db8 3A73E0E1 		mvn	r7, sl, lsr r3
 6640 2dbc 74500BE5 		str	r5, [fp, #-116]
 6641 2dc0 1956A0E1 		mov	r5, r9, asl r6
 6642 2dc4 54401BE5 		ldr	r4, [fp, #-84]
 6643 2dc8 6CC00BE5 		str	ip, [fp, #-108]
 6644 2dcc 58C01BE5 		ldr	ip, [fp, #-88]
 6645 2dd0 0221A0E1 		mov	r2, r2, asl #2
 6646 2dd4 1914A0E1 		mov	r1, r9, asl r4
 6647 2dd8 3A02E0E1 		mvn	r0, sl, lsr r2
 6648 2ddc 19ECA0E1 		mov	lr, r9, asl ip
 378:../lcd.c      **** 				ywbuf[j] = g_auc_Ascii8x16[ulOffset + j];
 6649              		.loc 1 378 0
 6650 2de0 A0401BE5 		ldr	r4, [fp, #-160]
 389:../lcd.c      **** 			       		(LCD_PutPixel(xx, y + y0, (INT8U)ForeColor));
 6651              		.loc 1 389 0
 6652 2de4 8C901BE5 		ldr	r9, [fp, #-140]
 378:../lcd.c      **** 				ywbuf[j] = g_auc_Ascii8x16[ulOffset + j];
 6653              		.loc 1 378 0
 6654 2de8 083C9FE5 		ldr	r3, .L678+84
 389:../lcd.c      **** 			       		(LCD_PutPixel(xx, y + y0, (INT8U)ForeColor));
 6655              		.loc 1 389 0
 6656 2dec 88601BE5 		ldr	r6, [fp, #-136]
 378:../lcd.c      **** 				ywbuf[j] = g_auc_Ascii8x16[ulOffset + j];
 6657              		.loc 1 378 0
 6658 2df0 043283E0 		add	r3, r3, r4, asl #4
 389:../lcd.c      **** 			       		(LCD_PutPixel(xx, y + y0, (INT8U)ForeColor));
 6659              		.loc 1 389 0
 6660 2df4 7C700BE5 		str	r7, [fp, #-124]
 378:../lcd.c      **** 				ywbuf[j] = g_auc_Ascii8x16[ulOffset + j];
 6661              		.loc 1 378 0
 6662 2df8 F84B9FE5 		ldr	r4, .L678+84
 389:../lcd.c      **** 			       		(LCD_PutPixel(xx, y + y0, (INT8U)ForeColor));
 6663              		.loc 1 389 0
 6664 2dfc 077089E2 		add	r7, r9, #7
 378:../lcd.c      **** 				ywbuf[j] = g_auc_Ascii8x16[ulOffset + j];
 6665              		.loc 1 378 0
 6666 2e00 A0901BE5 		ldr	r9, [fp, #-160]
 389:../lcd.c      **** 			       		(LCD_PutPixel(xx, y + y0, (INT8U)ForeColor));
 6667              		.loc 1 389 0
 6668 2e04 5C500BE5 		str	r5, [fp, #-92]
 6669 2e08 075086E2 		add	r5, r6, #7
 6670 2e0c A4700BE5 		str	r7, [fp, #-164]
 378:../lcd.c      **** 				ywbuf[j] = g_auc_Ascii8x16[ulOffset + j];
 6671              		.loc 1 378 0
 6672 2e10 0160D3E5 		ldrb	r6, [r3, #1]	@ zero_extendqisi2
 6673 2e14 0972D4E7 		ldrb	r7, [r4, r9, asl #4]	@ zero_extendqisi2
 389:../lcd.c      **** 			       		(LCD_PutPixel(xx, y + y0, (INT8U)ForeColor));
 6674              		.loc 1 389 0
 6675 2e18 E8500BE5 		str	r5, [fp, #-232]
 378:../lcd.c      **** 				ywbuf[j] = g_auc_Ascii8x16[ulOffset + j];
 6676              		.loc 1 378 0
 6677 2e1c 0340D3E5 		ldrb	r4, [r3, #3]	@ zero_extendqisi2
 6678 2e20 0250D3E5 		ldrb	r5, [r3, #2]	@ zero_extendqisi2
 389:../lcd.c      **** 			       		(LCD_PutPixel(xx, y + y0, (INT8U)ForeColor));
 6679              		.loc 1 389 0
 6680 2e24 54100BE5 		str	r1, [fp, #-84]
 6681 2e28 78000BE5 		str	r0, [fp, #-120]
 6682 2e2c 58E00BE5 		str	lr, [fp, #-88]
 6683 2e30 9C201BE5 		ldr	r2, [fp, #-156]
 6684 2e34 98101BE5 		ldr	r1, [fp, #-152]
 6685 2e38 94001BE5 		ldr	r0, [fp, #-148]
 6686 2e3c 84C04BE2 		sub	ip, fp, #132
 6687 2e40 00509CE8 		ldmia	ip, {ip, lr}	@ phole ldm
 6688 2e44 90A01BE5 		ldr	sl, [fp, #-144]
 378:../lcd.c      **** 				ywbuf[j] = g_auc_Ascii8x16[ulOffset + j];
 6689              		.loc 1 378 0
 6690 2e48 A0700BE5 		str	r7, [fp, #-160]
 6691 2e4c AC600BE5 		str	r6, [fp, #-172]
 6692 2e50 B0500BE5 		str	r5, [fp, #-176]
 6693 2e54 B4400BE5 		str	r4, [fp, #-180]
 6694 2e58 0490D3E5 		ldrb	r9, [r3, #4]	@ zero_extendqisi2
 6695 2e5c 0660D3E5 		ldrb	r6, [r3, #6]	@ zero_extendqisi2
 6696 2e60 B8900BE5 		str	r9, [fp, #-184]
 6697 2e64 0990D3E5 		ldrb	r9, [r3, #9]	@ zero_extendqisi2
 6698 2e68 0750D3E5 		ldrb	r5, [r3, #7]	@ zero_extendqisi2
 6699 2e6c C0600BE5 		str	r6, [fp, #-192]
 6700 2e70 0B60D3E5 		ldrb	r6, [r3, #11]	@ zero_extendqisi2
 6701 2e74 0840D3E5 		ldrb	r4, [r3, #8]	@ zero_extendqisi2
 6702 2e78 CC900BE5 		str	r9, [fp, #-204]
 6703 2e7c 0E90D3E5 		ldrb	r9, [r3, #14]	@ zero_extendqisi2
 6704 2e80 C4500BE5 		str	r5, [fp, #-196]
 6705 2e84 D4600BE5 		str	r6, [fp, #-212]
 6706 2e88 0C50D3E5 		ldrb	r5, [r3, #12]	@ zero_extendqisi2
 389:../lcd.c      **** 			       		(LCD_PutPixel(xx, y + y0, (INT8U)ForeColor));
 6707              		.loc 1 389 0
 6708 2e8c 9C601BE5 		ldr	r6, [fp, #-156]
 378:../lcd.c      **** 				ywbuf[j] = g_auc_Ascii8x16[ulOffset + j];
 6709              		.loc 1 378 0
 6710 2e90 C8400BE5 		str	r4, [fp, #-200]
 6711 2e94 E0900BE5 		str	r9, [fp, #-224]
 6712 2e98 0D40D3E5 		ldrb	r4, [r3, #13]	@ zero_extendqisi2
 389:../lcd.c      **** 			       		(LCD_PutPixel(xx, y + y0, (INT8U)ForeColor));
 6713              		.loc 1 389 0
 6714 2e9c 98901BE5 		ldr	r9, [fp, #-152]
 6715 2ea0 000056E3 		cmp	r6, #0
 378:../lcd.c      **** 				ywbuf[j] = g_auc_Ascii8x16[ulOffset + j];
 6716              		.loc 1 378 0
 6717 2ea4 D8500BE5 		str	r5, [fp, #-216]
 389:../lcd.c      **** 			       		(LCD_PutPixel(xx, y + y0, (INT8U)ForeColor));
 6718              		.loc 1 389 0
 6719 2ea8 94501BE5 		ldr	r5, [fp, #-148]
 6720 2eac 072082E2 		add	r2, r2, #7
 6721 2eb0 071081E2 		add	r1, r1, #7
 6722 2eb4 0620A0A1 		movge	r2, r6
 378:../lcd.c      **** 				ywbuf[j] = g_auc_Ascii8x16[ulOffset + j];
 6723              		.loc 1 378 0
 6724 2eb8 DC400BE5 		str	r4, [fp, #-220]
 389:../lcd.c      **** 			       		(LCD_PutPixel(xx, y + y0, (INT8U)ForeColor));
 6725              		.loc 1 389 0
 6726 2ebc 000059E3 		cmp	r9, #0
 6727 2ec0 84401BE5 		ldr	r4, [fp, #-132]
 378:../lcd.c      **** 				ywbuf[j] = g_auc_Ascii8x16[ulOffset + j];
 6728              		.loc 1 378 0
 6729 2ec4 0570D3E5 		ldrb	r7, [r3, #5]	@ zero_extendqisi2
 389:../lcd.c      **** 			       		(LCD_PutPixel(xx, y + y0, (INT8U)ForeColor));
 6730              		.loc 1 389 0
 6731 2ec8 0190A0B1 		movlt	r9, r1
 6732 2ecc 070080E2 		add	r0, r0, #7
 6733 2ed0 000055E3 		cmp	r5, #0
 6734 2ed4 80101BE5 		ldr	r1, [fp, #-128]
 6735 2ed8 0050A0B1 		movlt	r5, r0
 6736 2edc 07C08CE2 		add	ip, ip, #7
 6737 2ee0 000054E3 		cmp	r4, #0
 6738 2ee4 0C40A0B1 		movlt	r4, ip
 378:../lcd.c      **** 				ywbuf[j] = g_auc_Ascii8x16[ulOffset + j];
 6739              		.loc 1 378 0
 6740 2ee8 BC700BE5 		str	r7, [fp, #-188]
 389:../lcd.c      **** 			       		(LCD_PutPixel(xx, y + y0, (INT8U)ForeColor));
 6741              		.loc 1 389 0
 6742 2eec 90C01BE5 		ldr	ip, [fp, #-144]
 378:../lcd.c      **** 				ywbuf[j] = g_auc_Ascii8x16[ulOffset + j];
 6743              		.loc 1 378 0
 6744 2ef0 0A70D3E5 		ldrb	r7, [r3, #10]	@ zero_extendqisi2
 389:../lcd.c      **** 			       		(LCD_PutPixel(xx, y + y0, (INT8U)ForeColor));
 6745              		.loc 1 389 0
 6746 2ef4 000051E3 		cmp	r1, #0
 6747 2ef8 07E08EE2 		add	lr, lr, #7
 6748 2efc 0E10A0B1 		movlt	r1, lr
 6749 2f00 07A08AE2 		add	sl, sl, #7
 6750 2f04 00005CE3 		cmp	ip, #0
 378:../lcd.c      **** 				ywbuf[j] = g_auc_Ascii8x16[ulOffset + j];
 6751              		.loc 1 378 0
 6752 2f08 D0700BE5 		str	r7, [fp, #-208]
 6753 2f0c 0F70D3E5 		ldrb	r7, [r3, #15]	@ zero_extendqisi2
 389:../lcd.c      **** 			       		(LCD_PutPixel(xx, y + y0, (INT8U)ForeColor));
 6754              		.loc 1 389 0
 6755 2f10 0AC0A0B1 		movlt	ip, sl
 378:../lcd.c      **** 				ywbuf[j] = g_auc_Ascii8x16[ulOffset + j];
 6756              		.loc 1 378 0
 6757 2f14 E4700BE5 		str	r7, [fp, #-228]
 389:../lcd.c      **** 			       		(LCD_PutPixel(xx, y + y0, (INT8U)ForeColor));
 6758              		.loc 1 389 0
 6759 2f18 94500BE5 		str	r5, [fp, #-148]
 6760 2f1c 84400BE5 		str	r4, [fp, #-132]
 6761 2f20 80100BE5 		str	r1, [fp, #-128]
 6762 2f24 9CC00BE5 		str	ip, [fp, #-156]
 6763 2f28 8C001BE5 		ldr	r0, [fp, #-140]
 6764 2f2c A4301BE5 		ldr	r3, [fp, #-164]
 6765 2f30 000050E3 		cmp	r0, #0
 6766 2f34 C221A0E1 		mov	r2, r2, asr #3
 6767 2f38 0300A0B1 		movlt	r0, r3
 6768 2f3c 88301BE5 		ldr	r3, [fp, #-136]
 6769 2f40 88200BE5 		str	r2, [fp, #-136]
 6770 2f44 C921A0E1 		mov	r2, r9, asr #3
 6771 2f48 84901BE5 		ldr	r9, [fp, #-132]
 6772 2f4c C991A0E1 		mov	r9, r9, asr #3
 6773 2f50 8C900BE5 		str	r9, [fp, #-140]
 6774 2f54 80901BE5 		ldr	r9, [fp, #-128]
 6775 2f58 C991A0E1 		mov	r9, r9, asr #3
 6776 2f5c 90900BE5 		str	r9, [fp, #-144]
 6777 2f60 9C901BE5 		ldr	r9, [fp, #-156]
 6778 2f64 A4000BE5 		str	r0, [fp, #-164]
 6779 2f68 C991A0E1 		mov	r9, r9, asr #3
