   1              		.cpu arm7tdmi
   2              		.fpu softvfp
   3              		.eabi_attribute 20, 1
   4              		.eabi_attribute 21, 1
   5              		.eabi_attribute 23, 3
   6              		.eabi_attribute 24, 1
   7              		.eabi_attribute 25, 1
   8              		.eabi_attribute 26, 1
   9              		.eabi_attribute 30, 2
  10              		.eabi_attribute 18, 4
  11              		.file	"main.c"
  21              	.Ltext0:
  22              		.file 1 "../main.c"
 2469              		.align	2
 2470              		.global	Main
 2472              	Main:
 2473              	.LFB1:
   1:../main.c     **** /*********************************************************************************************
   2:../main.c     **** * Fichero:	main.c
   3:../main.c     **** * Autor:	Profesores de la asignatura
   4:../main.c     **** *			Fernando Peña Bes (NIA: 756012)
   5:../main.c     **** *			Pedro José Pérez García (NIA: 756642)
   6:../main.c     **** * Descrip:	punto de entrada de C
   7:../main.c     **** * Version:  <P4-ARM.timer-leds>
   8:../main.c     **** *********************************************************************************************/
   9:../main.c     **** 
  10:../main.c     **** /*--- ficheros de cabecera ---*/
  11:../main.c     **** #include "8led.h"
  12:../main.c     **** #include "button.h"
  13:../main.c     **** #include "led.h"
  14:../main.c     **** #include "timer.h"
  15:../main.c     **** #include "44blib.h"
  16:../main.c     **** #include "44b.h"
  17:../main.c     **** #include "reversi8_2019.h"
  18:../main.c     **** #include "pruebas_timer2.h"
  19:../main.c     **** #include "rutinas_excepciones.h"
  20:../main.c     **** #include "cola_depuracion.h"
  21:../main.c     **** #include "reversi_main.h"
  22:../main.c     **** #include "tp.h"
  23:../main.c     **** #include "lcd.h"
  24:../main.c     **** #include "elementos_pantalla.h"
  25:../main.c     **** #include <stdint.h>
  26:../main.c     **** 
  27:../main.c     **** static volatile inline void pasar_a_user()
  28:../main.c     **** {
  29:../main.c     **** 	uint32_t _cpsr;
  30:../main.c     **** 	asm volatile (" mrs %0, cpsr\n" : "=r" (_cpsr));
  31:../main.c     **** 	_cpsr &= 0xFFFFFFE0;	//El modo son los 5 bits de menos peso
  32:../main.c     **** 	_cpsr |= 0x00000010;	//0x10 = modo usuario
  33:../main.c     **** 	asm volatile (" msr cpsr,%0\n" :: "r" (_cpsr));
  34:../main.c     **** 	asm volatile (" ldr sp, =0xc7ff000 ");
  35:../main.c     **** 	return;
  36:../main.c     **** }
  37:../main.c     **** 
  38:../main.c     **** /*--- codigo de funciones ---*/
  39:../main.c     **** void Main(void)
  40:../main.c     **** {
 2474              		.loc 1 40 0
 2475              		.cfi_startproc
 2476              		@ Function supports interworking.
 2477              		@ args = 0, pretend = 0, frame = 0
 2478              		@ frame_needed = 1, uses_anonymous_args = 0
 2479 0000 0DC0A0E1 		mov	ip, sp
 2480              	.LCFI0:
 2481              		.cfi_def_cfa_register 12
 2482 0004 00D82DE9 		stmfd	sp!, {fp, ip, lr, pc}
 2483 0008 04B04CE2 		sub	fp, ip, #4
 2484              		.cfi_offset 14, -8
 2485              		.cfi_offset 13, -12
 2486              		.cfi_offset 11, -16
 2487              	.LCFI1:
 2488              		.cfi_def_cfa 11, 4
  41:../main.c     **** 	/* Inicializa controladores */
  42:../main.c     **** 	sys_init();         				// Inicializacion de la placa, interrupciones y puertos
 2489              		.loc 1 42 0
 2490 000c FEFFFFEB 		bl	sys_init
  43:../main.c     **** 	timer_init();	    				// Inicializacion del temporizador
 2491              		.loc 1 43 0
 2492 0010 FEFFFFEB 		bl	timer_init
  44:../main.c     **** 	button_iniciar();					// inicializamos los pulsadores. Cada vez que se pulse se verá reflejado en 
 2493              		.loc 1 44 0
 2494 0014 FEFFFFEB 		bl	button_iniciar
  45:../main.c     **** 	D8Led_init();      					// inicializamos el 8led
 2495              		.loc 1 45 0
 2496 0018 FEFFFFEB 		bl	D8Led_init
  46:../main.c     **** 	cola_depuracion_inicializar(32);	// Debe darse un tamaño suficiente para almacenar todos los event
 2497              		.loc 1 46 0
 2498 001c 2000A0E3 		mov	r0, #32
 2499 0020 FEFFFFEB 		bl	cola_depuracion_inicializar
  47:../main.c     **** 	Gestion_excepciones_init();			// Inicializa la gestión de excepciones SWI, UNDEF y DABORT
 2500              		.loc 1 47 0
 2501 0024 FEFFFFEB 		bl	Gestion_excepciones_init
  48:../main.c     **** 	Lcd_Init();
 2502              		.loc 1 48 0
 2503 0028 FEFFFFEB 		bl	Lcd_Init
  49:../main.c     **** 	Lcd_Clr();
 2504              		.loc 1 49 0
 2505 002c FEFFFFEB 		bl	Lcd_Clr
  50:../main.c     **** 	Lcd_Active_Clr();
 2506              		.loc 1 50 0
 2507 0030 FEFFFFEB 		bl	Lcd_Active_Clr
  51:../main.c     **** 	TS_init();
 2508              		.loc 1 51 0
 2509 0034 FEFFFFEB 		bl	TS_init
 2510              	.LBB4:
 2511              	.LBB5:
  30:../main.c     **** 	asm volatile (" mrs %0, cpsr\n" : "=r" (_cpsr));
 2512              		.loc 1 30 0
 2513              	@ 30 "../main.c" 1
 2514 0038 00100FE1 		 mrs r1, cpsr
 2515              	
 2516              	@ 0 "" 2
 2517              	.LVL0:
  31:../main.c     **** 	_cpsr &= 0xFFFFFFE0;	//El modo son los 5 bits de menos peso
 2518              		.loc 1 31 0
 2519 003c 1F00C1E3 		bic	r0, r1, #31
 2520              	.LVL1:
  32:../main.c     **** 	_cpsr |= 0x00000010;	//0x10 = modo usuario
 2521              		.loc 1 32 0
 2522 0040 103080E3 		orr	r3, r0, #16
  33:../main.c     **** 	asm volatile (" msr cpsr,%0\n" :: "r" (_cpsr));
 2523              		.loc 1 33 0
 2524              	@ 33 "../main.c" 1
 2525 0044 03F029E1 		 msr cpsr,r3
 2526              	
 2527              	@ 0 "" 2
  34:../main.c     **** 	asm volatile (" ldr sp, =0xc7ff000 ");
 2528              		.loc 1 34 0
 2529              	@ 34 "../main.c" 1
 2530 0048 0CD09FE5 		 ldr sp, =0xc7ff000 
 2531              	@ 0 "" 2
 2532              	.LBE5:
 2533              	.LBE4:
  52:../main.c     **** 
  53:../main.c     **** 	//Delay(250);
  54:../main.c     **** 	/// Pruebas de excepciones ///
  55:../main.c     **** 	/*asm volatile ("SWI 0x55");			//lanzar SWI
  56:../main.c     **** 	asm volatile ("mov r3, #3");
  57:../main.c     **** 	asm volatile ("ldr r2,[r3]");			//Forzar DABORT
  58:../main.c     **** 	asm volatile (".word 0xe7f000f0\n");	//Forzar UNDEF
  59:../main.c     **** 	*/
  60:../main.c     **** 	pasar_a_user();
  61:../main.c     **** 	//pintar_prueba();
  62:../main.c     **** 	reversi_main();
 2534              		.loc 1 62 0
 2535 004c FEFFFFEB 		bl	reversi_main
 2536              	.LVL2:
  63:../main.c     **** 
  64:../main.c     **** 
  65:../main.c     **** 	//// pruebas automáticas de timer2 ////
  66:../main.c     **** 	//pruebas_timer2();
  67:../main.c     **** 
  68:../main.c     **** 	//// pruebas automáticas de patron_volteo ////
  69:../main.c     **** 	//patron_volteo_prueba_resultado_igual();
  70:../main.c     **** 	//patron_volteo_prueba_resultado_correcto();
  71:../main.c     **** 
  72:../main.c     **** 
  73:../main.c     **** 	/* Valor inicial de los leds */
  74:../main.c     **** 	//leds_off();
  75:../main.c     **** 	//led1_on();
  76:../main.c     **** }
 2537              		.loc 1 76 0
 2538 0050 0CD04BE2 		sub	sp, fp, #12
 2539 0054 00689DE8 		ldmfd	sp, {fp, sp, lr}
 2540 0058 1EFF2FE1 		bx	lr
 2541              		.cfi_endproc
 2542              	.LFE1:
 2544              		.comm	CheckTSP,4,4
 2545              		.comm	oneTouch,4,4
 2546              		.comm	Vx,4,4
 2547              		.comm	Vy,4,4
 2548              		.comm	Xmax,4,4
 2549              		.comm	Ymax,4,4
 2550              		.comm	Xmin,4,4
 2551              		.comm	Ymin,4,4
 2552              	.Letext0: