   1              		.cpu arm7tdmi
   2              		.fpu softvfp
   3              		.eabi_attribute 20, 1
   4              		.eabi_attribute 21, 1
   5              		.eabi_attribute 23, 3
   6              		.eabi_attribute 24, 1
   7              		.eabi_attribute 25, 1
   8              		.eabi_attribute 26, 1
   9              		.eabi_attribute 30, 2
  10              		.eabi_attribute 18, 4
  11              		.file	"reversi8_2019.c"
  21              	.Ltext0:
  22              		.file 1 "../reversi8_2019.c"
 1097              		.align	2
 1098              		.global	contar
 1100              	contar:
 1101              	.LFB15:
   1:../reversi8_2019.c **** /*********************************************************************************************
   2:../reversi8_2019.c **** * Fichero:	reversi8_2019.c
   3:../reversi8_2019.c **** * Autor:	Profesores de la asignatura
   4:../reversi8_2019.c **** 			Fernando Peña Bes (NIA: 756012)
   5:../reversi8_2019.c **** 			Pedro José Pérez García (NIA: 756642)
   6:../reversi8_2019.c **** * Descrip:	Implementación del juego reversi8.
   7:../reversi8_2019.c **** * Version:
   8:../reversi8_2019.c **** *********************************************************************************************/
   9:../reversi8_2019.c **** #include "reversi8_2019.h"
  10:../reversi8_2019.c **** #include "elementos_pantalla.h"
  11:../reversi8_2019.c **** 
  12:../reversi8_2019.c **** // Tamaño del tablero
  13:../reversi8_2019.c **** enum { DIM=8 };
  14:../reversi8_2019.c **** 
  15:../reversi8_2019.c **** // Valores que puede devolver la función patron_volteo())
  16:../reversi8_2019.c **** enum {
  17:../reversi8_2019.c **** 	NO_HAY_PATRON = 0,
  18:../reversi8_2019.c ****   PATRON_ENCONTRADO = 1
  19:../reversi8_2019.c **** };
  20:../reversi8_2019.c **** 
  21:../reversi8_2019.c **** // Estados de las casillas del tablero
  22:../reversi8_2019.c **** // deberia ser enum, lo dejamos como const para usar char...
  23:../reversi8_2019.c **** //const char CASILLA_VACIA = 0;
  24:../reversi8_2019.c **** //const char FICHA_BLANCA  = 1;
  25:../reversi8_2019.c **** //const char FICHA_NEGRA   = 2;
  26:../reversi8_2019.c **** 
  27:../reversi8_2019.c **** //El enum que debería estar aquí ha sido movido a definiciones_juego.h
  28:../reversi8_2019.c **** //	para que las funciones de elementos_pantalla, jugada_por_botones y reversi8
  29:../reversi8_2019.c **** //	puedan tener definiciones comunes en vez ed hacer una chapuza redefiniendo todo
  30:../reversi8_2019.c **** //	en cada uno de los sitios donde lo necesite
  31:../reversi8_2019.c **** 
  32:../reversi8_2019.c **** // candidatas: indica las posiciones a explorar
  33:../reversi8_2019.c **** // Se usa para no explorar todo el tablero innecesariamente
  34:../reversi8_2019.c **** // Sus posibles valores son NO, SI, CASILLA_OCUPADA
  35:../reversi8_2019.c **** enum {NO=0,SI=1,CASILLA_OCUPADA=2};
  36:../reversi8_2019.c **** /*
  37:../reversi8_2019.c **** const char  NO              = 0;
  38:../reversi8_2019.c **** const char  SI              = 1;
  39:../reversi8_2019.c **** const char  CASILLA_OCUPADA = 2;*/
  40:../reversi8_2019.c **** 
  41:../reversi8_2019.c **** /////////////////////////////////////////////////////////////////////////////
  42:../reversi8_2019.c **** // TABLAS AUXILIARES
  43:../reversi8_2019.c **** // declaramos las siguientes tablas como globales para que sean más fáciles visualizarlas en el sim
  44:../reversi8_2019.c **** // __attribute__ ((aligned (8))): specifies a minimum alignment for the variable or structure field
  45:../reversi8_2019.c **** 
  46:../reversi8_2019.c **** static const char __attribute__ ((aligned (8))) tabla_valor[DIM][DIM] =
  47:../reversi8_2019.c **** {
  48:../reversi8_2019.c ****     {8,2,7,3,3,7,2,8},
  49:../reversi8_2019.c ****     {2,1,4,4,4,4,1,2},
  50:../reversi8_2019.c ****     {7,4,6,5,5,6,4,7},
  51:../reversi8_2019.c ****     {3,4,5,0,0,5,4,3},
  52:../reversi8_2019.c ****     {3,4,5,0,0,5,4,3},
  53:../reversi8_2019.c ****     {7,4,6,5,5,6,4,7},
  54:../reversi8_2019.c ****     {2,1,4,4,4,4,1,2},
  55:../reversi8_2019.c ****     {8,2,7,3,3,7,2,8}
  56:../reversi8_2019.c **** };
  57:../reversi8_2019.c **** 
  58:../reversi8_2019.c **** 
  59:../reversi8_2019.c **** // Tabla de direcciones. Contiene los desplazamientos de las 8 direcciones posibles
  60:../reversi8_2019.c **** const char vSF[DIM] = {-1,-1, 0, 1, 1, 1, 0,-1};
  61:../reversi8_2019.c **** const char vSC[DIM] = { 0, 1, 1, 1, 0,-1,-1,-1};
  62:../reversi8_2019.c **** 
  63:../reversi8_2019.c **** //////////////////////////////////////////////////////////////////////////////////////
  64:../reversi8_2019.c **** // Variables globales que no deberían serlo
  65:../reversi8_2019.c **** // tablero, fila, columna y ready son varibles que se deberían definir como locales dentro de rever
  66:../reversi8_2019.c **** // Sin embargo, las hemos definido como globales para que sea más fácil visualizar el tablero y las
  67:../reversi8_2019.c **** //////////////////////////////////////////////////////////////////////////////////////
  68:../reversi8_2019.c **** 
  69:../reversi8_2019.c **** ////////////////////////////////////////////////////////////////////
  70:../reversi8_2019.c **** // Tablero sin inicializar
  71:../reversi8_2019.c **** ////////////////////////////////////////////////////////////////////
  72:../reversi8_2019.c **** static char __attribute__ ((aligned (8))) tablero[DIM][DIM] = {
  73:../reversi8_2019.c **** 	        {CASILLA_VACIA,CASILLA_VACIA,CASILLA_VACIA,CASILLA_VACIA,CASILLA_VACIA,CASILLA_VACIA,CASIL
  74:../reversi8_2019.c **** 	        {CASILLA_VACIA,CASILLA_VACIA,CASILLA_VACIA,CASILLA_VACIA,CASILLA_VACIA,CASILLA_VACIA,CASIL
  75:../reversi8_2019.c **** 	        {CASILLA_VACIA,CASILLA_VACIA,CASILLA_VACIA,CASILLA_VACIA,CASILLA_VACIA,CASILLA_VACIA,CASIL
  76:../reversi8_2019.c **** 	        {CASILLA_VACIA,CASILLA_VACIA,CASILLA_VACIA,CASILLA_VACIA,CASILLA_VACIA,CASILLA_VACIA,CASIL
  77:../reversi8_2019.c **** 	        {CASILLA_VACIA,CASILLA_VACIA,CASILLA_VACIA,CASILLA_VACIA,CASILLA_VACIA,CASILLA_VACIA,CASIL
  78:../reversi8_2019.c **** 	        {CASILLA_VACIA,CASILLA_VACIA,CASILLA_VACIA,CASILLA_VACIA,CASILLA_VACIA,CASILLA_VACIA,CASIL
  79:../reversi8_2019.c **** 	        {CASILLA_VACIA,CASILLA_VACIA,CASILLA_VACIA,CASILLA_VACIA,CASILLA_VACIA,CASILLA_VACIA,CASIL
  80:../reversi8_2019.c **** 	        {CASILLA_VACIA,CASILLA_VACIA,CASILLA_VACIA,CASILLA_VACIA,CASILLA_VACIA,CASILLA_VACIA,CASIL
  81:../reversi8_2019.c **** 	    };
  82:../reversi8_2019.c **** 
  83:../reversi8_2019.c **** 	static char __attribute__ ((aligned (8))) candidatas[DIM][DIM] =
  84:../reversi8_2019.c ****     {
  85:../reversi8_2019.c ****         {NO,NO,NO,NO,NO,NO,NO,NO},
  86:../reversi8_2019.c ****         {NO,NO,NO,NO,NO,NO,NO,NO},
  87:../reversi8_2019.c ****         {NO,NO,NO,NO,NO,NO,NO,NO},
  88:../reversi8_2019.c ****         {NO,NO,NO,NO,NO,NO,NO,NO},
  89:../reversi8_2019.c ****         {NO,NO,NO,NO,NO,NO,NO,NO},
  90:../reversi8_2019.c ****         {NO,NO,NO,NO,NO,NO,NO,NO},
  91:../reversi8_2019.c ****         {NO,NO,NO,NO,NO,NO,NO,NO},
  92:../reversi8_2019.c ****         {NO,NO,NO,NO,NO,NO,NO,NO}
  93:../reversi8_2019.c ****     };
  94:../reversi8_2019.c ****     static int jugada_valida = 0;
  95:../reversi8_2019.c **** 	static int veces_pv = 0;
  96:../reversi8_2019.c **** 	static int t_pv = 0;
  97:../reversi8_2019.c **** 	int done;     			// la máquina ha conseguido mover o no
  98:../reversi8_2019.c ****     int move = 0; 			// el humano ha conseguido mover o no
  99:../reversi8_2019.c ****     int blancas = 0;
 100:../reversi8_2019.c ****     int negras = 0;			// número de fichas de cada color
 101:../reversi8_2019.c ****     volatile int fin = 0;   // fin vale 1 si el humano no ha podido mover
 102:../reversi8_2019.c ****     						// (ha introducido un valor de movimiento con algún 8)
 103:../reversi8_2019.c ****                   	  	  	// y luego la máquina tampoco puede
 104:../reversi8_2019.c ****     char f, c;    			// fila y columna elegidas por la máquina para su movimiento
 105:../reversi8_2019.c **** 
 106:../reversi8_2019.c ****   ////////////////////////////////////////////////////////////////////
 107:../reversi8_2019.c ****      // VARIABLES PARA INTERACCIONAR CON LA ENTRADA SALIDA
 108:../reversi8_2019.c ****      // Pregunta: ¿hay que hacer algo con ellas para que esto funcione bien?
 109:../reversi8_2019.c ****      // (por ejemplo añadir alguna palabra clave para garantizar que la sincronización a través de 
 110:../reversi8_2019.c **** static volatile char fila=0, columna=0, ready=0;
 111:../reversi8_2019.c **** 
 112:../reversi8_2019.c **** int obtener_jugada_valida()
 113:../reversi8_2019.c **** {
 114:../reversi8_2019.c ****     return jugada_valida;
 115:../reversi8_2019.c **** }
 116:../reversi8_2019.c **** 
 117:../reversi8_2019.c **** enum final_partida obtener_fin()
 118:../reversi8_2019.c **** {
 119:../reversi8_2019.c **** 	if(fin == 0)
 120:../reversi8_2019.c **** 	{
 121:../reversi8_2019.c **** 		return no_fin;
 122:../reversi8_2019.c **** 	}
 123:../reversi8_2019.c **** 	else
 124:../reversi8_2019.c **** 	{
 125:../reversi8_2019.c **** 		if(blancas > negras)
 126:../reversi8_2019.c **** 		{
 127:../reversi8_2019.c **** 			return cpu_gana;
 128:../reversi8_2019.c **** 		}
 129:../reversi8_2019.c **** 		else if(negras > blancas)
 130:../reversi8_2019.c **** 		{
 131:../reversi8_2019.c **** 			return jugador_gana;
 132:../reversi8_2019.c **** 		}
 133:../reversi8_2019.c **** 	}
 134:../reversi8_2019.c **** 	//blancas == negras
 135:../reversi8_2019.c **** 	return empate;
 136:../reversi8_2019.c **** }
 137:../reversi8_2019.c **** 
 138:../reversi8_2019.c **** //Copia tablero de la partida a donde se le diga
 139:../reversi8_2019.c **** void obtener_tablero(char tab[][num_columnas])
 140:../reversi8_2019.c **** {
 141:../reversi8_2019.c **** 	int i,j;
 142:../reversi8_2019.c **** 	for(i = 0; i < num_filas; i++)
 143:../reversi8_2019.c **** 	{
 144:../reversi8_2019.c **** 		for(j = 0; j < num_columnas; j++)
 145:../reversi8_2019.c **** 		{
 146:../reversi8_2019.c **** 			tab[i][j] = tablero[i][j];
 147:../reversi8_2019.c **** 		}
 148:../reversi8_2019.c **** 	}
 149:../reversi8_2019.c **** }
 150:../reversi8_2019.c **** 
 151:../reversi8_2019.c **** //Devuelven el número de fichas de cada color al final de la partida
 152:../reversi8_2019.c **** //	y solo se cuenta al final, por tanto no hace falta volver a contar
 153:../reversi8_2019.c **** //	Si se quiere contar a mitad de partida, se tendría que contar antes
 154:../reversi8_2019.c **** //	de devolver el número.
 155:../reversi8_2019.c **** int contar_blancas(void){return blancas;}
 156:../reversi8_2019.c **** int contar_negras(void){return negras;}
 157:../reversi8_2019.c **** 
 158:../reversi8_2019.c **** int reversi_t_pv(void)
 159:../reversi8_2019.c **** {
 160:../reversi8_2019.c **** 	return veces_pv;
 161:../reversi8_2019.c **** }
 162:../reversi8_2019.c **** 
 163:../reversi8_2019.c **** int reversi_veces_pv(void)
 164:../reversi8_2019.c **** {
 165:../reversi8_2019.c **** 	return t_pv;
 166:../reversi8_2019.c **** }
 167:../reversi8_2019.c **** 
 168:../reversi8_2019.c **** void reversi_procesar(char f, char c)
 169:../reversi8_2019.c **** {
 170:../reversi8_2019.c **** 	fila = f;
 171:../reversi8_2019.c **** 	columna = c;
 172:../reversi8_2019.c **** 	ready = 1;
 173:../reversi8_2019.c **** 	reversi8();
 174:../reversi8_2019.c **** }
 175:../reversi8_2019.c **** 
 176:../reversi8_2019.c **** enum estado_casilla obtener_ficha_en(int f, int c)
 177:../reversi8_2019.c **** {
 178:../reversi8_2019.c **** 	return tablero[f][c];
 179:../reversi8_2019.c **** }
 180:../reversi8_2019.c **** 
 181:../reversi8_2019.c **** //extern int patron_volteo_arm_c(char tablero[][DIM], int *longitud,char FA, char CA, char SF, char
 182:../reversi8_2019.c **** //extern int patron_volteo_arm_arm(char tablero[][DIM], int *longitud,char FA, char CA, char SF, ch
 183:../reversi8_2019.c **** //extern int patron_volteo_arm_arm_opt(char tablero[][DIM], int *longitud,char FA, char CA, char SF
 184:../reversi8_2019.c **** 
 185:../reversi8_2019.c **** ///////////////////////////////////////////////////////////////////////////////////////////////////
 186:../reversi8_2019.c **** // 0 indica CASILLA_VACIA, 1 indica FICHA_BLANCA y 2 indica FICHA_NEGRA
 187:../reversi8_2019.c **** // pone el tablero a cero y luego coloca las fichas centrales.
 188:../reversi8_2019.c **** void init_table(char tablero[][DIM], char candidatas[][DIM])
 189:../reversi8_2019.c **** {
 190:../reversi8_2019.c ****     int i, j;
 191:../reversi8_2019.c **** 
 192:../reversi8_2019.c ****     for (i = 0; i < DIM; i++)
 193:../reversi8_2019.c ****     {
 194:../reversi8_2019.c ****         for (j = 0; j < DIM; j++)
 195:../reversi8_2019.c ****             tablero[i][j] = CASILLA_VACIA;
 196:../reversi8_2019.c ****     }
 197:../reversi8_2019.c **** #if 0
 198:../reversi8_2019.c ****     for (i = 3; i < 5; ++i) {
 199:../reversi8_2019.c **** 	for(j = 3; j < 5; ++j) {
 200:../reversi8_2019.c **** 	    tablero[i][j] = i == j ? FICHA_BLANCA : FICHA_NEGRA;
 201:../reversi8_2019.c **** 	}
 202:../reversi8_2019.c ****     }
 203:../reversi8_2019.c **** 
 204:../reversi8_2019.c ****     for (i = 2; i < 6; ++i) {
 205:../reversi8_2019.c **** 	for (j = 2; j < 6; ++j) {
 206:../reversi8_2019.c **** 	    if((i>=3) && (i < 5) && (j>=3) && (j<5)) {
 207:../reversi8_2019.c **** 		candidatas[i][j] = CASILLA_OCUPADA;
 208:../reversi8_2019.c **** 	    } else {
 209:../reversi8_2019.c **** 		candidatas[i][j] = SI; //CASILLA_LIBRE;
 210:../reversi8_2019.c **** 	    }
 211:../reversi8_2019.c **** 	}
 212:../reversi8_2019.c ****     }
 213:../reversi8_2019.c **** #endif
 214:../reversi8_2019.c ****     // arriba hay versión alternativa
 215:../reversi8_2019.c ****     tablero[3][3] = FICHA_BLANCA;
 216:../reversi8_2019.c ****     tablero[4][4] = FICHA_BLANCA;
 217:../reversi8_2019.c ****     tablero[3][4] = FICHA_NEGRA;
 218:../reversi8_2019.c ****     tablero[4][3] = FICHA_NEGRA;
 219:../reversi8_2019.c **** 
 220:../reversi8_2019.c ****     candidatas[3][3] = CASILLA_OCUPADA;
 221:../reversi8_2019.c ****     candidatas[4][4] = CASILLA_OCUPADA;
 222:../reversi8_2019.c ****     candidatas[3][4] = CASILLA_OCUPADA;
 223:../reversi8_2019.c ****     candidatas[4][3] = CASILLA_OCUPADA;
 224:../reversi8_2019.c **** 
 225:../reversi8_2019.c ****     // casillas a explorar:
 226:../reversi8_2019.c ****     candidatas[2][2] = SI;
 227:../reversi8_2019.c ****     candidatas[2][3] = SI;
 228:../reversi8_2019.c ****     candidatas[2][4] = SI;
 229:../reversi8_2019.c ****     candidatas[2][5] = SI;
 230:../reversi8_2019.c ****     candidatas[3][2] = SI;
 231:../reversi8_2019.c ****     candidatas[3][5] = SI;
 232:../reversi8_2019.c ****     candidatas[4][2] = SI;
 233:../reversi8_2019.c ****     candidatas[4][5] = SI;
 234:../reversi8_2019.c ****     candidatas[5][2] = SI;
 235:../reversi8_2019.c ****     candidatas[5][3] = SI;
 236:../reversi8_2019.c ****     candidatas[5][4] = SI;
 237:../reversi8_2019.c ****     candidatas[5][5] = SI;
 238:../reversi8_2019.c **** 
 239:../reversi8_2019.c ****     // Añadido para que se muestre correctamente el número de fichas
 240:../reversi8_2019.c ****     // antes de realizar el primer movimiento
 241:../reversi8_2019.c ****     contar(tablero, &blancas, &negras);
 242:../reversi8_2019.c **** }
 243:../reversi8_2019.c **** 
 244:../reversi8_2019.c **** ////////////////////////////////////////////////////////////////////////////////
 245:../reversi8_2019.c **** //++++++++++++++++++++++++++++++++++++++++++++++++++++++++++++++++++++++++++++++
 246:../reversi8_2019.c **** // IMPORTANTE: AL SUSTITUIR FICHA_VALIDA() Y PATRON_VOLTEO()
 247:../reversi8_2019.c **** // POR RUTINAS EN ENSAMBLADOR HAY QUE RESPETAR LA MODULARIDAD.
 248:../reversi8_2019.c **** // DEBEN SEGUIR SIENDO LLAMADAS A FUNCIONES Y DEBEN CUMPLIR CON EL ATPCS
 249:../reversi8_2019.c **** // (VER TRANSPARENCIAS Y MATERIAL DE PRACTICAS):
 250:../reversi8_2019.c **** //  - DEBEN PASAR LOS PARAMETROS POR LOS REGISTROS CORRESPONDIENTES
 251:../reversi8_2019.c **** //  - GUARDAR EN PILA SOLO LOS REGISTROS QUE TOCAN
 252:../reversi8_2019.c **** //  - CREAR UN MARCO DE PILA TAL Y COMO MUESTRAN LAS TRANSPARENCIAS
 253:../reversi8_2019.c **** //    DE LA ASIGNATURA (CON EL PC, FP, LR,....)
 254:../reversi8_2019.c **** //  - EN EL CASO DE LAS VARIABLES LOCALES, SOLO HAY QUE APILARLAS
 255:../reversi8_2019.c **** //    SI NO SE PUEDEN COLOCAR EN UN REGISTRO.
 256:../reversi8_2019.c **** //    SI SE COLOCAN EN UN REGISTRO NO HACE FALTA
 257:../reversi8_2019.c **** //    NI GUARDARLAS EN PILA NI RESERVAR UN ESPACIO EN LA PILA PARA ELLAS
 258:../reversi8_2019.c **** //++++++++++++++++++++++++++++++++++++++++++++++++++++++++++++++++++++++++++++++
 259:../reversi8_2019.c **** ////////////////////////////////////////////////////////////////////////////////
 260:../reversi8_2019.c **** // Devuelve el contenido de la posición indicadas por la fila y columna actual.
 261:../reversi8_2019.c **** // Además informa si la posición es válida y contiene alguna ficha.
 262:../reversi8_2019.c **** // Esto lo hace por referencia (en *posicion_valida)
 263:../reversi8_2019.c **** // Si devuelve un 0 no es válida o está vacia.
 264:../reversi8_2019.c **** char ficha_valida(char tablero[][DIM], char f, char c, int *posicion_valida)
 265:../reversi8_2019.c **** {
 266:../reversi8_2019.c ****     char ficha;
 267:../reversi8_2019.c ****     if ((f < DIM) && (c < DIM) && (tablero[f][c] != CASILLA_VACIA))
 268:../reversi8_2019.c ****     {
 269:../reversi8_2019.c ****         *posicion_valida = 1;
 270:../reversi8_2019.c ****         ficha = tablero[f][c];
 271:../reversi8_2019.c ****     }
 272:../reversi8_2019.c ****     else
 273:../reversi8_2019.c ****     {
 274:../reversi8_2019.c ****         *posicion_valida = 0;
 275:../reversi8_2019.c ****         ficha = CASILLA_VACIA;
 276:../reversi8_2019.c ****     }
 277:../reversi8_2019.c ****     return ficha;
 278:../reversi8_2019.c **** }
 279:../reversi8_2019.c **** 
 280:../reversi8_2019.c **** ////////////////////////////////////////////////////////////////////////////////
 281:../reversi8_2019.c **** // La función patrón volteo comprueba si hay que actualizar una determinada direccion,
 282:../reversi8_2019.c **** // busca el patrón de volteo (n fichas del rival seguidas de una ficha del jugador actual)
 283:../reversi8_2019.c **** // en una dirección determinada
 284:../reversi8_2019.c **** // SF y SC son las cantidades a sumar para movernos en la dirección que toque
 285:../reversi8_2019.c **** // color indica el color de la pieza que se acaba de colocar
 286:../reversi8_2019.c **** // la función devuelve PATRON_ENCONTRADO (1) si encuentra patrón y NO_HAY_PATRON (0) en caso contra
 287:../reversi8_2019.c **** // FA y CA son la fila y columna a analizar
 288:../reversi8_2019.c **** // longitud es un parámetro por referencia. Sirve para saber la longitud del patrón que se está ana
 289:../reversi8_2019.c **** //          Se usa para saber cuantas fichas habría que voltear
 290:../reversi8_2019.c **** int patron_volteo(char tablero[][DIM], int *longitud, char FA, char CA, char SF, char SC, char colo
 291:../reversi8_2019.c **** {
 292:../reversi8_2019.c **** 	int t_inicio = timer2_leer();
 293:../reversi8_2019.c **** 	int t_final;
 294:../reversi8_2019.c **** 	int posicion_valida; // indica si la posición es valida y contiene una ficha de algún jugador
 295:../reversi8_2019.c **** 	char casilla;   // casilla es la casilla que se lee del tablero
 296:../reversi8_2019.c **** 
 297:../reversi8_2019.c **** 	FA = FA + SF;
 298:../reversi8_2019.c **** 	CA = CA + SC;
 299:../reversi8_2019.c **** 	casilla = ficha_valida(tablero, FA, CA, &posicion_valida);
 300:../reversi8_2019.c **** 	while ((posicion_valida == 1) && (casilla != color))
 301:../reversi8_2019.c **** 	// mientras la casilla está en el tablero, no está vací­a,
 302:../reversi8_2019.c **** 	// y es del color rival seguimos buscando el patron de volteo
 303:../reversi8_2019.c **** 	{
 304:../reversi8_2019.c **** 		FA = FA + SF;
 305:../reversi8_2019.c **** 		CA = CA + SC;
 306:../reversi8_2019.c **** 		*longitud = *longitud + 1;
 307:../reversi8_2019.c **** 		casilla = ficha_valida(tablero, FA, CA, &posicion_valida);
 308:../reversi8_2019.c **** 	}
 309:../reversi8_2019.c ****     // si la ultima posición era válida y la ficha es del jugador actual,
 310:../reversi8_2019.c ****     // entonces hemos encontrado el patrón
 311:../reversi8_2019.c **** 	if ((posicion_valida == 1) && (casilla == color) && (*longitud >0))
 312:../reversi8_2019.c **** 	{
 313:../reversi8_2019.c **** 		t_final = timer2_leer();
 314:../reversi8_2019.c **** 		t_pv += (t_final - t_inicio);
 315:../reversi8_2019.c **** 		veces_pv++;
 316:../reversi8_2019.c **** 		return PATRON_ENCONTRADO; // si hay que voltear una ficha o más hemos encontrado el patrón
 317:../reversi8_2019.c **** 	}
 318:../reversi8_2019.c **** 	else
 319:../reversi8_2019.c **** 	{
 320:../reversi8_2019.c **** 		t_final = timer2_leer();
 321:../reversi8_2019.c **** 		t_pv += (t_final - t_inicio);
 322:../reversi8_2019.c **** 		veces_pv++;
 323:../reversi8_2019.c **** 		return NO_HAY_PATRON; // si no hay que voltear no hay patrón
 324:../reversi8_2019.c **** 	}
 325:../reversi8_2019.c **** }
 326:../reversi8_2019.c **** 
 327:../reversi8_2019.c **** ////////////////////////////////////////////////////////////////////////////////
 328:../reversi8_2019.c **** // voltea n fichas en la dirección que toque
 329:../reversi8_2019.c **** // SF y SC son las cantidades a sumar para movernos en la dirección que toque
 330:../reversi8_2019.c **** // color indica el color de la pieza que se acaba de colocar
 331:../reversi8_2019.c **** // FA y CA son la fila y columna a analizar
 332:../reversi8_2019.c **** void voltear(char tablero[][DIM], char FA, char CA, char SF, char SC, int n, char color)
 333:../reversi8_2019.c **** {
 334:../reversi8_2019.c ****     int i;
 335:../reversi8_2019.c **** 
 336:../reversi8_2019.c ****     for (i = 0; i < n; i++)
 337:../reversi8_2019.c ****     {
 338:../reversi8_2019.c ****         FA = FA + SF;
 339:../reversi8_2019.c ****         CA = CA + SC;
 340:../reversi8_2019.c ****         tablero[FA][CA] = color;
 341:../reversi8_2019.c ****     }
 342:../reversi8_2019.c **** }
 343:../reversi8_2019.c **** ////////////////////////////////////////////////////////////////////////////////
 344:../reversi8_2019.c **** // comprueba si hay que actualizar alguna ficha
 345:../reversi8_2019.c **** // no comprueba que el movimiento realizado sea válido
 346:../reversi8_2019.c **** // f y c son la fila y columna a analizar
 347:../reversi8_2019.c **** // char vSF[DIM] = {-1,-1, 0, 1, 1, 1, 0,-1};
 348:../reversi8_2019.c **** // char vSC[DIM] = { 0, 1, 1, 1, 0,-1,-1,-1};
 349:../reversi8_2019.c **** int actualizar_tablero(char tablero[][DIM], char f, char c, char color)
 350:../reversi8_2019.c **** {
 351:../reversi8_2019.c ****     char SF, SC; // cantidades a sumar para movernos en la dirección que toque
 352:../reversi8_2019.c ****     int i, flip, patron;
 353:../reversi8_2019.c **** 
 354:../reversi8_2019.c ****     for (i = 0; i < DIM; i++) // 0 es Norte, 1 NE, 2 E ...
 355:../reversi8_2019.c ****     {
 356:../reversi8_2019.c ****         SF = vSF[i];
 357:../reversi8_2019.c ****         SC = vSC[i];
 358:../reversi8_2019.c ****         // flip: numero de fichas a voltear
 359:../reversi8_2019.c ****         flip = 0;
 360:../reversi8_2019.c ****         patron = patron_volteo(tablero, &flip, f, c, SF, SC, color);
 361:../reversi8_2019.c ****         if (patron == PATRON_ENCONTRADO )
 362:../reversi8_2019.c ****         {
 363:../reversi8_2019.c ****             voltear(tablero, f, c, SF, SC, flip, color);
 364:../reversi8_2019.c ****             jugada_valida = 1;          //TODO explicar
 365:../reversi8_2019.c ****         }
 366:../reversi8_2019.c ****     }
 367:../reversi8_2019.c ****     return 0;
 368:../reversi8_2019.c **** }
 369:../reversi8_2019.c **** 
 370:../reversi8_2019.c **** /////////////////////////////////////////////////////////////////////////////////
 371:../reversi8_2019.c **** // Recorre todo el tablero comprobando en cada posición si se puede mover
 372:../reversi8_2019.c **** // En caso afirmativo, consulta la puntuación de la posición y si es la mejor
 373:../reversi8_2019.c **** // que se ha encontrado la guarda
 374:../reversi8_2019.c **** // Al acabar escribe el movimiento seleccionado en f y c
 375:../reversi8_2019.c **** 
 376:../reversi8_2019.c **** // Candidatas
 377:../reversi8_2019.c **** // NO    0
 378:../reversi8_2019.c **** // SI    1
 379:../reversi8_2019.c **** // CASILLA_OCUPADA 2
 380:../reversi8_2019.c **** int elegir_mov(char candidatas[][DIM], char tablero[][DIM], char *f, char *c)
 381:../reversi8_2019.c **** {
 382:../reversi8_2019.c ****     int i, j, k, found;
 383:../reversi8_2019.c ****     int mf = -1; // almacena la fila del mejor movimiento encontrado
 384:../reversi8_2019.c ****     int mc;      // almacena la columna del mejor movimiento encontrado
 385:../reversi8_2019.c ****     char mejor = 0; // almacena el mejor valor encontrado
 386:../reversi8_2019.c ****     int patron, longitud;
 387:../reversi8_2019.c ****     char SF, SC; // cantidades a sumar para movernos en la dirección que toque
 388:../reversi8_2019.c **** 
 389:../reversi8_2019.c ****     // Recorremos todo el tablero comprobando dónde podemos mover
 390:../reversi8_2019.c ****     // Comparamos la puntuación de los movimientos encontrados y nos quedamos con el mejor
 391:../reversi8_2019.c ****     for (i=0; i<DIM; i++)
 392:../reversi8_2019.c ****     {
 393:../reversi8_2019.c ****         for (j=0; j<DIM; j++)
 394:../reversi8_2019.c ****         {   // indica en qué casillas quizá se pueda mover
 395:../reversi8_2019.c ****             if (candidatas[i][j] == SI)
 396:../reversi8_2019.c ****             {
 397:../reversi8_2019.c ****                 if (tablero[i][j] == CASILLA_VACIA)
 398:../reversi8_2019.c ****                 {
 399:../reversi8_2019.c ****                     found = 0;
 400:../reversi8_2019.c ****                     k = 0;
 401:../reversi8_2019.c **** 
 402:../reversi8_2019.c ****                     // en este bucle comprobamos si es un movimiento válido
 403:../reversi8_2019.c ****                     // (es decir si implica voltear en alguna dirección)
 404:../reversi8_2019.c ****                     while ((found == 0) && (k < DIM))
 405:../reversi8_2019.c ****                     {
 406:../reversi8_2019.c ****                         SF = vSF[k];    // k representa la dirección que miramos
 407:../reversi8_2019.c ****                         SC = vSC[k];    // 1 es norte, 2 NE, 3 E ...
 408:../reversi8_2019.c **** 
 409:../reversi8_2019.c ****                         // nos dice qué hay que voltear en cada dirección
 410:../reversi8_2019.c ****                         longitud = 0;
 411:../reversi8_2019.c ****                         patron = patron_volteo(tablero, &longitud, i, j, SF, SC, FICHA_BLANCA);
 412:../reversi8_2019.c ****                         if (patron == PATRON_ENCONTRADO)
 413:../reversi8_2019.c ****                         {
 414:../reversi8_2019.c ****                             found = 1;
 415:../reversi8_2019.c ****                             if (tabla_valor[i][j] > mejor)
 416:../reversi8_2019.c ****                             {
 417:../reversi8_2019.c ****                                 mf = i;
 418:../reversi8_2019.c ****                                 mc = j;
 419:../reversi8_2019.c ****                                 mejor = tabla_valor[i][j];
 420:../reversi8_2019.c ****                             }
 421:../reversi8_2019.c ****                         }
 422:../reversi8_2019.c ****                         k++;
 423:../reversi8_2019.c ****                         // si no hemos encontrado nada probamos con la siguiente dirección
 424:../reversi8_2019.c ****                     }
 425:../reversi8_2019.c ****                 }
 426:../reversi8_2019.c ****             }
 427:../reversi8_2019.c ****         }
 428:../reversi8_2019.c ****     }
 429:../reversi8_2019.c ****     *f = (char) mf;
 430:../reversi8_2019.c ****     *c = (char) mc;
 431:../reversi8_2019.c ****     // si no se ha encontrado una posición válida devuelve -1
 432:../reversi8_2019.c ****     return mf;
 433:../reversi8_2019.c **** }
 434:../reversi8_2019.c **** ////////////////////////////////////////////////////////////////////////////////
 435:../reversi8_2019.c **** // Cuenta el número de fichas de cada color.
 436:../reversi8_2019.c **** // Los guarda en la dirección b (blancas) y n (negras)
 437:../reversi8_2019.c **** void contar(char tablero[][DIM], int *b, int *n)
 438:../reversi8_2019.c **** {
 1102              		.loc 1 438 0
 1103              		.cfi_startproc
 1104              		@ Function supports interworking.
 1105              		@ args = 0, pretend = 0, frame = 0
 1106              		@ frame_needed = 0, uses_anonymous_args = 0
 1107              		@ link register save eliminated.
 1108              	.LVL0:
 439:../reversi8_2019.c ****     int i,j;
 440:../reversi8_2019.c **** 
 441:../reversi8_2019.c ****     *b = 0;
 1109              		.loc 1 441 0
 1110 0000 0030A0E3 		mov	r3, #0
 1111 0004 003081E5 		str	r3, [r1, #0]
 437:../reversi8_2019.c **** void contar(char tablero[][DIM], int *b, int *n)
 1112              		.loc 1 437 0
 1113 0008 40C080E2 		add	ip, r0, #64
 442:../reversi8_2019.c ****     *n = 0;
 1114              		.loc 1 442 0
 1115 000c 003082E5 		str	r3, [r2, #0]
 1116              	.LVL1:
 1117 0010 270000EA 		b	.L18
 1118              	.LVL2:
 1119              	.L30:
 443:../reversi8_2019.c **** 
 444:../reversi8_2019.c ****     // recorremos todo el tablero contando las fichas de cada color
 445:../reversi8_2019.c ****     for (i=0; i<DIM; i++)
 446:../reversi8_2019.c ****     {
 447:../reversi8_2019.c ****         for (j=0; j<DIM; j++)
 448:../reversi8_2019.c ****         {
 449:../reversi8_2019.c ****             if (tablero[i][j] == FICHA_BLANCA)
 450:../reversi8_2019.c ****             {
 451:../reversi8_2019.c ****                 (*b)++;
 452:../reversi8_2019.c ****             }
 453:../reversi8_2019.c ****             else if (tablero[i][j] == FICHA_NEGRA)
 1120              		.loc 1 453 0
 1121 0014 020053E3 		cmp	r3, #2
 1122 0018 5900000A 		beq	.L21
 1123              	.L3:
 1124              	.LVL3:
 449:../reversi8_2019.c ****             if (tablero[i][j] == FICHA_BLANCA)
 1125              		.loc 1 449 0
 1126 001c 0130D0E5 		ldrb	r3, [r0, #1]	@ zero_extendqisi2
 1127 0020 010053E3 		cmp	r3, #1
 1128 0024 2B00000A 		beq	.L4
 1129              	.L31:
 1130              		.loc 1 453 0
 1131 0028 020053E3 		cmp	r3, #2
 1132 002c 6400000A 		beq	.L22
 1133              	.L5:
 1134              	.LVL4:
 449:../reversi8_2019.c ****             if (tablero[i][j] == FICHA_BLANCA)
 1135              		.loc 1 449 0
 1136 0030 0230D0E5 		ldrb	r3, [r0, #2]	@ zero_extendqisi2
 1137 0034 010053E3 		cmp	r3, #1
 1138 0038 2C00000A 		beq	.L6
 1139              	.L32:
 1140              		.loc 1 453 0
 1141 003c 020053E3 		cmp	r3, #2
 1142 0040 5B00000A 		beq	.L23
 1143              	.L7:
 1144              	.LVL5:
 449:../reversi8_2019.c ****             if (tablero[i][j] == FICHA_BLANCA)
 1145              		.loc 1 449 0
 1146 0044 0330D0E5 		ldrb	r3, [r0, #3]	@ zero_extendqisi2
 1147 0048 010053E3 		cmp	r3, #1
 1148 004c 2D00000A 		beq	.L8
 1149              	.L33:
 1150              		.loc 1 453 0
 1151 0050 020053E3 		cmp	r3, #2
 1152 0054 5200000A 		beq	.L24
 1153              	.L9:
 1154              	.LVL6:
 449:../reversi8_2019.c ****             if (tablero[i][j] == FICHA_BLANCA)
 1155              		.loc 1 449 0
 1156 0058 0430D0E5 		ldrb	r3, [r0, #4]	@ zero_extendqisi2
 1157 005c 010053E3 		cmp	r3, #1
 1158 0060 2E00000A 		beq	.L10
 1159              	.L34:
 1160              		.loc 1 453 0
 1161 0064 020053E3 		cmp	r3, #2
 1162 0068 4900000A 		beq	.L25
 1163              	.L11:
 1164              	.LVL7:
 449:../reversi8_2019.c ****             if (tablero[i][j] == FICHA_BLANCA)
 1165              		.loc 1 449 0
 1166 006c 0530D0E5 		ldrb	r3, [r0, #5]	@ zero_extendqisi2
 1167 0070 010053E3 		cmp	r3, #1
 1168 0074 2F00000A 		beq	.L12
 1169              	.L35:
 1170              		.loc 1 453 0
 1171 0078 020053E3 		cmp	r3, #2
 1172 007c 5C00000A 		beq	.L26
 1173              	.L13:
 1174              	.LVL8:
 449:../reversi8_2019.c ****             if (tablero[i][j] == FICHA_BLANCA)
 1175              		.loc 1 449 0
 1176 0080 0630D0E5 		ldrb	r3, [r0, #6]	@ zero_extendqisi2
 1177 0084 010053E3 		cmp	r3, #1
 1178 0088 3000000A 		beq	.L14
 1179              	.L36:
 1180              		.loc 1 453 0
 1181 008c 020053E3 		cmp	r3, #2
 1182 0090 5300000A 		beq	.L27
 1183              	.L15:
 1184              	.LVL9:
 449:../reversi8_2019.c ****             if (tablero[i][j] == FICHA_BLANCA)
 1185              		.loc 1 449 0
 1186 0094 0730D0E5 		ldrb	r3, [r0, #7]	@ zero_extendqisi2
 1187 0098 010053E3 		cmp	r3, #1
 1188 009c 3100000A 		beq	.L16
 1189              	.L37:
 1190              		.loc 1 453 0
 1191 00a0 020053E3 		cmp	r3, #2
 1192 00a4 4A00000A 		beq	.L28
 1193              	.L17:
 1194              	.LVL10:
 451:../reversi8_2019.c ****                 (*b)++;
 1195              		.loc 1 451 0
 1196 00a8 080080E2 		add	r0, r0, #8
 445:../reversi8_2019.c ****     for (i=0; i<DIM; i++)
 1197              		.loc 1 445 0
 1198 00ac 0C0050E1 		cmp	r0, ip
 1199 00b0 3200000A 		beq	.L29
 1200              	.LVL11:
 1201              	.L18:
 449:../reversi8_2019.c ****             if (tablero[i][j] == FICHA_BLANCA)
 1202              		.loc 1 449 0 discriminator 1
 1203 00b4 0030D0E5 		ldrb	r3, [r0, #0]	@ zero_extendqisi2
 1204 00b8 010053E3 		cmp	r3, #1
 1205 00bc D4FFFF1A 		bne	.L30
 451:../reversi8_2019.c ****                 (*b)++;
 1206              		.loc 1 451 0
 1207 00c0 003091E5 		ldr	r3, [r1, #0]
 1208 00c4 013083E2 		add	r3, r3, #1
 1209 00c8 003081E5 		str	r3, [r1, #0]
 1210              	.LVL12:
 449:../reversi8_2019.c ****             if (tablero[i][j] == FICHA_BLANCA)
 1211              		.loc 1 449 0
 1212 00cc 0130D0E5 		ldrb	r3, [r0, #1]	@ zero_extendqisi2
 1213 00d0 010053E3 		cmp	r3, #1
 1214 00d4 D3FFFF1A 		bne	.L31
 1215              	.L4:
 451:../reversi8_2019.c ****                 (*b)++;
 1216              		.loc 1 451 0
 1217 00d8 003091E5 		ldr	r3, [r1, #0]
 1218 00dc 013083E2 		add	r3, r3, #1
 1219 00e0 003081E5 		str	r3, [r1, #0]
 1220              	.LVL13:
 449:../reversi8_2019.c ****             if (tablero[i][j] == FICHA_BLANCA)
 1221              		.loc 1 449 0
 1222 00e4 0230D0E5 		ldrb	r3, [r0, #2]	@ zero_extendqisi2
 1223 00e8 010053E3 		cmp	r3, #1
 1224 00ec D2FFFF1A 		bne	.L32
 1225              	.L6:
 451:../reversi8_2019.c ****                 (*b)++;
 1226              		.loc 1 451 0
 1227 00f0 003091E5 		ldr	r3, [r1, #0]
 1228 00f4 013083E2 		add	r3, r3, #1
 1229 00f8 003081E5 		str	r3, [r1, #0]
 1230              	.LVL14:
 449:../reversi8_2019.c ****             if (tablero[i][j] == FICHA_BLANCA)
 1231              		.loc 1 449 0
 1232 00fc 0330D0E5 		ldrb	r3, [r0, #3]	@ zero_extendqisi2
 1233 0100 010053E3 		cmp	r3, #1
 1234 0104 D1FFFF1A 		bne	.L33
 1235              	.L8:
 451:../reversi8_2019.c ****                 (*b)++;
 1236              		.loc 1 451 0
 1237 0108 003091E5 		ldr	r3, [r1, #0]
 1238 010c 013083E2 		add	r3, r3, #1
 1239 0110 003081E5 		str	r3, [r1, #0]
 1240              	.LVL15:
 449:../reversi8_2019.c ****             if (tablero[i][j] == FICHA_BLANCA)
 1241              		.loc 1 449 0
 1242 0114 0430D0E5 		ldrb	r3, [r0, #4]	@ zero_extendqisi2
 1243 0118 010053E3 		cmp	r3, #1
 1244 011c D0FFFF1A 		bne	.L34
 1245              	.L10:
 451:../reversi8_2019.c ****                 (*b)++;
 1246              		.loc 1 451 0
 1247 0120 003091E5 		ldr	r3, [r1, #0]
 1248 0124 013083E2 		add	r3, r3, #1
 1249 0128 003081E5 		str	r3, [r1, #0]
 1250              	.LVL16:
 449:../reversi8_2019.c ****             if (tablero[i][j] == FICHA_BLANCA)
 1251              		.loc 1 449 0
 1252 012c 0530D0E5 		ldrb	r3, [r0, #5]	@ zero_extendqisi2
 1253 0130 010053E3 		cmp	r3, #1
 1254 0134 CFFFFF1A 		bne	.L35
 1255              	.L12:
 451:../reversi8_2019.c ****                 (*b)++;
 1256              		.loc 1 451 0
 1257 0138 003091E5 		ldr	r3, [r1, #0]
 1258 013c 013083E2 		add	r3, r3, #1
 1259 0140 003081E5 		str	r3, [r1, #0]
 1260              	.LVL17:
 449:../reversi8_2019.c ****             if (tablero[i][j] == FICHA_BLANCA)
 1261              		.loc 1 449 0
 1262 0144 0630D0E5 		ldrb	r3, [r0, #6]	@ zero_extendqisi2
 1263 0148 010053E3 		cmp	r3, #1
 1264 014c CEFFFF1A 		bne	.L36
 1265              	.L14:
 451:../reversi8_2019.c ****                 (*b)++;
 1266              		.loc 1 451 0
 1267 0150 003091E5 		ldr	r3, [r1, #0]
 1268 0154 013083E2 		add	r3, r3, #1
 1269 0158 003081E5 		str	r3, [r1, #0]
 1270              	.LVL18:
 449:../reversi8_2019.c ****             if (tablero[i][j] == FICHA_BLANCA)
 1271              		.loc 1 449 0
 1272 015c 0730D0E5 		ldrb	r3, [r0, #7]	@ zero_extendqisi2
 1273 0160 010053E3 		cmp	r3, #1
 1274 0164 CDFFFF1A 		bne	.L37
 1275              	.L16:
 451:../reversi8_2019.c ****                 (*b)++;
 1276              		.loc 1 451 0
 1277 0168 003091E5 		ldr	r3, [r1, #0]
 1278 016c 080080E2 		add	r0, r0, #8
 1279 0170 013083E2 		add	r3, r3, #1
 445:../reversi8_2019.c ****     for (i=0; i<DIM; i++)
 1280              		.loc 1 445 0
 1281 0174 0C0050E1 		cmp	r0, ip
 451:../reversi8_2019.c ****                 (*b)++;
 1282              		.loc 1 451 0
 1283 0178 003081E5 		str	r3, [r1, #0]
 1284              	.LVL19:
 445:../reversi8_2019.c ****     for (i=0; i<DIM; i++)
 1285              		.loc 1 445 0
 1286 017c CCFFFF1A 		bne	.L18
 1287              	.L29:
 454:../reversi8_2019.c ****             {
 455:../reversi8_2019.c ****                 (*n)++;
 456:../reversi8_2019.c ****             }
 457:../reversi8_2019.c ****         }
 458:../reversi8_2019.c ****     }
 459:../reversi8_2019.c **** }
 1288              		.loc 1 459 0
 1289 0180 1EFF2FE1 		bx	lr
 1290              	.LVL20:
 1291              	.L21:
 455:../reversi8_2019.c ****                 (*n)++;
 1292              		.loc 1 455 0
 1293 0184 003092E5 		ldr	r3, [r2, #0]
 1294 0188 013083E2 		add	r3, r3, #1
 1295 018c 003082E5 		str	r3, [r2, #0]
 1296 0190 A1FFFFEA 		b	.L3
 1297              	.LVL21:
 1298              	.L25:
 1299 0194 003092E5 		ldr	r3, [r2, #0]
 1300 0198 013083E2 		add	r3, r3, #1
 1301 019c 003082E5 		str	r3, [r2, #0]
 1302 01a0 B1FFFFEA 		b	.L11
 1303              	.LVL22:
 1304              	.L24:
 1305 01a4 003092E5 		ldr	r3, [r2, #0]
 1306 01a8 013083E2 		add	r3, r3, #1
 1307 01ac 003082E5 		str	r3, [r2, #0]
 1308 01b0 A8FFFFEA 		b	.L9
 1309              	.LVL23:
 1310              	.L23:
 1311 01b4 003092E5 		ldr	r3, [r2, #0]
 1312 01b8 013083E2 		add	r3, r3, #1
 1313 01bc 003082E5 		str	r3, [r2, #0]
 1314 01c0 9FFFFFEA 		b	.L7
 1315              	.LVL24:
 1316              	.L22:
 1317 01c4 003092E5 		ldr	r3, [r2, #0]
 1318 01c8 013083E2 		add	r3, r3, #1
 1319 01cc 003082E5 		str	r3, [r2, #0]
 1320 01d0 96FFFFEA 		b	.L5
 1321              	.LVL25:
 1322              	.L28:
 1323 01d4 003092E5 		ldr	r3, [r2, #0]
 1324 01d8 013083E2 		add	r3, r3, #1
 1325 01dc 003082E5 		str	r3, [r2, #0]
 1326 01e0 B0FFFFEA 		b	.L17
 1327              	.LVL26:
 1328              	.L27:
 1329 01e4 003092E5 		ldr	r3, [r2, #0]
 1330 01e8 013083E2 		add	r3, r3, #1
 1331 01ec 003082E5 		str	r3, [r2, #0]
 1332 01f0 A7FFFFEA 		b	.L15
 1333              	.LVL27:
 1334              	.L26:
 1335 01f4 003092E5 		ldr	r3, [r2, #0]
 1336 01f8 013083E2 		add	r3, r3, #1
 1337 01fc 003082E5 		str	r3, [r2, #0]
 1338 0200 9EFFFFEA 		b	.L13
 1339              		.cfi_endproc
 1340              	.LFE15:
 1342              		.align	2
 1344              	patron_volteo.clone.2:
 1345              	.LFB23:
 290:../reversi8_2019.c **** int patron_volteo(char tablero[][DIM], int *longitud, char FA, char CA, char SF, char SC, char colo
 1346              		.loc 1 290 0
 1347              		.cfi_startproc
 1348              		@ Function supports interworking.
 1349              		@ args = 8, pretend = 0, frame = 8
 1350              		@ frame_needed = 1, uses_anonymous_args = 0
 1351              	.LVL28:
 1352 0204 0DC0A0E1 		mov	ip, sp
 1353              	.LCFI0:
 1354              		.cfi_def_cfa_register 12
 1355 0208 F0DF2DE9 		stmfd	sp!, {r4, r5, r6, r7, r8, r9, sl, fp, ip, lr, pc}
 1356 020c 04B04CE2 		sub	fp, ip, #4
 1357              		.cfi_offset 14, -8
 1358              		.cfi_offset 13, -12
 1359              		.cfi_offset 11, -16
 1360              		.cfi_offset 10, -20
 1361              		.cfi_offset 9, -24
 1362              		.cfi_offset 8, -28
 1363              		.cfi_offset 7, -32
 1364              		.cfi_offset 6, -36
 1365              		.cfi_offset 5, -40
 1366              		.cfi_offset 4, -44
 1367              	.LCFI1:
 1368              		.cfi_def_cfa 11, 4
 1369 0210 0CD04DE2 		sub	sp, sp, #12
 290:../reversi8_2019.c **** int patron_volteo(char tablero[][DIM], int *longitud, char FA, char CA, char SF, char SC, char colo
 1370              		.loc 1 290 0
 1371 0214 03A0A0E1 		mov	sl, r3
 1372 0218 0440DBE5 		ldrb	r4, [fp, #4]	@ zero_extendqisi2
 1373 021c 0150A0E1 		mov	r5, r1
 1374 0220 0260A0E1 		mov	r6, r2
 1375 0224 0070A0E1 		mov	r7, r0
 1376 0228 0880DBE5 		ldrb	r8, [fp, #8]	@ zero_extendqisi2
 292:../reversi8_2019.c **** 	int t_inicio = timer2_leer();
 1377              		.loc 1 292 0
 1378 022c FEFFFFEB 		bl	timer2_leer
 1379              	.LVL29:
 297:../reversi8_2019.c **** 	FA = FA + SF;
 1380              		.loc 1 297 0
 1381 0230 05108AE0 		add	r1, sl, r5
 298:../reversi8_2019.c **** 	CA = CA + SC;
 1382              		.loc 1 298 0
 1383 0234 062084E0 		add	r2, r4, r6
 297:../reversi8_2019.c **** 	FA = FA + SF;
 1384              		.loc 1 297 0
 1385 0238 FF1001E2 		and	r1, r1, #255
 298:../reversi8_2019.c **** 	CA = CA + SC;
 1386              		.loc 1 298 0
 1387 023c FF2002E2 		and	r2, r2, #255
 1388              	.LBB20:
 1389              	.LBB22:
 267:../reversi8_2019.c ****     if ((f < DIM) && (c < DIM) && (tablero[f][c] != CASILLA_VACIA))
 1390              		.loc 1 267 0
 1391 0240 070052E3 		cmp	r2, #7
 1392 0244 07005193 		cmpls	r1, #7
 1393              	.LBE22:
 1394              	.LBE20:
 292:../reversi8_2019.c **** 	int t_inicio = timer2_leer();
 1395              		.loc 1 292 0
 1396 0248 0030A0E1 		mov	r3, r0
 1397              	.LVL30:
 1398              	.LBB24:
 1399              	.LBB21:
 267:../reversi8_2019.c ****     if ((f < DIM) && (c < DIM) && (tablero[f][c] != CASILLA_VACIA))
 1400              		.loc 1 267 0
 1401 024c 00C0A083 		movhi	ip, #0
 1402 0250 01C0A093 		movls	ip, #1
 1403 0254 3400008A 		bhi	.L45
 1404 0258 08919FE5 		ldr	r9, .L51
 1405 025c 810182E0 		add	r0, r2, r1, asl #3
 1406              	.LVL31:
 1407 0260 0000D9E7 		ldrb	r0, [r9, r0]	@ zero_extendqisi2
 269:../reversi8_2019.c ****         *posicion_valida = 1;
 1408              		.loc 1 269 0
 1409 0264 000050E3 		cmp	r0, #0
 1410 0268 00C0A001 		moveq	ip, r0
 1411 026c 01C0A013 		movne	ip, #1
 1412              	.LVL32:
 1413              	.L41:
 1414              	.LBE21:
 1415              	.LBE24:
 300:../reversi8_2019.c **** 	while ((posicion_valida == 1) && (casilla != color))
 1416              		.loc 1 300 0
 1417 0270 FFC00CE2 		and	ip, ip, #255
 1418 0274 080050E1 		cmp	r0, r8
 1419 0278 00E0A003 		moveq	lr, #0
 1420 027c 01E00C12 		andne	lr, ip, #1
 1421              	.LBB25:
 1422              	.LBB27:
 267:../reversi8_2019.c ****     if ((f < DIM) && (c < DIM) && (tablero[f][c] != CASILLA_VACIA))
 1423              		.loc 1 267 0
 1424 0280 0A1081E0 		add	r1, r1, sl
 1425 0284 042082E0 		add	r2, r2, r4
 1426              	.LBE27:
 1427              	.LBE25:
 300:../reversi8_2019.c **** 	while ((posicion_valida == 1) && (casilla != color))
 1428              		.loc 1 300 0
 1429 0288 00005EE3 		cmp	lr, #0
 1430              	.LBB30:
 1431              	.LBB28:
 267:../reversi8_2019.c ****     if ((f < DIM) && (c < DIM) && (tablero[f][c] != CASILLA_VACIA))
 1432              		.loc 1 267 0
 1433 028c FF1001E2 		and	r1, r1, #255
 1434 0290 FF2002E2 		and	r2, r2, #255
 1435              	.LVL33:
 1436              	.LBE28:
 1437              	.LBE30:
 300:../reversi8_2019.c **** 	while ((posicion_valida == 1) && (casilla != color))
 1438              		.loc 1 300 0
 1439 0294 0E00000A 		beq	.L49
 1440              	.LVL34:
 306:../reversi8_2019.c **** 		*longitud = *longitud + 1;
 1441              		.loc 1 306 0
 1442 0298 00E097E5 		ldr	lr, [r7, #0]
 1443              	.LBB31:
 1444              	.LBB26:
 267:../reversi8_2019.c ****     if ((f < DIM) && (c < DIM) && (tablero[f][c] != CASILLA_VACIA))
 1445              		.loc 1 267 0
 1446 029c 070052E3 		cmp	r2, #7
 1447 02a0 07005193 		cmpls	r1, #7
 1448 02a4 00C0A083 		movhi	ip, #0
 1449 02a8 01C0A093 		movls	ip, #1
 1450              	.LBE26:
 1451              	.LBE31:
 306:../reversi8_2019.c **** 		*longitud = *longitud + 1;
 1452              		.loc 1 306 0
 1453 02ac 01E08EE2 		add	lr, lr, #1
 1454 02b0 00E087E5 		str	lr, [r7, #0]
 1455              	.LVL35:
 1456              	.LBB32:
 1457              	.LBB29:
 275:../reversi8_2019.c ****         ficha = CASILLA_VACIA;
 1458              		.loc 1 275 0
 1459 02b4 0C00A081 		movhi	r0, ip
 1460              	.LVL36:
 267:../reversi8_2019.c ****     if ((f < DIM) && (c < DIM) && (tablero[f][c] != CASILLA_VACIA))
 1461              		.loc 1 267 0
 1462 02b8 ECFFFF8A 		bhi	.L41
 1463 02bc 81C182E0 		add	ip, r2, r1, asl #3
 1464 02c0 0C00D9E7 		ldrb	r0, [r9, ip]	@ zero_extendqisi2
 269:../reversi8_2019.c ****         *posicion_valida = 1;
 1465              		.loc 1 269 0
 1466 02c4 000050E3 		cmp	r0, #0
 1467 02c8 00C0A001 		moveq	ip, r0
 1468 02cc 01C0A013 		movne	ip, #1
 1469 02d0 E6FFFFEA 		b	.L41
 1470              	.LVL37:
 1471              	.L49:
 1472              	.LBE29:
 1473              	.LBE32:
 311:../reversi8_2019.c **** 	if ((posicion_valida == 1) && (casilla == color) && (*longitud >0))
 1474              		.loc 1 311 0
 1475 02d4 000058E1 		cmp	r8, r0
 1476 02d8 00C0A013 		movne	ip, #0
 1477 02dc 01C00C02 		andeq	ip, ip, #1
 1478 02e0 00005CE3 		cmp	ip, #0
 1479 02e4 0200000A 		beq	.L43
 1480 02e8 000097E5 		ldr	r0, [r7, #0]
 1481              	.LVL38:
 1482 02ec 000050E3 		cmp	r0, #0
 1483 02f0 100000CA 		bgt	.L50
 1484              	.L43:
 320:../reversi8_2019.c **** 		t_final = timer2_leer();
 1485              		.loc 1 320 0
 1486 02f4 30300BE5 		str	r3, [fp, #-48]
 1487 02f8 FEFFFFEB 		bl	timer2_leer
 1488              	.LVL39:
 321:../reversi8_2019.c **** 		t_pv += (t_final - t_inicio);
 1489              		.loc 1 321 0
 1490 02fc 401099E5 		ldr	r1, [r9, #64]
 1491 0300 30301BE5 		ldr	r3, [fp, #-48]
 322:../reversi8_2019.c **** 		veces_pv++;
 1492              		.loc 1 322 0
 1493 0304 442099E5 		ldr	r2, [r9, #68]
 321:../reversi8_2019.c **** 		t_pv += (t_final - t_inicio);
 1494              		.loc 1 321 0
 1495 0308 01C063E0 		rsb	ip, r3, r1
 1496 030c 00108CE0 		add	r1, ip, r0
 1497 0310 401089E5 		str	r1, [r9, #64]
 322:../reversi8_2019.c **** 		veces_pv++;
 1498              		.loc 1 322 0
 1499 0314 010082E2 		add	r0, r2, #1
 1500              	.LVL40:
 1501 0318 440089E5 		str	r0, [r9, #68]
 323:../reversi8_2019.c **** 		return NO_HAY_PATRON; // si no hay que voltear no hay patrón
 1502              		.loc 1 323 0
 1503 031c 0000A0E3 		mov	r0, #0
 1504              	.L44:
 325:../reversi8_2019.c **** }
 1505              		.loc 1 325 0
 1506 0320 28D04BE2 		sub	sp, fp, #40
 1507 0324 F06F9DE8 		ldmfd	sp, {r4, r5, r6, r7, r8, r9, sl, fp, sp, lr}
 1508 0328 1EFF2FE1 		bx	lr
 1509              	.LVL41:
 1510              	.L45:
 1511 032c 34909FE5 		ldr	r9, .L51
 1512              	.LBB33:
 1513              	.LBB23:
 275:../reversi8_2019.c ****         ficha = CASILLA_VACIA;
 1514              		.loc 1 275 0
 1515 0330 0C00A0E1 		mov	r0, ip
 1516              	.LVL42:
 1517 0334 CDFFFFEA 		b	.L41
 1518              	.LVL43:
 1519              	.L50:
 1520              	.LBE23:
 1521              	.LBE33:
 313:../reversi8_2019.c **** 		t_final = timer2_leer();
 1522              		.loc 1 313 0
 1523 0338 30300BE5 		str	r3, [fp, #-48]
 1524 033c FEFFFFEB 		bl	timer2_leer
 1525              	.LVL44:
 314:../reversi8_2019.c **** 		t_pv += (t_final - t_inicio);
 1526              		.loc 1 314 0
 1527 0340 403099E5 		ldr	r3, [r9, #64]
 1528 0344 30C01BE5 		ldr	ip, [fp, #-48]
 315:../reversi8_2019.c **** 		veces_pv++;
 1529              		.loc 1 315 0
 1530 0348 442099E5 		ldr	r2, [r9, #68]
 314:../reversi8_2019.c **** 		t_pv += (t_final - t_inicio);
 1531              		.loc 1 314 0
 1532 034c 03106CE0 		rsb	r1, ip, r3
 1533 0350 003081E0 		add	r3, r1, r0
 315:../reversi8_2019.c **** 		veces_pv++;
 1534              		.loc 1 315 0
 1535 0354 01C082E2 		add	ip, r2, #1
 314:../reversi8_2019.c **** 		t_pv += (t_final - t_inicio);
 1536              		.loc 1 314 0
 1537 0358 403089E5 		str	r3, [r9, #64]
 315:../reversi8_2019.c **** 		veces_pv++;
 1538              		.loc 1 315 0
 1539 035c 44C089E5 		str	ip, [r9, #68]
 316:../reversi8_2019.c **** 		return PATRON_ENCONTRADO; // si hay que voltear una ficha o más hemos encontrado el patrón
 1540              		.loc 1 316 0
 1541 0360 0100A0E3 		mov	r0, #1
 1542              	.LVL45:
 1543 0364 EDFFFFEA 		b	.L44
 1544              	.L52:
 1545              		.align	2
 1546              	.L51:
 1547 0368 00000000 		.word	.LANCHOR0
 1548              		.cfi_endproc
 1549              	.LFE23:
 1551              		.align	2
 1553              	actualizar_candidatas.clone.5:
 1554              	.LFB20:
 460:../reversi8_2019.c **** 
 461:../reversi8_2019.c **** void actualizar_candidatas(char candidatas[][DIM], char f, char c)
 1555              		.loc 1 461 0
 1556              		.cfi_startproc
 1557              		@ Function supports interworking.
 1558              		@ args = 0, pretend = 0, frame = 0
 1559              		@ frame_needed = 0, uses_anonymous_args = 0
 1560              		@ link register save eliminated.
 1561              	.LVL46:
 462:../reversi8_2019.c **** {
 463:../reversi8_2019.c ****     // donde ya se ha colocado no se puede volver a colocar
 464:../reversi8_2019.c ****     // En las posiciones alrededor sí
 465:../reversi8_2019.c ****     candidatas[f][c] = CASILLA_OCUPADA;
 1562              		.loc 1 465 0
 1563 036c 50319FE5 		ldr	r3, .L70
 1564 0370 8021A0E1 		mov	r2, r0, asl #3
 461:../reversi8_2019.c **** void actualizar_candidatas(char candidatas[][DIM], char f, char c)
 1565              		.loc 1 461 0
 1566 0374 30002DE9 		stmfd	sp!, {r4, r5}
 1567              	.LCFI2:
 1568              		.cfi_def_cfa_offset 8
 1569              		.loc 1 465 0
 1570 0378 024083E0 		add	r4, r3, r2
 1571              		.cfi_offset 5, -4
 1572              		.cfi_offset 4, -8
 1573 037c 01C084E0 		add	ip, r4, r1
 466:../reversi8_2019.c ****     if (f > 0)
 1574              		.loc 1 466 0
 1575 0380 000050E3 		cmp	r0, #0
 465:../reversi8_2019.c ****     candidatas[f][c] = CASILLA_OCUPADA;
 1576              		.loc 1 465 0
 1577 0384 0240A0E3 		mov	r4, #2
 1578 0388 4840CCE5 		strb	r4, [ip, #72]
 1579              		.loc 1 466 0
 1580 038c 1200000A 		beq	.L54
 467:../reversi8_2019.c ****     {
 468:../reversi8_2019.c ****         if (candidatas[f-1][c] != CASILLA_OCUPADA)
 1581              		.loc 1 468 0
 1582 0390 01C040E2 		sub	ip, r0, #1
 1583 0394 8CC1A0E1 		mov	ip, ip, asl #3
 1584 0398 0C5083E0 		add	r5, r3, ip
 1585 039c 014085E0 		add	r4, r5, r1
 1586 03a0 4850D4E5 		ldrb	r5, [r4, #72]	@ zero_extendqisi2
 1587 03a4 020055E3 		cmp	r5, #2
 469:../reversi8_2019.c ****             candidatas[f-1][c] = SI;
 1588              		.loc 1 469 0
 1589 03a8 0150A013 		movne	r5, #1
 1590 03ac 4850C415 		strneb	r5, [r4, #72]
 470:../reversi8_2019.c **** 
 471:../reversi8_2019.c ****         if ((c > 0) && (candidatas[f-1][c-1] != CASILLA_OCUPADA))
 1591              		.loc 1 471 0
 1592 03b0 000051E3 		cmp	r1, #0
 1593 03b4 3600001A 		bne	.L67
 1594              	.L56:
 472:../reversi8_2019.c ****             candidatas[f-1][c-1] = SI;
 473:../reversi8_2019.c **** 
 474:../reversi8_2019.c ****         if ((c < 7) && (candidatas[f-1][c+1] != CASILLA_OCUPADA))
 1595              		.loc 1 474 0
 1596 03b8 014081E2 		add	r4, r1, #1
 1597 03bc 0CC083E0 		add	ip, r3, ip
 1598 03c0 04C08CE0 		add	ip, ip, r4
 1599 03c4 4840DCE5 		ldrb	r4, [ip, #72]	@ zero_extendqisi2
 1600 03c8 020054E3 		cmp	r4, #2
 475:../reversi8_2019.c ****             candidatas[f-1][c+1] = SI;
 1601              		.loc 1 475 0
 1602 03cc 0140A013 		movne	r4, #1
 1603 03d0 4840CC15 		strneb	r4, [ip, #72]
 1604              	.L58:
 476:../reversi8_2019.c ****     }
 477:../reversi8_2019.c ****     if (f < 7)
 1605              		.loc 1 477 0
 1606 03d4 060050E3 		cmp	r0, #6
 1607 03d8 1000008A 		bhi	.L59
 1608              	.L54:
 478:../reversi8_2019.c ****     {
 479:../reversi8_2019.c ****         if (candidatas[f+1][c] != CASILLA_OCUPADA)
 1609              		.loc 1 479 0
 1610 03dc 010080E2 		add	r0, r0, #1
 1611              	.LVL47:
 1612 03e0 8001A0E1 		mov	r0, r0, asl #3
 1613 03e4 004083E0 		add	r4, r3, r0
 1614 03e8 01C084E0 		add	ip, r4, r1
 1615 03ec 4840DCE5 		ldrb	r4, [ip, #72]	@ zero_extendqisi2
 1616 03f0 020054E3 		cmp	r4, #2
 480:../reversi8_2019.c ****             candidatas[f+1][c] = SI;
 1617              		.loc 1 480 0
 1618 03f4 0140A013 		movne	r4, #1
 1619 03f8 4840CC15 		strneb	r4, [ip, #72]
 481:../reversi8_2019.c **** 
 482:../reversi8_2019.c ****         if ((c > 0) && (candidatas[f+1][c-1] != CASILLA_OCUPADA))
 1620              		.loc 1 482 0
 1621 03fc 000051E3 		cmp	r1, #0
 1622 0400 1100001A 		bne	.L68
 1623              	.L61:
 483:../reversi8_2019.c ****             candidatas[f+1][c-1] = SI;
 484:../reversi8_2019.c **** 
 485:../reversi8_2019.c ****         if ((c < 7) && (candidatas[f+1][c+1] != CASILLA_OCUPADA))
 1624              		.loc 1 485 0
 1625 0404 01C081E2 		add	ip, r1, #1
 1626 0408 000083E0 		add	r0, r3, r0
 1627 040c 0C0080E0 		add	r0, r0, ip
 1628 0410 48C0D0E5 		ldrb	ip, [r0, #72]	@ zero_extendqisi2
 1629 0414 02005CE3 		cmp	ip, #2
 486:../reversi8_2019.c ****             candidatas[f+1][c+1] = SI;
 1630              		.loc 1 486 0
 1631 0418 01C0A013 		movne	ip, #1
 1632 041c 48C0C015 		strneb	ip, [r0, #72]
 1633              	.L59:
 487:../reversi8_2019.c ****     }
 488:../reversi8_2019.c ****     if ((c > 0) && (candidatas[f][c-1] != CASILLA_OCUPADA))
 1634              		.loc 1 488 0
 1635 0420 000051E3 		cmp	r1, #0
 1636 0424 2400001A 		bne	.L69
 1637              	.L64:
 489:../reversi8_2019.c ****         candidatas[f][c-1] = SI;
 490:../reversi8_2019.c **** 
 491:../reversi8_2019.c ****     if ((c < 7) && (candidatas[f][c+1] != CASILLA_OCUPADA))
 1638              		.loc 1 491 0
 1639 0428 02C083E0 		add	ip, r3, r2
 1640 042c 011081E2 		add	r1, r1, #1
 1641              	.LVL48:
 1642 0430 01308CE0 		add	r3, ip, r1
 1643 0434 4820D3E5 		ldrb	r2, [r3, #72]	@ zero_extendqisi2
 1644 0438 020052E3 		cmp	r2, #2
 492:../reversi8_2019.c ****         candidatas[f][c+1] = SI;
 1645              		.loc 1 492 0
 1646 043c 0120A013 		movne	r2, #1
 1647 0440 4820C315 		strneb	r2, [r3, #72]
 1648              	.L53:
 493:../reversi8_2019.c **** }
 1649              		.loc 1 493 0
 1650 0444 3000BDE8 		ldmfd	sp!, {r4, r5}
 1651 0448 1EFF2FE1 		bx	lr
 1652              	.LVL49:
 1653              	.L68:
 482:../reversi8_2019.c ****         if ((c > 0) && (candidatas[f+1][c-1] != CASILLA_OCUPADA))
 1654              		.loc 1 482 0
 1655 044c 005083E0 		add	r5, r3, r0
 1656 0450 01C041E2 		sub	ip, r1, #1
 1657 0454 0C4085E0 		add	r4, r5, ip
 1658 0458 4850D4E5 		ldrb	r5, [r4, #72]	@ zero_extendqisi2
 1659 045c 020055E3 		cmp	r5, #2
 483:../reversi8_2019.c ****             candidatas[f+1][c-1] = SI;
 1660              		.loc 1 483 0
 1661 0460 0150A013 		movne	r5, #1
 1662 0464 4850C415 		strneb	r5, [r4, #72]
 485:../reversi8_2019.c ****         if ((c < 7) && (candidatas[f+1][c+1] != CASILLA_OCUPADA))
 1663              		.loc 1 485 0
 1664 0468 060051E3 		cmp	r1, #6
 1665 046c E4FFFF9A 		bls	.L61
 1666              	.L63:
 488:../reversi8_2019.c ****     if ((c > 0) && (candidatas[f][c-1] != CASILLA_OCUPADA))
 1667              		.loc 1 488 0
 1668 0470 020083E0 		add	r0, r3, r2
 1669 0474 0C0080E0 		add	r0, r0, ip
 1670 0478 48C0D0E5 		ldrb	ip, [r0, #72]	@ zero_extendqisi2
 1671 047c 02005CE3 		cmp	ip, #2
 489:../reversi8_2019.c ****         candidatas[f][c-1] = SI;
 1672              		.loc 1 489 0
 1673 0480 01C0A013 		movne	ip, #1
 1674 0484 48C0C015 		strneb	ip, [r0, #72]
 491:../reversi8_2019.c ****     if ((c < 7) && (candidatas[f][c+1] != CASILLA_OCUPADA))
 1675              		.loc 1 491 0
 1676 0488 060051E3 		cmp	r1, #6
 1677 048c ECFFFF8A 		bhi	.L53
 1678 0490 E4FFFFEA 		b	.L64
 1679              	.LVL50:
 1680              	.L67:
 471:../reversi8_2019.c ****         if ((c > 0) && (candidatas[f-1][c-1] != CASILLA_OCUPADA))
 1681              		.loc 1 471 0
 1682 0494 0C5083E0 		add	r5, r3, ip
 1683 0498 014041E2 		sub	r4, r1, #1
 1684 049c 044085E0 		add	r4, r5, r4
 1685 04a0 4850D4E5 		ldrb	r5, [r4, #72]	@ zero_extendqisi2
 1686 04a4 020055E3 		cmp	r5, #2
 472:../reversi8_2019.c ****             candidatas[f-1][c-1] = SI;
 1687              		.loc 1 472 0
 1688 04a8 0150A013 		movne	r5, #1
 1689 04ac 4850C415 		strneb	r5, [r4, #72]
 474:../reversi8_2019.c ****         if ((c < 7) && (candidatas[f-1][c+1] != CASILLA_OCUPADA))
 1690              		.loc 1 474 0
 1691 04b0 060051E3 		cmp	r1, #6
 1692 04b4 C6FFFF8A 		bhi	.L58
 1693 04b8 BEFFFFEA 		b	.L56
 1694              	.LVL51:
 1695              	.L69:
 488:../reversi8_2019.c ****     if ((c > 0) && (candidatas[f][c-1] != CASILLA_OCUPADA))
 1696              		.loc 1 488 0
 1697 04bc 01C041E2 		sub	ip, r1, #1
 1698 04c0 EAFFFFEA 		b	.L63
 1699              	.L71:
 1700              		.align	2
 1701              	.L70:
 1702 04c4 00000000 		.word	.LANCHOR0
 1703              		.cfi_endproc
 1704              	.LFE20:
 1706              		.align	2
 1707              		.global	obtener_jugada_valida
 1709              	obtener_jugada_valida:
 1710              	.LFB0:
 113:../reversi8_2019.c **** {
 1711              		.loc 1 113 0
 1712              		.cfi_startproc
 1713              		@ Function supports interworking.
 1714              		@ args = 0, pretend = 0, frame = 0
 1715              		@ frame_needed = 0, uses_anonymous_args = 0
 1716              		@ link register save eliminated.
 113:../reversi8_2019.c **** {
 1717              		.loc 1 113 0
 1718 04c8 04309FE5 		ldr	r3, .L73
 115:../reversi8_2019.c **** }
 1719              		.loc 1 115 0
 1720 04cc 880093E5 		ldr	r0, [r3, #136]
 1721 04d0 1EFF2FE1 		bx	lr
 1722              	.L74:
 1723              		.align	2
 1724              	.L73:
 1725 04d4 00000000 		.word	.LANCHOR0
 1726              		.cfi_endproc
 1727              	.LFE0:
 1729              		.align	2
 1730              		.global	obtener_fin
 1732              	obtener_fin:
 1733              	.LFB1:
 118:../reversi8_2019.c **** {
 1734              		.loc 1 118 0
 1735              		.cfi_startproc
 1736              		@ Function supports interworking.
 1737              		@ args = 0, pretend = 0, frame = 0
 1738              		@ frame_needed = 0, uses_anonymous_args = 0
 1739              		@ link register save eliminated.
 119:../reversi8_2019.c **** 	if(fin == 0)
 1740              		.loc 1 119 0
 1741 04d8 28309FE5 		ldr	r3, .L80
 1742 04dc 8C0093E5 		ldr	r0, [r3, #140]
 1743 04e0 000050E3 		cmp	r0, #0
 1744 04e4 1EFF2F01 		bxeq	lr
 125:../reversi8_2019.c **** 		if(blancas > negras)
 1745              		.loc 1 125 0
 1746 04e8 902083E2 		add	r2, r3, #144
 1747 04ec 0C0092E8 		ldmia	r2, {r2, r3}	@ phole ldm
 1748 04f0 030052E1 		cmp	r2, r3
 127:../reversi8_2019.c **** 			return cpu_gana;
 1749              		.loc 1 127 0
 1750 04f4 0200A0C3 		movgt	r0, #2
 125:../reversi8_2019.c **** 		if(blancas > negras)
 1751              		.loc 1 125 0
 1752 04f8 1EFF2FC1 		bxgt	lr
 131:../reversi8_2019.c **** 			return jugador_gana;
 1753              		.loc 1 131 0
 1754 04fc 0100A0B3 		movlt	r0, #1
 135:../reversi8_2019.c **** 	return empate;
 1755              		.loc 1 135 0
 1756 0500 0300A0A3 		movge	r0, #3
 136:../reversi8_2019.c **** }
 1757              		.loc 1 136 0
 1758 0504 1EFF2FE1 		bx	lr
 1759              	.L81:
 1760              		.align	2
 1761              	.L80:
 1762 0508 00000000 		.word	.LANCHOR0
 1763              		.cfi_endproc
 1764              	.LFE1:
 1766              		.align	2
 1767              		.global	obtener_tablero
 1769              	obtener_tablero:
 1770              	.LFB2:
 140:../reversi8_2019.c **** {
 1771              		.loc 1 140 0
 1772              		.cfi_startproc
 1773              		@ Function supports interworking.
 1774              		@ args = 0, pretend = 0, frame = 0
 1775              		@ frame_needed = 0, uses_anonymous_args = 0
 1776              		@ link register save eliminated.
 1777              	.LVL52:
 140:../reversi8_2019.c **** {
 1778              		.loc 1 140 0
 1779 050c CC329FE5 		ldr	r3, .L85
 139:../reversi8_2019.c **** void obtener_tablero(char tab[][num_columnas])
 1780              		.loc 1 139 0
 1781 0510 030010E3 		tst	r0, #3
 1782 0514 081083E2 		add	r1, r3, #8
 1783 0518 082080E2 		add	r2, r0, #8
 1784 051c 00C0A013 		movne	ip, #0
 1785 0520 01C0A003 		moveq	ip, #1
 1786 0524 020053E1 		cmp	r3, r2
 1787 0528 01005091 		cmpls	r0, r1
 1788 052c 0010A093 		movls	r1, #0
 1789 0530 0110A083 		movhi	r1, #1
 140:../reversi8_2019.c **** {
 1790              		.loc 1 140 0
 1791 0534 01001CE1 		tst	ip, r1
 1792 0538 2700000A 		beq	.L83
 1793              	.LVL53:
 146:../reversi8_2019.c **** 			tab[i][j] = tablero[i][j];
 1794              		.loc 1 146 0
 1795 053c 041093E5 		ldr	r1, [r3, #4]
 1796 0540 00C093E5 		ldr	ip, [r3, #0]
 1797 0544 0020A0E1 		mov	r2, r0
 1798 0548 04C082E4 		str	ip, [r2], #4
 1799 054c 041080E5 		str	r1, [r0, #4]
 1800              	.LVL54:
 1801 0550 0C0093E5 		ldr	r0, [r3, #12]
 1802              	.LVL55:
 1803 0554 08C093E5 		ldr	ip, [r3, #8]
 1804 0558 080082E5 		str	r0, [r2, #8]
 1805 055c 04C082E5 		str	ip, [r2, #4]
 1806 0560 140093E5 		ldr	r0, [r3, #20]
 1807 0564 10C093E5 		ldr	ip, [r3, #16]
 1808 0568 041082E2 		add	r1, r2, #4
 1809              	.LVL56:
 1810 056c 08C081E5 		str	ip, [r1, #8]
 1811 0570 0C0081E5 		str	r0, [r1, #12]
 1812 0574 1C0093E5 		ldr	r0, [r3, #28]
 1813 0578 18C093E5 		ldr	ip, [r3, #24]
 1814 057c 0C2082E2 		add	r2, r2, #12
 1815              	.LVL57:
 1816 0580 08C082E5 		str	ip, [r2, #8]
 1817 0584 0C0082E5 		str	r0, [r2, #12]
 1818 0588 240093E5 		ldr	r0, [r3, #36]
 1819 058c 20C093E5 		ldr	ip, [r3, #32]
 1820 0590 101081E2 		add	r1, r1, #16
 1821              	.LVL58:
 1822 0594 08C081E5 		str	ip, [r1, #8]
 1823 0598 0C0081E5 		str	r0, [r1, #12]
 1824 059c 2C0093E5 		ldr	r0, [r3, #44]
 1825 05a0 28C093E5 		ldr	ip, [r3, #40]
 1826 05a4 102082E2 		add	r2, r2, #16
 1827              	.LVL59:
 1828 05a8 08C082E5 		str	ip, [r2, #8]
 1829 05ac 0C0082E5 		str	r0, [r2, #12]
 1830 05b0 340093E5 		ldr	r0, [r3, #52]
 1831 05b4 30C093E5 		ldr	ip, [r3, #48]
 1832 05b8 101081E2 		add	r1, r1, #16
 1833              	.LVL60:
 1834 05bc 08C081E5 		str	ip, [r1, #8]
 1835 05c0 0C0081E5 		str	r0, [r1, #12]
 1836 05c4 380083E2 		add	r0, r3, #56
 1837 05c8 011090E8 		ldmia	r0, {r0, ip}	@ phole ldm
 1838 05cc 102082E2 		add	r2, r2, #16
 1839              	.LVL61:
 1840 05d0 080082E5 		str	r0, [r2, #8]
 1841 05d4 0CC082E5 		str	ip, [r2, #12]
 1842              	.LVL62:
 1843 05d8 1EFF2FE1 		bx	lr
 1844              	.LVL63:
 1845              	.L83:
 1846 05dc 0010D3E5 		ldrb	r1, [r3, #0]	@ zero_extendqisi2
 1847 05e0 0010C0E5 		strb	r1, [r0, #0]
 1848              	.LVL64:
 1849 05e4 01C0D3E5 		ldrb	ip, [r3, #1]	@ zero_extendqisi2
 1850 05e8 01C0C0E5 		strb	ip, [r0, #1]
 1851              	.LVL65:
 1852 05ec 0210D3E5 		ldrb	r1, [r3, #2]	@ zero_extendqisi2
 1853 05f0 0210C0E5 		strb	r1, [r0, #2]
 1854              	.LVL66:
 1855 05f4 03C0D3E5 		ldrb	ip, [r3, #3]	@ zero_extendqisi2
 1856 05f8 03C0C0E5 		strb	ip, [r0, #3]
 1857              	.LVL67:
 1858 05fc 0410D3E5 		ldrb	r1, [r3, #4]	@ zero_extendqisi2
 1859 0600 0410C0E5 		strb	r1, [r0, #4]
 1860              	.LVL68:
 1861 0604 05C0D3E5 		ldrb	ip, [r3, #5]	@ zero_extendqisi2
 1862 0608 05C0C0E5 		strb	ip, [r0, #5]
 1863              	.LVL69:
 1864 060c 0610D3E5 		ldrb	r1, [r3, #6]	@ zero_extendqisi2
 1865 0610 0610C0E5 		strb	r1, [r0, #6]
 1866              	.LVL70:
 1867 0614 07C0D3E5 		ldrb	ip, [r3, #7]	@ zero_extendqisi2
 1868 0618 07C0C0E5 		strb	ip, [r0, #7]
 1869              	.LVL71:
 1870 061c 0810D3E5 		ldrb	r1, [r3, #8]	@ zero_extendqisi2
 1871 0620 0810C0E5 		strb	r1, [r0, #8]
 1872              	.LVL72:
 1873 0624 09C0D3E5 		ldrb	ip, [r3, #9]	@ zero_extendqisi2
 1874 0628 01C0C2E5 		strb	ip, [r2, #1]
 1875              	.LVL73:
 1876 062c 0A10D3E5 		ldrb	r1, [r3, #10]	@ zero_extendqisi2
 1877 0630 0210C2E5 		strb	r1, [r2, #2]
 1878              	.LVL74:
 1879 0634 0BC0D3E5 		ldrb	ip, [r3, #11]	@ zero_extendqisi2
 1880 0638 03C0C2E5 		strb	ip, [r2, #3]
 1881              	.LVL75:
 1882 063c 0C10D3E5 		ldrb	r1, [r3, #12]	@ zero_extendqisi2
 1883 0640 0410C2E5 		strb	r1, [r2, #4]
 1884              	.LVL76:
 1885 0644 0DC0D3E5 		ldrb	ip, [r3, #13]	@ zero_extendqisi2
 1886 0648 05C0C2E5 		strb	ip, [r2, #5]
 1887              	.LVL77:
 1888 064c 0E10D3E5 		ldrb	r1, [r3, #14]	@ zero_extendqisi2
 1889 0650 0610C2E5 		strb	r1, [r2, #6]
 1890              	.LVL78:
 1891 0654 0FC0D3E5 		ldrb	ip, [r3, #15]	@ zero_extendqisi2
 1892 0658 07C0C2E5 		strb	ip, [r2, #7]
 1893              	.LVL79:
 1894 065c 1010D3E5 		ldrb	r1, [r3, #16]	@ zero_extendqisi2
 1895 0660 1010C0E5 		strb	r1, [r0, #16]
 1896              	.LVL80:
 1897 0664 1120D3E5 		ldrb	r2, [r3, #17]	@ zero_extendqisi2
 1898 0668 1120C0E5 		strb	r2, [r0, #17]
 1899              	.LVL81:
 1900 066c 12C0D3E5 		ldrb	ip, [r3, #18]	@ zero_extendqisi2
 1901 0670 12C0C0E5 		strb	ip, [r0, #18]
 1902              	.LVL82:
 1903 0674 1310D3E5 		ldrb	r1, [r3, #19]	@ zero_extendqisi2
 1904 0678 1310C0E5 		strb	r1, [r0, #19]
 1905              	.LVL83:
 1906 067c 1420D3E5 		ldrb	r2, [r3, #20]	@ zero_extendqisi2
 1907 0680 1420C0E5 		strb	r2, [r0, #20]
 1908              	.LVL84:
 1909 0684 15C0D3E5 		ldrb	ip, [r3, #21]	@ zero_extendqisi2
 1910 0688 15C0C0E5 		strb	ip, [r0, #21]
 1911              	.LVL85:
 1912 068c 1610D3E5 		ldrb	r1, [r3, #22]	@ zero_extendqisi2
 1913 0690 1610C0E5 		strb	r1, [r0, #22]
 1914              	.LVL86:
 1915 0694 1720D3E5 		ldrb	r2, [r3, #23]	@ zero_extendqisi2
 1916 0698 1720C0E5 		strb	r2, [r0, #23]
 1917              	.LVL87:
 1918 069c 18C0D3E5 		ldrb	ip, [r3, #24]	@ zero_extendqisi2
 1919 06a0 18C0C0E5 		strb	ip, [r0, #24]
 1920              	.LVL88:
 1921 06a4 1910D3E5 		ldrb	r1, [r3, #25]	@ zero_extendqisi2
 1922 06a8 1910C0E5 		strb	r1, [r0, #25]
 1923              	.LVL89:
 1924 06ac 1A20D3E5 		ldrb	r2, [r3, #26]	@ zero_extendqisi2
 1925 06b0 1A20C0E5 		strb	r2, [r0, #26]
 1926              	.LVL90:
 1927 06b4 1BC0D3E5 		ldrb	ip, [r3, #27]	@ zero_extendqisi2
 1928 06b8 1BC0C0E5 		strb	ip, [r0, #27]
 1929              	.LVL91:
 1930 06bc 1C10D3E5 		ldrb	r1, [r3, #28]	@ zero_extendqisi2
 1931 06c0 1C10C0E5 		strb	r1, [r0, #28]
 1932              	.LVL92:
 1933 06c4 1D20D3E5 		ldrb	r2, [r3, #29]	@ zero_extendqisi2
 1934 06c8 1D20C0E5 		strb	r2, [r0, #29]
 1935              	.LVL93:
 1936 06cc 1EC0D3E5 		ldrb	ip, [r3, #30]	@ zero_extendqisi2
 1937 06d0 1EC0C0E5 		strb	ip, [r0, #30]
 1938              	.LVL94:
 1939 06d4 1F10D3E5 		ldrb	r1, [r3, #31]	@ zero_extendqisi2
 1940 06d8 1F10C0E5 		strb	r1, [r0, #31]
 1941              	.LVL95:
 1942 06dc 2020D3E5 		ldrb	r2, [r3, #32]	@ zero_extendqisi2
 1943 06e0 2020C0E5 		strb	r2, [r0, #32]
 1944              	.LVL96:
 1945 06e4 21C0D3E5 		ldrb	ip, [r3, #33]	@ zero_extendqisi2
 1946 06e8 21C0C0E5 		strb	ip, [r0, #33]
 1947              	.LVL97:
 1948 06ec 2210D3E5 		ldrb	r1, [r3, #34]	@ zero_extendqisi2
 1949 06f0 2210C0E5 		strb	r1, [r0, #34]
 1950              	.LVL98:
 1951 06f4 2320D3E5 		ldrb	r2, [r3, #35]	@ zero_extendqisi2
 1952 06f8 2320C0E5 		strb	r2, [r0, #35]
 1953              	.LVL99:
 1954 06fc 24C0D3E5 		ldrb	ip, [r3, #36]	@ zero_extendqisi2
 1955 0700 24C0C0E5 		strb	ip, [r0, #36]
 1956              	.LVL100:
 1957 0704 2510D3E5 		ldrb	r1, [r3, #37]	@ zero_extendqisi2
 1958 0708 2510C0E5 		strb	r1, [r0, #37]
 1959              	.LVL101:
 1960 070c 2620D3E5 		ldrb	r2, [r3, #38]	@ zero_extendqisi2
 1961 0710 2620C0E5 		strb	r2, [r0, #38]
 1962              	.LVL102:
 1963 0714 27C0D3E5 		ldrb	ip, [r3, #39]	@ zero_extendqisi2
 1964 0718 27C0C0E5 		strb	ip, [r0, #39]
 1965              	.LVL103:
 1966 071c 2810D3E5 		ldrb	r1, [r3, #40]	@ zero_extendqisi2
 1967 0720 2810C0E5 		strb	r1, [r0, #40]
 1968              	.LVL104:
 1969 0724 2920D3E5 		ldrb	r2, [r3, #41]	@ zero_extendqisi2
 1970 0728 2920C0E5 		strb	r2, [r0, #41]
 1971              	.LVL105:
 1972 072c 2AC0D3E5 		ldrb	ip, [r3, #42]	@ zero_extendqisi2
 1973 0730 2AC0C0E5 		strb	ip, [r0, #42]
 1974              	.LVL106:
 1975 0734 2B10D3E5 		ldrb	r1, [r3, #43]	@ zero_extendqisi2
 1976 0738 2B10C0E5 		strb	r1, [r0, #43]
 1977              	.LVL107:
 1978 073c 2C20D3E5 		ldrb	r2, [r3, #44]	@ zero_extendqisi2
 1979 0740 2C20C0E5 		strb	r2, [r0, #44]
 1980              	.LVL108:
 1981 0744 2DC0D3E5 		ldrb	ip, [r3, #45]	@ zero_extendqisi2
 1982 0748 2DC0C0E5 		strb	ip, [r0, #45]
 1983              	.LVL109:
 1984 074c 2E10D3E5 		ldrb	r1, [r3, #46]	@ zero_extendqisi2
 1985 0750 2E10C0E5 		strb	r1, [r0, #46]
 1986              	.LVL110:
 1987 0754 2F20D3E5 		ldrb	r2, [r3, #47]	@ zero_extendqisi2
 1988 0758 2F20C0E5 		strb	r2, [r0, #47]
 1989              	.LVL111:
 1990 075c 30C0D3E5 		ldrb	ip, [r3, #48]	@ zero_extendqisi2
 1991 0760 30C0C0E5 		strb	ip, [r0, #48]
 1992              	.LVL112:
 1993 0764 3110D3E5 		ldrb	r1, [r3, #49]	@ zero_extendqisi2
 1994 0768 3110C0E5 		strb	r1, [r0, #49]
 1995              	.LVL113:
 1996 076c 3220D3E5 		ldrb	r2, [r3, #50]	@ zero_extendqisi2
 1997 0770 3220C0E5 		strb	r2, [r0, #50]
 1998              	.LVL114:
 1999 0774 33C0D3E5 		ldrb	ip, [r3, #51]	@ zero_extendqisi2
 2000 0778 33C0C0E5 		strb	ip, [r0, #51]
 2001              	.LVL115:
 2002 077c 3410D3E5 		ldrb	r1, [r3, #52]	@ zero_extendqisi2
 2003 0780 3410C0E5 		strb	r1, [r0, #52]
 2004              	.LVL116:
 2005 0784 3520D3E5 		ldrb	r2, [r3, #53]	@ zero_extendqisi2
 2006 0788 3520C0E5 		strb	r2, [r0, #53]
 2007              	.LVL117:
 2008 078c 36C0D3E5 		ldrb	ip, [r3, #54]	@ zero_extendqisi2
 2009 0790 36C0C0E5 		strb	ip, [r0, #54]
 2010              	.LVL118:
 2011 0794 3710D3E5 		ldrb	r1, [r3, #55]	@ zero_extendqisi2
 2012 0798 3710C0E5 		strb	r1, [r0, #55]
 2013              	.LVL119:
 2014 079c 3820D3E5 		ldrb	r2, [r3, #56]	@ zero_extendqisi2
 2015 07a0 3820C0E5 		strb	r2, [r0, #56]
 2016              	.LVL120:
 2017 07a4 39C0D3E5 		ldrb	ip, [r3, #57]	@ zero_extendqisi2
 2018 07a8 39C0C0E5 		strb	ip, [r0, #57]
 2019              	.LVL121:
 2020 07ac 3A10D3E5 		ldrb	r1, [r3, #58]	@ zero_extendqisi2
 2021 07b0 3A10C0E5 		strb	r1, [r0, #58]
 2022              	.LVL122:
 2023 07b4 3B20D3E5 		ldrb	r2, [r3, #59]	@ zero_extendqisi2
 2024 07b8 3B20C0E5 		strb	r2, [r0, #59]
 2025              	.LVL123:
 2026 07bc 3CC0D3E5 		ldrb	ip, [r3, #60]	@ zero_extendqisi2
 2027 07c0 3CC0C0E5 		strb	ip, [r0, #60]
 2028              	.LVL124:
 2029 07c4 3D10D3E5 		ldrb	r1, [r3, #61]	@ zero_extendqisi2
 2030 07c8 3D10C0E5 		strb	r1, [r0, #61]
 2031              	.LVL125:
 2032 07cc 3E20D3E5 		ldrb	r2, [r3, #62]	@ zero_extendqisi2
 2033 07d0 3E20C0E5 		strb	r2, [r0, #62]
 2034              	.LVL126:
 2035 07d4 3F30D3E5 		ldrb	r3, [r3, #63]	@ zero_extendqisi2
 2036 07d8 3F30C0E5 		strb	r3, [r0, #63]
 2037              	.LVL127:
 2038 07dc 1EFF2FE1 		bx	lr
 2039              	.L86:
 2040              		.align	2
 2041              	.L85:
 2042 07e0 00000000 		.word	.LANCHOR0
 2043              		.cfi_endproc
 2044              	.LFE2:
 2046              		.align	2
 2047              		.global	contar_blancas
 2049              	contar_blancas:
 2050              	.LFB3:
 155:../reversi8_2019.c **** int contar_blancas(void){return blancas;}
 2051              		.loc 1 155 0
 2052              		.cfi_startproc
 2053              		@ Function supports interworking.
 2054              		@ args = 0, pretend = 0, frame = 0
 2055              		@ frame_needed = 0, uses_anonymous_args = 0
 2056              		@ link register save eliminated.
 155:../reversi8_2019.c **** int contar_blancas(void){return blancas;}
 2057              		.loc 1 155 0
 2058 07e4 04309FE5 		ldr	r3, .L88
 2059 07e8 900093E5 		ldr	r0, [r3, #144]
 2060 07ec 1EFF2FE1 		bx	lr
 2061              	.L89:
 2062              		.align	2
 2063              	.L88:
 2064 07f0 00000000 		.word	.LANCHOR0
 2065              		.cfi_endproc
 2066              	.LFE3:
 2068              		.align	2
 2069              		.global	contar_negras
 2071              	contar_negras:
 2072              	.LFB4:
 156:../reversi8_2019.c **** int contar_negras(void){return negras;}
 2073              		.loc 1 156 0
 2074              		.cfi_startproc
 2075              		@ Function supports interworking.
 2076              		@ args = 0, pretend = 0, frame = 0
 2077              		@ frame_needed = 0, uses_anonymous_args = 0
 2078              		@ link register save eliminated.
 156:../reversi8_2019.c **** int contar_negras(void){return negras;}
 2079              		.loc 1 156 0
 2080 07f4 04309FE5 		ldr	r3, .L91
 2081 07f8 940093E5 		ldr	r0, [r3, #148]
 2082 07fc 1EFF2FE1 		bx	lr
 2083              	.L92:
 2084              		.align	2
 2085              	.L91:
 2086 0800 00000000 		.word	.LANCHOR0
 2087              		.cfi_endproc
 2088              	.LFE4:
 2090              		.align	2
 2091              		.global	reversi_t_pv
 2093              	reversi_t_pv:
 2094              	.LFB5:
 159:../reversi8_2019.c **** {
 2095              		.loc 1 159 0
 2096              		.cfi_startproc
 2097              		@ Function supports interworking.
 2098              		@ args = 0, pretend = 0, frame = 0
 2099              		@ frame_needed = 0, uses_anonymous_args = 0
 2100              		@ link register save eliminated.
 159:../reversi8_2019.c **** {
 2101              		.loc 1 159 0
 2102 0804 04309FE5 		ldr	r3, .L94
 161:../reversi8_2019.c **** }
 2103              		.loc 1 161 0
 2104 0808 440093E5 		ldr	r0, [r3, #68]
 2105 080c 1EFF2FE1 		bx	lr
 2106              	.L95:
 2107              		.align	2
 2108              	.L94:
 2109 0810 00000000 		.word	.LANCHOR0
 2110              		.cfi_endproc
 2111              	.LFE5:
 2113              		.align	2
 2114              		.global	reversi_veces_pv
 2116              	reversi_veces_pv:
 2117              	.LFB6:
 164:../reversi8_2019.c **** {
 2118              		.loc 1 164 0
 2119              		.cfi_startproc
 2120              		@ Function supports interworking.
 2121              		@ args = 0, pretend = 0, frame = 0
 2122              		@ frame_needed = 0, uses_anonymous_args = 0
 2123              		@ link register save eliminated.
 164:../reversi8_2019.c **** {
 2124              		.loc 1 164 0
 2125 0814 04309FE5 		ldr	r3, .L97
 166:../reversi8_2019.c **** }
 2126              		.loc 1 166 0
 2127 0818 400093E5 		ldr	r0, [r3, #64]
 2128 081c 1EFF2FE1 		bx	lr
 2129              	.L98:
 2130              		.align	2
 2131              	.L97:
 2132 0820 00000000 		.word	.LANCHOR0
 2133              		.cfi_endproc
 2134              	.LFE6:
 2136              		.align	2
 2137              		.global	obtener_ficha_en
 2139              	obtener_ficha_en:
 2140              	.LFB8:
 177:../reversi8_2019.c **** {
 2141              		.loc 1 177 0
 2142              		.cfi_startproc
 2143              		@ Function supports interworking.
 2144              		@ args = 0, pretend = 0, frame = 0
 2145              		@ frame_needed = 0, uses_anonymous_args = 0
 2146              		@ link register save eliminated.
 2147              	.LVL128:
 179:../reversi8_2019.c **** }
 2148              		.loc 1 179 0
 2149 0824 08309FE5 		ldr	r3, .L100
 178:../reversi8_2019.c **** 	return tablero[f][c];
 2150              		.loc 1 178 0
 2151 0828 801181E0 		add	r1, r1, r0, asl #3
 2152              	.LVL129:
 179:../reversi8_2019.c **** }
 2153              		.loc 1 179 0
 2154 082c 0100D3E7 		ldrb	r0, [r3, r1]	@ zero_extendqisi2
 2155              	.LVL130:
 2156 0830 1EFF2FE1 		bx	lr
 2157              	.L101:
 2158              		.align	2
 2159              	.L100:
 2160 0834 00000000 		.word	.LANCHOR0
 2161              		.cfi_endproc
 2162              	.LFE8:
 2164              		.align	2
 2165              		.global	init_table
 2167              	init_table:
 2168              	.LFB9:
 189:../reversi8_2019.c **** {
 2169              		.loc 1 189 0
 2170              		.cfi_startproc
 2171              		@ Function supports interworking.
 2172              		@ args = 0, pretend = 0, frame = 16
 2173              		@ frame_needed = 1, uses_anonymous_args = 0
 2174              	.LVL131:
 2175 0838 0DC0A0E1 		mov	ip, sp
 2176              	.LCFI3:
 2177              		.cfi_def_cfa_register 12
 2178 083c F0DF2DE9 		stmfd	sp!, {r4, r5, r6, r7, r8, r9, sl, fp, ip, lr, pc}
 2179 0840 033010E2 		ands	r3, r0, #3
 2180 0844 04B04CE2 		sub	fp, ip, #4
 2181              		.cfi_offset 14, -8
 2182              		.cfi_offset 13, -12
 2183              		.cfi_offset 11, -16
 2184              		.cfi_offset 10, -20
 2185              		.cfi_offset 9, -24
 2186              		.cfi_offset 8, -28
 2187              		.cfi_offset 7, -32
 2188              		.cfi_offset 6, -36
 2189              		.cfi_offset 5, -40
 2190              		.cfi_offset 4, -44
 2191              	.LCFI4:
 2192              		.cfi_def_cfa 11, 4
 2193 0848 14D04DE2 		sub	sp, sp, #20
 189:../reversi8_2019.c **** {
 2194              		.loc 1 189 0
 2195 084c 01E0A0E1 		mov	lr, r1
 2196 0850 3B00001A 		bne	.L103
 2197              	.LVL132:
 195:../reversi8_2019.c ****             tablero[i][j] = CASILLA_VACIA;
 2198              		.loc 1 195 0
 2199 0854 0080A0E1 		mov	r8, r0
 2200 0858 043088E4 		str	r3, [r8], #4
 2201 085c 049088E2 		add	r9, r8, #4
 2202 0860 24C089E2 		add	ip, r9, #36
 2203 0864 04108CE2 		add	r1, ip, #4
 2204              	.LVL133:
 2205 0868 047081E2 		add	r7, r1, #4
 2206 086c 202089E2 		add	r2, r9, #32
 2207 0870 3C700BE5 		str	r7, [fp, #-60]
 2208 0874 30200BE5 		str	r2, [fp, #-48]
 2209 0878 34C00BE5 		str	ip, [fp, #-52]
 2210 087c 38100BE5 		str	r1, [fp, #-56]
 2211 0880 043080E5 		str	r3, [r0, #4]
 2212              	.LVL134:
 2213 0884 043088E5 		str	r3, [r8, #4]
 2214 0888 043089E5 		str	r3, [r9, #4]
 2215 088c 083089E5 		str	r3, [r9, #8]
 2216 0890 0C3089E5 		str	r3, [r9, #12]
 2217 0894 103089E5 		str	r3, [r9, #16]
 2218 0898 143089E5 		str	r3, [r9, #20]
 2219 089c 183089E5 		str	r3, [r9, #24]
 2220 08a0 1C3089E5 		str	r3, [r9, #28]
 2221 08a4 203089E5 		str	r3, [r9, #32]
 2222 08a8 30201BE5 		ldr	r2, [fp, #-48]
 2223 08ac 043082E5 		str	r3, [r2, #4]
 2224 08b0 34C01BE5 		ldr	ip, [fp, #-52]
 2225 08b4 04308CE5 		str	r3, [ip, #4]
 2226 08b8 38101BE5 		ldr	r1, [fp, #-56]
 2227 08bc 043081E5 		str	r3, [r1, #4]
 2228 08c0 3C201BE5 		ldr	r2, [fp, #-60]
 2229 08c4 043082E5 		str	r3, [r2, #4]
 2230 08c8 083082E5 		str	r3, [r2, #8]
 2231 08cc 187080E2 		add	r7, r0, #24
 2232 08d0 208080E2 		add	r8, r0, #32
 2233              	.LVL135:
 2234              	.L104:
 241:../reversi8_2019.c ****     contar(tablero, &blancas, &negras);
 2235              		.loc 1 241 0
 2236 08d4 78119FE5 		ldr	r1, .L105
 215:../reversi8_2019.c ****     tablero[3][3] = FICHA_BLANCA;
 2237              		.loc 1 215 0
 2238 08d8 0130A0E3 		mov	r3, #1
 217:../reversi8_2019.c ****     tablero[3][4] = FICHA_NEGRA;
 2239              		.loc 1 217 0
 2240 08dc 02C0A0E3 		mov	ip, #2
 215:../reversi8_2019.c ****     tablero[3][3] = FICHA_BLANCA;
 2241              		.loc 1 215 0
 2242 08e0 0330C7E5 		strb	r3, [r7, #3]
 241:../reversi8_2019.c ****     contar(tablero, &blancas, &negras);
 2243              		.loc 1 241 0
 2244 08e4 042081E2 		add	r2, r1, #4
 216:../reversi8_2019.c ****     tablero[4][4] = FICHA_BLANCA;
 2245              		.loc 1 216 0
 2246 08e8 0430C8E5 		strb	r3, [r8, #4]
 217:../reversi8_2019.c ****     tablero[3][4] = FICHA_NEGRA;
 2247              		.loc 1 217 0
 2248 08ec 04C0C7E5 		strb	ip, [r7, #4]
 218:../reversi8_2019.c ****     tablero[4][3] = FICHA_NEGRA;
 2249              		.loc 1 218 0
 2250 08f0 03C0C8E5 		strb	ip, [r8, #3]
 220:../reversi8_2019.c ****     candidatas[3][3] = CASILLA_OCUPADA;
 2251              		.loc 1 220 0
 2252 08f4 1BC0CEE5 		strb	ip, [lr, #27]
 221:../reversi8_2019.c ****     candidatas[4][4] = CASILLA_OCUPADA;
 2253              		.loc 1 221 0
 2254 08f8 24C0CEE5 		strb	ip, [lr, #36]
 222:../reversi8_2019.c ****     candidatas[3][4] = CASILLA_OCUPADA;
 2255              		.loc 1 222 0
 2256 08fc 1CC0CEE5 		strb	ip, [lr, #28]
 223:../reversi8_2019.c ****     candidatas[4][3] = CASILLA_OCUPADA;
 2257              		.loc 1 223 0
 2258 0900 23C0CEE5 		strb	ip, [lr, #35]
 226:../reversi8_2019.c ****     candidatas[2][2] = SI;
 2259              		.loc 1 226 0
 2260 0904 1230CEE5 		strb	r3, [lr, #18]
 227:../reversi8_2019.c ****     candidatas[2][3] = SI;
 2261              		.loc 1 227 0
 2262 0908 1330CEE5 		strb	r3, [lr, #19]
 228:../reversi8_2019.c ****     candidatas[2][4] = SI;
 2263              		.loc 1 228 0
 2264 090c 1430CEE5 		strb	r3, [lr, #20]
 229:../reversi8_2019.c ****     candidatas[2][5] = SI;
 2265              		.loc 1 229 0
 2266 0910 1530CEE5 		strb	r3, [lr, #21]
 230:../reversi8_2019.c ****     candidatas[3][2] = SI;
 2267              		.loc 1 230 0
 2268 0914 1A30CEE5 		strb	r3, [lr, #26]
 231:../reversi8_2019.c ****     candidatas[3][5] = SI;
 2269              		.loc 1 231 0
 2270 0918 1D30CEE5 		strb	r3, [lr, #29]
 232:../reversi8_2019.c ****     candidatas[4][2] = SI;
 2271              		.loc 1 232 0
 2272 091c 2230CEE5 		strb	r3, [lr, #34]
 233:../reversi8_2019.c ****     candidatas[4][5] = SI;
 2273              		.loc 1 233 0
 2274 0920 2530CEE5 		strb	r3, [lr, #37]
 234:../reversi8_2019.c ****     candidatas[5][2] = SI;
 2275              		.loc 1 234 0
 2276 0924 2A30CEE5 		strb	r3, [lr, #42]
 235:../reversi8_2019.c ****     candidatas[5][3] = SI;
 2277              		.loc 1 235 0
 2278 0928 2B30CEE5 		strb	r3, [lr, #43]
 236:../reversi8_2019.c ****     candidatas[5][4] = SI;
 2279              		.loc 1 236 0
 2280 092c 2C30CEE5 		strb	r3, [lr, #44]
 237:../reversi8_2019.c ****     candidatas[5][5] = SI;
 2281              		.loc 1 237 0
 2282 0930 2D30CEE5 		strb	r3, [lr, #45]
 241:../reversi8_2019.c ****     contar(tablero, &blancas, &negras);
 2283              		.loc 1 241 0
 2284 0934 FEFFFFEB 		bl	contar
 2285              	.LVL136:
 242:../reversi8_2019.c **** }
 2286              		.loc 1 242 0
 2287 0938 28D04BE2 		sub	sp, fp, #40
 2288 093c F06F9DE8 		ldmfd	sp, {r4, r5, r6, r7, r8, r9, sl, fp, sp, lr}
 2289 0940 1EFF2FE1 		bx	lr
 2290              	.LVL137:
 2291              	.L103:
 195:../reversi8_2019.c ****             tablero[i][j] = CASILLA_VACIA;
 2292              		.loc 1 195 0
 2293 0944 0030A0E3 		mov	r3, #0
 2294 0948 0030C0E5 		strb	r3, [r0, #0]
 2295              	.LVL138:
 2296 094c 0130C0E5 		strb	r3, [r0, #1]
 2297              	.LVL139:
 2298 0950 0230C0E5 		strb	r3, [r0, #2]
 2299              	.LVL140:
 2300 0954 0330C0E5 		strb	r3, [r0, #3]
 2301              	.LVL141:
 2302 0958 0430C0E5 		strb	r3, [r0, #4]
 2303              	.LVL142:
 2304 095c 0530C0E5 		strb	r3, [r0, #5]
 2305              	.LVL143:
 2306 0960 0630C0E5 		strb	r3, [r0, #6]
 2307              	.LVL144:
 2308 0964 0730C0E5 		strb	r3, [r0, #7]
 2309              	.LVL145:
 2310 0968 0830C0E5 		strb	r3, [r0, #8]
 2311              	.LVL146:
 2312 096c 0930C0E5 		strb	r3, [r0, #9]
 2313              	.LVL147:
 2314 0970 0A30C0E5 		strb	r3, [r0, #10]
 2315              	.LVL148:
 2316 0974 0B30C0E5 		strb	r3, [r0, #11]
 2317              	.LVL149:
 2318 0978 0C30C0E5 		strb	r3, [r0, #12]
 2319              	.LVL150:
 2320 097c 0D30C0E5 		strb	r3, [r0, #13]
 2321              	.LVL151:
 2322 0980 0E30C0E5 		strb	r3, [r0, #14]
 2323              	.LVL152:
 2324 0984 0F30C0E5 		strb	r3, [r0, #15]
 2325              	.LVL153:
 2326 0988 1030C0E5 		strb	r3, [r0, #16]
 2327              	.LVL154:
 2328 098c 1130C0E5 		strb	r3, [r0, #17]
 2329              	.LVL155:
 2330 0990 1230C0E5 		strb	r3, [r0, #18]
 2331              	.LVL156:
 2332 0994 1330C0E5 		strb	r3, [r0, #19]
 2333              	.LVL157:
 2334 0998 1430C0E5 		strb	r3, [r0, #20]
 2335              	.LVL158:
 2336 099c 1530C0E5 		strb	r3, [r0, #21]
 2337              	.LVL159:
 2338 09a0 1630C0E5 		strb	r3, [r0, #22]
 2339              	.LVL160:
 2340 09a4 1730C0E5 		strb	r3, [r0, #23]
 2341              	.LVL161:
 2342 09a8 1830C0E5 		strb	r3, [r0, #24]
 2343              	.LVL162:
 2344 09ac 1930C0E5 		strb	r3, [r0, #25]
 2345              	.LVL163:
 2346 09b0 1A30C0E5 		strb	r3, [r0, #26]
 2347              	.LVL164:
 2348 09b4 1B30C0E5 		strb	r3, [r0, #27]
 2349              	.LVL165:
 2350 09b8 1C30C0E5 		strb	r3, [r0, #28]
 2351              	.LVL166:
 2352 09bc 1D30C0E5 		strb	r3, [r0, #29]
 2353              	.LVL167:
 2354 09c0 1E30C0E5 		strb	r3, [r0, #30]
 2355              	.LVL168:
 2356 09c4 1F30C0E5 		strb	r3, [r0, #31]
 2357              	.LVL169:
 2358 09c8 2030C0E5 		strb	r3, [r0, #32]
 2359              	.LVL170:
 2360 09cc 187080E2 		add	r7, r0, #24
 2361 09d0 2130C0E5 		strb	r3, [r0, #33]
 2362              	.LVL171:
 2363 09d4 208080E2 		add	r8, r0, #32
 2364 09d8 2230C0E5 		strb	r3, [r0, #34]
 2365              	.LVL172:
 2366 09dc 2330C0E5 		strb	r3, [r0, #35]
 2367              	.LVL173:
 2368 09e0 2430C0E5 		strb	r3, [r0, #36]
 2369              	.LVL174:
 2370 09e4 2530C0E5 		strb	r3, [r0, #37]
 2371              	.LVL175:
 2372 09e8 2630C0E5 		strb	r3, [r0, #38]
 2373              	.LVL176:
 2374 09ec 2730C0E5 		strb	r3, [r0, #39]
 2375              	.LVL177:
 2376 09f0 2830C0E5 		strb	r3, [r0, #40]
 2377              	.LVL178:
 2378 09f4 2930C0E5 		strb	r3, [r0, #41]
 2379              	.LVL179:
 2380 09f8 2A30C0E5 		strb	r3, [r0, #42]
 2381              	.LVL180:
 2382 09fc 2B30C0E5 		strb	r3, [r0, #43]
 2383              	.LVL181:
 2384 0a00 2C30C0E5 		strb	r3, [r0, #44]
 2385              	.LVL182:
 2386 0a04 2D30C0E5 		strb	r3, [r0, #45]
 2387              	.LVL183:
 2388 0a08 2E30C0E5 		strb	r3, [r0, #46]
 2389              	.LVL184:
 2390 0a0c 2F30C0E5 		strb	r3, [r0, #47]
 2391              	.LVL185:
 2392 0a10 3030C0E5 		strb	r3, [r0, #48]
 2393              	.LVL186:
 2394 0a14 3130C0E5 		strb	r3, [r0, #49]
 2395              	.LVL187:
 2396 0a18 3230C0E5 		strb	r3, [r0, #50]
 2397              	.LVL188:
 2398 0a1c 3330C0E5 		strb	r3, [r0, #51]
 2399              	.LVL189:
 2400 0a20 3430C0E5 		strb	r3, [r0, #52]
 2401              	.LVL190:
 2402 0a24 3530C0E5 		strb	r3, [r0, #53]
 2403              	.LVL191:
 2404 0a28 3630C0E5 		strb	r3, [r0, #54]
 2405              	.LVL192:
 2406 0a2c 3730C0E5 		strb	r3, [r0, #55]
 2407              	.LVL193:
 2408 0a30 3830C0E5 		strb	r3, [r0, #56]
 2409              	.LVL194:
 2410 0a34 3930C0E5 		strb	r3, [r0, #57]
 2411              	.LVL195:
 2412 0a38 3A30C0E5 		strb	r3, [r0, #58]
 2413              	.LVL196:
 2414 0a3c 3B30C0E5 		strb	r3, [r0, #59]
 2415              	.LVL197:
 2416 0a40 3C30C0E5 		strb	r3, [r0, #60]
 2417              	.LVL198:
 2418 0a44 3D30C0E5 		strb	r3, [r0, #61]
 2419              	.LVL199:
 2420 0a48 3E30C0E5 		strb	r3, [r0, #62]
 2421              	.LVL200:
 2422 0a4c 3F30C0E5 		strb	r3, [r0, #63]
 2423              	.LVL201:
 2424 0a50 9FFFFFEA 		b	.L104
 2425              	.L106:
 2426              		.align	2
 2427              	.L105:
 2428 0a54 90000000 		.word	.LANCHOR0+144
 2429              		.cfi_endproc
 2430              	.LFE9:
 2432              		.align	2
 2433              		.global	ficha_valida
 2435              	ficha_valida:
 2436              	.LFB10:
 265:../reversi8_2019.c **** {
 2437              		.loc 1 265 0
 2438              		.cfi_startproc
 2439              		@ Function supports interworking.
 2440              		@ args = 0, pretend = 0, frame = 0
 2441              		@ frame_needed = 0, uses_anonymous_args = 0
 2442              		@ link register save eliminated.
 2443              	.LVL202:
 267:../reversi8_2019.c ****     if ((f < DIM) && (c < DIM) && (tablero[f][c] != CASILLA_VACIA))
 2444              		.loc 1 267 0
 2445 0a58 070052E3 		cmp	r2, #7
 2446 0a5c 07005193 		cmpls	r1, #7
 2447 0a60 0300008A 		bhi	.L108
 267:../reversi8_2019.c ****     if ((f < DIM) && (c < DIM) && (tablero[f][c] != CASILLA_VACIA))
 2448              		.loc 1 267 0 is_stmt 0 discriminator 1
 2449 0a64 811180E0 		add	r1, r0, r1, asl #3
 2450              	.LVL203:
 2451 0a68 0200D1E7 		ldrb	r0, [r1, r2]	@ zero_extendqisi2
 2452              	.LVL204:
 2453 0a6c 000050E3 		cmp	r0, #0
 2454 0a70 0200001A 		bne	.L110
 2455              	.L108:
 274:../reversi8_2019.c ****         *posicion_valida = 0;
 2456              		.loc 1 274 0 is_stmt 1
 2457 0a74 0000A0E3 		mov	r0, #0
 2458 0a78 000083E5 		str	r0, [r3, #0]
 2459              	.LVL205:
 278:../reversi8_2019.c **** }
 2460              		.loc 1 278 0
 2461 0a7c 1EFF2FE1 		bx	lr
 2462              	.LVL206:
 2463              	.L110:
 269:../reversi8_2019.c ****         *posicion_valida = 1;
 2464              		.loc 1 269 0
 2465 0a80 01C0A0E3 		mov	ip, #1
 2466 0a84 00C083E5 		str	ip, [r3, #0]
 270:../reversi8_2019.c ****         ficha = tablero[f][c];
 2467              		.loc 1 270 0
 2468 0a88 0200D1E7 		ldrb	r0, [r1, r2]	@ zero_extendqisi2
 2469              	.LVL207:
 2470 0a8c 1EFF2FE1 		bx	lr
 2471              		.cfi_endproc
 2472              	.LFE10:
 2474              		.align	2
 2475              		.global	patron_volteo
 2477              	patron_volteo:
 2478              	.LFB11:
 291:../reversi8_2019.c **** {
 2479              		.loc 1 291 0
 2480              		.cfi_startproc
 2481              		@ Function supports interworking.
 2482              		@ args = 12, pretend = 0, frame = 8
 2483              		@ frame_needed = 1, uses_anonymous_args = 0
 2484              	.LVL208:
 2485 0a90 0DC0A0E1 		mov	ip, sp
 2486              	.LCFI5:
 2487              		.cfi_def_cfa_register 12
 2488 0a94 F0DF2DE9 		stmfd	sp!, {r4, r5, r6, r7, r8, r9, sl, fp, ip, lr, pc}
 2489 0a98 04B04CE2 		sub	fp, ip, #4
 2490              		.cfi_offset 14, -8
 2491              		.cfi_offset 13, -12
 2492              		.cfi_offset 11, -16
 2493              		.cfi_offset 10, -20
 2494              		.cfi_offset 9, -24
 2495              		.cfi_offset 8, -28
 2496              		.cfi_offset 7, -32
 2497              		.cfi_offset 6, -36
 2498              		.cfi_offset 5, -40
 2499              		.cfi_offset 4, -44
 2500              	.LCFI6:
 2501              		.cfi_def_cfa 11, 4
 2502 0a9c 0CD04DE2 		sub	sp, sp, #12
 291:../reversi8_2019.c **** {
 2503              		.loc 1 291 0
 2504 0aa0 0260A0E1 		mov	r6, r2
 2505 0aa4 0450DBE5 		ldrb	r5, [fp, #4]	@ zero_extendqisi2
 2506 0aa8 0840DBE5 		ldrb	r4, [fp, #8]	@ zero_extendqisi2
 2507 0aac 0380A0E1 		mov	r8, r3
 2508 0ab0 01A0A0E1 		mov	sl, r1
 2509 0ab4 0070A0E1 		mov	r7, r0
 2510 0ab8 0C90DBE5 		ldrb	r9, [fp, #12]	@ zero_extendqisi2
 292:../reversi8_2019.c **** 	int t_inicio = timer2_leer();
 2511              		.loc 1 292 0
 2512 0abc FEFFFFEB 		bl	timer2_leer
 2513              	.LVL209:
 297:../reversi8_2019.c **** 	FA = FA + SF;
 2514              		.loc 1 297 0
 2515 0ac0 061085E0 		add	r1, r5, r6
 298:../reversi8_2019.c **** 	CA = CA + SC;
 2516              		.loc 1 298 0
 2517 0ac4 083084E0 		add	r3, r4, r8
 297:../reversi8_2019.c **** 	FA = FA + SF;
 2518              		.loc 1 297 0
 2519 0ac8 FF1001E2 		and	r1, r1, #255
 298:../reversi8_2019.c **** 	CA = CA + SC;
 2520              		.loc 1 298 0
 2521 0acc FF3003E2 		and	r3, r3, #255
 2522              	.LBB34:
 2523              	.LBB35:
 267:../reversi8_2019.c ****     if ((f < DIM) && (c < DIM) && (tablero[f][c] != CASILLA_VACIA))
 2524              		.loc 1 267 0
 2525 0ad0 070053E3 		cmp	r3, #7
 2526 0ad4 07005193 		cmpls	r1, #7
 2527              	.LBE35:
 2528              	.LBE34:
 292:../reversi8_2019.c **** 	int t_inicio = timer2_leer();
 2529              		.loc 1 292 0
 2530 0ad8 0020A0E1 		mov	r2, r0
 2531              	.LVL210:
 2532              	.LBB37:
 2533              	.LBB36:
 267:../reversi8_2019.c ****     if ((f < DIM) && (c < DIM) && (tablero[f][c] != CASILLA_VACIA))
 2534              		.loc 1 267 0
 2535 0adc 00C0A083 		movhi	ip, #0
 2536 0ae0 01C0A093 		movls	ip, #1
 2537 0ae4 1600008A 		bhi	.L120
 2538              	.LVL211:
 2539              	.L122:
 2540              	.LBE36:
 2541              	.LBE37:
 2542              	.LBB38:
 2543              	.LBB41:
 2544 0ae8 81C187E0 		add	ip, r7, r1, asl #3
 2545 0aec 0300DCE7 		ldrb	r0, [ip, r3]	@ zero_extendqisi2
 2546 0af0 000050E3 		cmp	r0, #0
 269:../reversi8_2019.c ****         *posicion_valida = 1;
 2547              		.loc 1 269 0
 2548 0af4 00C0A001 		moveq	ip, r0
 2549 0af8 01C0A013 		movne	ip, #1
 2550              	.L114:
 2551              	.LBE41:
 2552              	.LBE38:
 300:../reversi8_2019.c **** 	while ((posicion_valida == 1) && (casilla != color))
 2553              		.loc 1 300 0 discriminator 1
 2554 0afc FFC00CE2 		and	ip, ip, #255
 2555 0b00 090050E1 		cmp	r0, r9
 2556 0b04 00E0A003 		moveq	lr, #0
 2557 0b08 01E00C12 		andne	lr, ip, #1
 2558              	.LBB45:
 2559              	.LBB42:
 267:../reversi8_2019.c ****     if ((f < DIM) && (c < DIM) && (tablero[f][c] != CASILLA_VACIA))
 2560              		.loc 1 267 0 discriminator 1
 2561 0b0c 051081E0 		add	r1, r1, r5
 2562 0b10 043083E0 		add	r3, r3, r4
 2563              	.LBE42:
 2564              	.LBE45:
 300:../reversi8_2019.c **** 	while ((posicion_valida == 1) && (casilla != color))
 2565              		.loc 1 300 0 discriminator 1
 2566 0b14 00005EE3 		cmp	lr, #0
 2567              	.LBB46:
 2568              	.LBB40:
 267:../reversi8_2019.c ****     if ((f < DIM) && (c < DIM) && (tablero[f][c] != CASILLA_VACIA))
 2569              		.loc 1 267 0 discriminator 1
 2570 0b18 FF1001E2 		and	r1, r1, #255
 2571 0b1c FF3003E2 		and	r3, r3, #255
 2572              	.LVL212:
 2573              	.LBE40:
 2574              	.LBE46:
 300:../reversi8_2019.c **** 	while ((posicion_valida == 1) && (casilla != color))
 2575              		.loc 1 300 0 discriminator 1
 2576 0b20 0900000A 		beq	.L123
 2577              	.LVL213:
 306:../reversi8_2019.c **** 		*longitud = *longitud + 1;
 2578              		.loc 1 306 0
 2579 0b24 00009AE5 		ldr	r0, [sl, #0]
 2580              	.LVL214:
 2581              	.LBB47:
 2582              	.LBB43:
 267:../reversi8_2019.c ****     if ((f < DIM) && (c < DIM) && (tablero[f][c] != CASILLA_VACIA))
 2583              		.loc 1 267 0
 2584 0b28 070053E3 		cmp	r3, #7
 2585 0b2c 07005193 		cmpls	r1, #7
 2586              	.LBE43:
 2587              	.LBE47:
 306:../reversi8_2019.c **** 		*longitud = *longitud + 1;
 2588              		.loc 1 306 0
 2589 0b30 01E080E2 		add	lr, r0, #1
 2590              	.LBB48:
 2591              	.LBB39:
 267:../reversi8_2019.c ****     if ((f < DIM) && (c < DIM) && (tablero[f][c] != CASILLA_VACIA))
 2592              		.loc 1 267 0
 2593 0b34 00C0A083 		movhi	ip, #0
 2594 0b38 01C0A093 		movls	ip, #1
 2595              	.LBE39:
 2596              	.LBE48:
 306:../reversi8_2019.c **** 		*longitud = *longitud + 1;
 2597              		.loc 1 306 0
 2598 0b3c 00E08AE5 		str	lr, [sl, #0]
 2599              	.LVL215:
 2600              	.LBB49:
 2601              	.LBB44:
 267:../reversi8_2019.c ****     if ((f < DIM) && (c < DIM) && (tablero[f][c] != CASILLA_VACIA))
 2602              		.loc 1 267 0
 2603 0b40 E8FFFF9A 		bls	.L122
 2604              	.LVL216:
 2605              	.L120:
 275:../reversi8_2019.c ****         ficha = CASILLA_VACIA;
 2606              		.loc 1 275 0
 2607 0b44 0C00A0E1 		mov	r0, ip
 2608 0b48 EBFFFFEA 		b	.L114
 2609              	.LVL217:
 2610              	.L123:
 2611              	.LBE44:
 2612              	.LBE49:
 311:../reversi8_2019.c **** 	if ((posicion_valida == 1) && (casilla == color) && (*longitud >0))
 2613              		.loc 1 311 0
 2614 0b4c 000059E1 		cmp	r9, r0
 2615 0b50 00C0A013 		movne	ip, #0
 2616 0b54 01C00C02 		andeq	ip, ip, #1
 2617 0b58 00005CE3 		cmp	ip, #0
 2618 0b5c 0200000A 		beq	.L116
 311:../reversi8_2019.c **** 	if ((posicion_valida == 1) && (casilla == color) && (*longitud >0))
 2619              		.loc 1 311 0 is_stmt 0 discriminator 1
 2620 0b60 00009AE5 		ldr	r0, [sl, #0]
 2621              	.LVL218:
 2622 0b64 000050E3 		cmp	r0, #0
 2623 0b68 0E0000CA 		bgt	.L124
 2624              	.L116:
 320:../reversi8_2019.c **** 		t_final = timer2_leer();
 2625              		.loc 1 320 0 is_stmt 1
 2626 0b6c 30200BE5 		str	r2, [fp, #-48]
 2627 0b70 FEFFFFEB 		bl	timer2_leer
 2628              	.LVL219:
 321:../reversi8_2019.c **** 		t_pv += (t_final - t_inicio);
 2629              		.loc 1 321 0
 2630 0b74 60309FE5 		ldr	r3, .L125
 2631 0b78 30201BE5 		ldr	r2, [fp, #-48]
 2632 0b7c 40C093E5 		ldr	ip, [r3, #64]
 322:../reversi8_2019.c **** 		veces_pv++;
 2633              		.loc 1 322 0
 2634 0b80 441093E5 		ldr	r1, [r3, #68]
 321:../reversi8_2019.c **** 		t_pv += (t_final - t_inicio);
 2635              		.loc 1 321 0
 2636 0b84 0CC062E0 		rsb	ip, r2, ip
 2637 0b88 00208CE0 		add	r2, ip, r0
 2638 0b8c 402083E5 		str	r2, [r3, #64]
 322:../reversi8_2019.c **** 		veces_pv++;
 2639              		.loc 1 322 0
 2640 0b90 010081E2 		add	r0, r1, #1
 2641              	.LVL220:
 2642 0b94 440083E5 		str	r0, [r3, #68]
 323:../reversi8_2019.c **** 		return NO_HAY_PATRON; // si no hay que voltear no hay patrón
 2643              		.loc 1 323 0
 2644 0b98 0000A0E3 		mov	r0, #0
 2645              	.L117:
 325:../reversi8_2019.c **** }
 2646              		.loc 1 325 0
 2647 0b9c 28D04BE2 		sub	sp, fp, #40
 2648 0ba0 F06F9DE8 		ldmfd	sp, {r4, r5, r6, r7, r8, r9, sl, fp, sp, lr}
 2649 0ba4 1EFF2FE1 		bx	lr
 2650              	.LVL221:
 2651              	.L124:
 313:../reversi8_2019.c **** 		t_final = timer2_leer();
 2652              		.loc 1 313 0
 2653 0ba8 30200BE5 		str	r2, [fp, #-48]
 2654 0bac FEFFFFEB 		bl	timer2_leer
 2655              	.LVL222:
 314:../reversi8_2019.c **** 		t_pv += (t_final - t_inicio);
 2656              		.loc 1 314 0
 2657 0bb0 24309FE5 		ldr	r3, .L125
 2658 0bb4 30201BE5 		ldr	r2, [fp, #-48]
 2659 0bb8 40C093E5 		ldr	ip, [r3, #64]
 315:../reversi8_2019.c **** 		veces_pv++;
 2660              		.loc 1 315 0
 2661 0bbc 441093E5 		ldr	r1, [r3, #68]
 314:../reversi8_2019.c **** 		t_pv += (t_final - t_inicio);
 2662              		.loc 1 314 0
 2663 0bc0 0CC062E0 		rsb	ip, r2, ip
 2664 0bc4 00208CE0 		add	r2, ip, r0
 315:../reversi8_2019.c **** 		veces_pv++;
 2665              		.loc 1 315 0
 2666 0bc8 01C081E2 		add	ip, r1, #1
 314:../reversi8_2019.c **** 		t_pv += (t_final - t_inicio);
 2667              		.loc 1 314 0
 2668 0bcc 402083E5 		str	r2, [r3, #64]
 315:../reversi8_2019.c **** 		veces_pv++;
 2669              		.loc 1 315 0
 2670 0bd0 44C083E5 		str	ip, [r3, #68]
 316:../reversi8_2019.c **** 		return PATRON_ENCONTRADO; // si hay que voltear una ficha o más hemos encontrado el patrón
 2671              		.loc 1 316 0
 2672 0bd4 0100A0E3 		mov	r0, #1
 2673              	.LVL223:
 2674 0bd8 EFFFFFEA 		b	.L117
 2675              	.L126:
 2676              		.align	2
 2677              	.L125:
 2678 0bdc 00000000 		.word	.LANCHOR0
 2679              		.cfi_endproc
 2680              	.LFE11:
 2682              		.align	2
 2683              		.global	voltear
 2685              	voltear:
 2686              	.LFB12:
 333:../reversi8_2019.c **** {
 2687              		.loc 1 333 0
 2688              		.cfi_startproc
 2689              		@ Function supports interworking.
 2690              		@ args = 12, pretend = 0, frame = 24
 2691              		@ frame_needed = 0, uses_anonymous_args = 0
 2692              		@ link register save eliminated.
 2693              	.LVL224:
 2694 0be0 F0072DE9 		stmfd	sp!, {r4, r5, r6, r7, r8, r9, sl}
 2695              	.LCFI7:
 2696              		.cfi_def_cfa_offset 28
 2697 0be4 1CD04DE2 		sub	sp, sp, #28
 2698              	.LCFI8:
 2699              		.cfi_def_cfa_offset 56
 336:../reversi8_2019.c ****     for (i = 0; i < n; i++)
 2700              		.loc 1 336 0
 2701 0be8 3C609DE5 		ldr	r6, [sp, #60]
 2702              		.cfi_offset 10, -4
 2703              		.cfi_offset 9, -8
 2704              		.cfi_offset 8, -12
 2705              		.cfi_offset 7, -16
 2706              		.cfi_offset 6, -20
 2707              		.cfi_offset 5, -24
 2708              		.cfi_offset 4, -28
 2709 0bec 000056E3 		cmp	r6, #0
 333:../reversi8_2019.c **** {
 2710              		.loc 1 333 0
 2711 0bf0 3850DDE5 		ldrb	r5, [sp, #56]	@ zero_extendqisi2
 2712 0bf4 4040DDE5 		ldrb	r4, [sp, #64]	@ zero_extendqisi2
 336:../reversi8_2019.c ****     for (i = 0; i < n; i++)
 2713              		.loc 1 336 0
 2714 0bf8 4B0000DA 		ble	.L127
 338:../reversi8_2019.c ****         FA = FA + SF;
 2715              		.loc 1 338 0 discriminator 2
 2716 0bfc 031081E0 		add	r1, r1, r3
 2717              	.LVL225:
 2718 0c00 0680A0E1 		mov	r8, r6
 2719 0c04 FF1001E2 		and	r1, r1, #255
 339:../reversi8_2019.c ****         CA = CA + SC;
 2720              		.loc 1 339 0 discriminator 2
 2721 0c08 052082E0 		add	r2, r2, r5
 2722              	.LVL226:
 336:../reversi8_2019.c ****     for (i = 0; i < n; i++)
 2723              		.loc 1 336 0 discriminator 2
 2724 0c0c 01C0A0E3 		mov	ip, #1
 2725 0c10 016046E2 		sub	r6, r6, #1
 339:../reversi8_2019.c ****         CA = CA + SC;
 2726              		.loc 1 339 0 discriminator 2
 2727 0c14 FF2002E2 		and	r2, r2, #255
 2728              	.LVL227:
 340:../reversi8_2019.c ****         tablero[FA][CA] = color;
 2729              		.loc 1 340 0 discriminator 2
 2730 0c18 817180E0 		add	r7, r0, r1, asl #3
 336:../reversi8_2019.c ****     for (i = 0; i < n; i++)
 2731              		.loc 1 336 0 discriminator 2
 2732 0c1c 08005CE1 		cmp	ip, r8
 2733 0c20 036006E2 		and	r6, r6, #3
 340:../reversi8_2019.c ****         tablero[FA][CA] = color;
 2734              		.loc 1 340 0 discriminator 2
 2735 0c24 0240C7E7 		strb	r4, [r7, r2]
 336:../reversi8_2019.c ****     for (i = 0; i < n; i++)
 2736              		.loc 1 336 0 discriminator 2
 2737 0c28 3F00000A 		beq	.L127
 2738 0c2c 000056E3 		cmp	r6, #0
 2739 0c30 1B00000A 		beq	.L129
 2740 0c34 010056E3 		cmp	r6, #1
 2741 0c38 0F00000A 		beq	.L142
 2742 0c3c 020056E3 		cmp	r6, #2
 2743 0c40 0600000A 		beq	.L143
 338:../reversi8_2019.c ****         FA = FA + SF;
 2744              		.loc 1 338 0
 2745 0c44 031081E0 		add	r1, r1, r3
 2746 0c48 FF1001E2 		and	r1, r1, #255
 339:../reversi8_2019.c ****         CA = CA + SC;
 2747              		.loc 1 339 0
 2748 0c4c 056082E0 		add	r6, r2, r5
 340:../reversi8_2019.c ****         tablero[FA][CA] = color;
 2749              		.loc 1 340 0
 2750 0c50 81C180E0 		add	ip, r0, r1, asl #3
 339:../reversi8_2019.c ****         CA = CA + SC;
 2751              		.loc 1 339 0
 2752 0c54 FF2006E2 		and	r2, r6, #255
 340:../reversi8_2019.c ****         tablero[FA][CA] = color;
 2753              		.loc 1 340 0
 2754 0c58 0240CCE7 		strb	r4, [ip, r2]
 336:../reversi8_2019.c ****     for (i = 0; i < n; i++)
 2755              		.loc 1 336 0
 2756 0c5c 02C0A0E3 		mov	ip, #2
 2757              	.L143:
 338:../reversi8_2019.c ****         FA = FA + SF;
 2758              		.loc 1 338 0
 2759 0c60 036081E0 		add	r6, r1, r3
 2760 0c64 FF1006E2 		and	r1, r6, #255
 339:../reversi8_2019.c ****         CA = CA + SC;
 2761              		.loc 1 339 0
 2762 0c68 052082E0 		add	r2, r2, r5
 2763 0c6c FF2002E2 		and	r2, r2, #255
 340:../reversi8_2019.c ****         tablero[FA][CA] = color;
 2764              		.loc 1 340 0
 2765 0c70 817180E0 		add	r7, r0, r1, asl #3
 2766 0c74 0240C7E7 		strb	r4, [r7, r2]
 336:../reversi8_2019.c ****     for (i = 0; i < n; i++)
 2767              		.loc 1 336 0
 2768 0c78 01C08CE2 		add	ip, ip, #1
 2769              	.L142:
 339:../reversi8_2019.c ****         CA = CA + SC;
 2770              		.loc 1 339 0
 2771 0c7c 057082E0 		add	r7, r2, r5
 2772 0c80 FF2007E2 		and	r2, r7, #255
 338:../reversi8_2019.c ****         FA = FA + SF;
 2773              		.loc 1 338 0
 2774 0c84 031081E0 		add	r1, r1, r3
 336:../reversi8_2019.c ****     for (i = 0; i < n; i++)
 2775              		.loc 1 336 0
 2776 0c88 3C709DE5 		ldr	r7, [sp, #60]
 338:../reversi8_2019.c ****         FA = FA + SF;
 2777              		.loc 1 338 0
 2778 0c8c FF1001E2 		and	r1, r1, #255
 336:../reversi8_2019.c ****     for (i = 0; i < n; i++)
 2779              		.loc 1 336 0
 2780 0c90 01C08CE2 		add	ip, ip, #1
 340:../reversi8_2019.c ****         tablero[FA][CA] = color;
 2781              		.loc 1 340 0
 2782 0c94 816180E0 		add	r6, r0, r1, asl #3
 336:../reversi8_2019.c ****     for (i = 0; i < n; i++)
 2783              		.loc 1 336 0
 2784 0c98 07005CE1 		cmp	ip, r7
 340:../reversi8_2019.c ****         tablero[FA][CA] = color;
 2785              		.loc 1 340 0
 2786 0c9c 0240C6E7 		strb	r4, [r6, r2]
 336:../reversi8_2019.c ****     for (i = 0; i < n; i++)
 2787              		.loc 1 336 0
 2788 0ca0 2100000A 		beq	.L127
 2789              	.L129:
 339:../reversi8_2019.c ****         CA = CA + SC;
 2790              		.loc 1 339 0 discriminator 2
 2791 0ca4 057082E0 		add	r7, r2, r5
 2792 0ca8 FF7007E2 		and	r7, r7, #255
 338:../reversi8_2019.c ****         FA = FA + SF;
 2793              		.loc 1 338 0 discriminator 2
 2794 0cac 03A081E0 		add	sl, r1, r3
 2795 0cb0 FFA00AE2 		and	sl, sl, #255
 339:../reversi8_2019.c ****         CA = CA + SC;
 2796              		.loc 1 339 0 discriminator 2
 2797 0cb4 051087E0 		add	r1, r7, r5
 2798 0cb8 FF6001E2 		and	r6, r1, #255
 338:../reversi8_2019.c ****         FA = FA + SF;
 2799              		.loc 1 338 0 discriminator 2
 2800 0cbc 03808AE0 		add	r8, sl, r3
 2801 0cc0 FF8008E2 		and	r8, r8, #255
 339:../reversi8_2019.c ****         CA = CA + SC;
 2802              		.loc 1 339 0 discriminator 2
 2803 0cc4 059086E0 		add	r9, r6, r5
 338:../reversi8_2019.c ****         FA = FA + SF;
 2804              		.loc 1 338 0 discriminator 2
 2805 0cc8 032088E0 		add	r2, r8, r3
 339:../reversi8_2019.c ****         CA = CA + SC;
 2806              		.loc 1 339 0 discriminator 2
 2807 0ccc FF9009E2 		and	r9, r9, #255
 2808 0cd0 04608DE5 		str	r6, [sp, #4]
 338:../reversi8_2019.c ****         FA = FA + SF;
 2809              		.loc 1 338 0 discriminator 2
 2810 0cd4 FF2002E2 		and	r2, r2, #255
 339:../reversi8_2019.c ****         CA = CA + SC;
 2811              		.loc 1 339 0 discriminator 2
 2812 0cd8 056089E0 		add	r6, r9, r5
 340:../reversi8_2019.c ****         tablero[FA][CA] = color;
 2813              		.loc 1 340 0 discriminator 2
 2814 0cdc 8AA180E0 		add	sl, r0, sl, asl #3
 2815 0ce0 0CA08DE5 		str	sl, [sp, #12]
 338:../reversi8_2019.c ****         FA = FA + SF;
 2816              		.loc 1 338 0 discriminator 2
 2817 0ce4 031082E0 		add	r1, r2, r3
 340:../reversi8_2019.c ****         tablero[FA][CA] = color;
 2818              		.loc 1 340 0 discriminator 2
 2819 0ce8 82A180E0 		add	sl, r0, r2, asl #3
 339:../reversi8_2019.c ****         CA = CA + SC;
 2820              		.loc 1 339 0 discriminator 2
 2821 0cec FF2006E2 		and	r2, r6, #255
 336:../reversi8_2019.c ****     for (i = 0; i < n; i++)
 2822              		.loc 1 336 0 discriminator 2
 2823 0cf0 3C609DE5 		ldr	r6, [sp, #60]
 2824 0cf4 04C08CE2 		add	ip, ip, #4
 2825 0cf8 06005CE1 		cmp	ip, r6
 340:../reversi8_2019.c ****         tablero[FA][CA] = color;
 2826              		.loc 1 340 0 discriminator 2
 2827 0cfc 0C609DE5 		ldr	r6, [sp, #12]
 2828 0d00 888180E0 		add	r8, r0, r8, asl #3
 2829 0d04 10808DE5 		str	r8, [sp, #16]
 2830 0d08 0740C6E7 		strb	r4, [r6, r7]
 2831 0d0c 10609DE5 		ldr	r6, [sp, #16]
 2832 0d10 04709DE5 		ldr	r7, [sp, #4]
 338:../reversi8_2019.c ****         FA = FA + SF;
 2833              		.loc 1 338 0 discriminator 2
 2834 0d14 FF1001E2 		and	r1, r1, #255
 340:../reversi8_2019.c ****         tablero[FA][CA] = color;
 2835              		.loc 1 340 0 discriminator 2
 2836 0d18 818180E0 		add	r8, r0, r1, asl #3
 2837 0d1c 0740C6E7 		strb	r4, [r6, r7]
 2838 0d20 0940CAE7 		strb	r4, [sl, r9]
 2839 0d24 0240C8E7 		strb	r4, [r8, r2]
 336:../reversi8_2019.c ****     for (i = 0; i < n; i++)
 2840              		.loc 1 336 0 discriminator 2
 2841 0d28 DDFFFF1A 		bne	.L129
 2842              	.L127:
 342:../reversi8_2019.c **** }
 2843              		.loc 1 342 0
 2844 0d2c 1CD08DE2 		add	sp, sp, #28
 2845 0d30 F007BDE8 		ldmfd	sp!, {r4, r5, r6, r7, r8, r9, sl}
 2846 0d34 1EFF2FE1 		bx	lr
 2847              		.cfi_endproc
 2848              	.LFE12:
 2850              		.align	2
 2851              		.global	actualizar_tablero
 2853              	actualizar_tablero:
 2854              	.LFB13:
 350:../reversi8_2019.c **** {
 2855              		.loc 1 350 0
 2856              		.cfi_startproc
 2857              		@ Function supports interworking.
 2858              		@ args = 0, pretend = 0, frame = 56
 2859              		@ frame_needed = 1, uses_anonymous_args = 0
 2860              	.LVL228:
 2861 0d38 0DC0A0E1 		mov	ip, sp
 2862              	.LCFI9:
 2863              		.cfi_def_cfa_register 12
 2864 0d3c F0DF2DE9 		stmfd	sp!, {r4, r5, r6, r7, r8, r9, sl, fp, ip, lr, pc}
 2865 0d40 04B04CE2 		sub	fp, ip, #4
 2866              		.cfi_offset 14, -8
 2867              		.cfi_offset 13, -12
 2868              		.cfi_offset 11, -16
 2869              		.cfi_offset 10, -20
 2870              		.cfi_offset 9, -24
 2871              		.cfi_offset 8, -28
 2872              		.cfi_offset 7, -32
 2873              		.cfi_offset 6, -36
 2874              		.cfi_offset 5, -40
 2875              		.cfi_offset 4, -44
 2876              	.LCFI10:
 2877              		.cfi_def_cfa 11, 4
 2878 0d44 4CD04DE2 		sub	sp, sp, #76
 354:../reversi8_2019.c ****     for (i = 0; i < DIM; i++) // 0 es Norte, 1 NE, 2 E ...
 2879              		.loc 1 354 0
 2880 0d48 0060A0E3 		mov	r6, #0
 350:../reversi8_2019.c **** {
 2881              		.loc 1 350 0
 2882 0d4c 0070A0E1 		mov	r7, r0
 2883 0d50 38100BE5 		str	r1, [fp, #-56]
 2884 0d54 3C200BE5 		str	r2, [fp, #-60]
 2885 0d58 0380A0E1 		mov	r8, r3
 2886 0d5c 020000EA 		b	.L150
 2887              	.LVL229:
 2888              	.L147:
 354:../reversi8_2019.c ****     for (i = 0; i < DIM; i++) // 0 es Norte, 1 NE, 2 E ...
 2889              		.loc 1 354 0
 2890 0d60 016086E2 		add	r6, r6, #1
 2891              	.LVL230:
 2892 0d64 080056E3 		cmp	r6, #8
 2893 0d68 6700000A 		beq	.L168
 2894              	.LVL231:
 2895              	.L150:
 356:../reversi8_2019.c ****         SF = vSF[i];
 2896              		.loc 1 356 0
 2897 0d6c A8119FE5 		ldr	r1, .L169
 357:../reversi8_2019.c ****         SC = vSC[i];
 2898              		.loc 1 357 0
 2899 0d70 082081E2 		add	r2, r1, #8
 356:../reversi8_2019.c ****         SF = vSF[i];
 2900              		.loc 1 356 0
 2901 0d74 0650D1E7 		ldrb	r5, [r1, r6]	@ zero_extendqisi2
 2902              	.LVL232:
 357:../reversi8_2019.c ****         SC = vSC[i];
 2903              		.loc 1 357 0
 2904 0d78 0640D2E7 		ldrb	r4, [r2, r6]	@ zero_extendqisi2
 2905              	.LVL233:
 360:../reversi8_2019.c ****         patron = patron_volteo(tablero, &flip, f, c, SF, SC, color);
 2906              		.loc 1 360 0
 2907 0d7c 0700A0E1 		mov	r0, r7
 2908 0d80 30104BE2 		sub	r1, fp, #48
 2909 0d84 38201BE5 		ldr	r2, [fp, #-56]
 2910 0d88 3C301BE5 		ldr	r3, [fp, #-60]
 359:../reversi8_2019.c ****         flip = 0;
 2911              		.loc 1 359 0
 2912 0d8c 00A0A0E3 		mov	sl, #0
 2913 0d90 30A00BE5 		str	sl, [fp, #-48]
 360:../reversi8_2019.c ****         patron = patron_volteo(tablero, &flip, f, c, SF, SC, color);
 2914              		.loc 1 360 0
 2915 0d94 00508DE5 		str	r5, [sp, #0]
 2916 0d98 10018DE9 		stmib	sp, {r4, r8}	@ phole stm
 2917 0d9c FEFFFFEB 		bl	patron_volteo
 2918              	.LVL234:
 361:../reversi8_2019.c ****         if (patron == PATRON_ENCONTRADO )
 2919              		.loc 1 361 0
 2920 0da0 010050E3 		cmp	r0, #1
 2921 0da4 EDFFFF1A 		bne	.L147
 363:../reversi8_2019.c ****             voltear(tablero, f, c, SF, SC, flip, color);
 2922              		.loc 1 363 0
 2923 0da8 30201BE5 		ldr	r2, [fp, #-48]
 2924              	.LVL235:
 2925              	.LBB50:
 2926              	.LBB51:
 336:../reversi8_2019.c ****     for (i = 0; i < n; i++)
 2927              		.loc 1 336 0
 2928 0dac 0A0052E1 		cmp	r2, sl
 2929 0db0 4F0000DA 		ble	.L148
 338:../reversi8_2019.c ****         FA = FA + SF;
 2930              		.loc 1 338 0
 2931 0db4 3C104BE2 		sub	r1, fp, #60
 2932 0db8 020491E8 		ldmia	r1, {r1, sl}	@ phole ldm
 2933 0dbc 05308AE0 		add	r3, sl, r5
 2934 0dc0 FF3003E2 		and	r3, r3, #255
 2935              	.LVL236:
 339:../reversi8_2019.c ****         CA = CA + SC;
 2936              		.loc 1 339 0
 2937 0dc4 04E081E0 		add	lr, r1, r4
 2938 0dc8 01C042E2 		sub	ip, r2, #1
 2939 0dcc FF100EE2 		and	r1, lr, #255
 2940              	.LVL237:
 340:../reversi8_2019.c ****         tablero[FA][CA] = color;
 2941              		.loc 1 340 0
 2942 0dd0 83A187E0 		add	sl, r7, r3, asl #3
 336:../reversi8_2019.c ****     for (i = 0; i < n; i++)
 2943              		.loc 1 336 0
 2944 0dd4 020050E1 		cmp	r0, r2
 2945 0dd8 03C00CE2 		and	ip, ip, #3
 340:../reversi8_2019.c ****         tablero[FA][CA] = color;
 2946              		.loc 1 340 0
 2947 0ddc 0180CAE7 		strb	r8, [sl, r1]
 336:../reversi8_2019.c ****     for (i = 0; i < n; i++)
 2948              		.loc 1 336 0
 2949 0de0 4300000A 		beq	.L148
 2950 0de4 00005CE3 		cmp	ip, #0
 2951 0de8 1A00000A 		beq	.L167
 2952 0dec 01005CE3 		cmp	ip, #1
 2953 0df0 0F00000A 		beq	.L164
 2954 0df4 02005CE3 		cmp	ip, #2
 2955 0df8 0600000A 		beq	.L165
 338:../reversi8_2019.c ****         FA = FA + SF;
 2956              		.loc 1 338 0
 2957 0dfc 053083E0 		add	r3, r3, r5
 2958 0e00 FF3003E2 		and	r3, r3, #255
 2959              	.LVL238:
 339:../reversi8_2019.c ****         CA = CA + SC;
 2960              		.loc 1 339 0
 2961 0e04 041081E0 		add	r1, r1, r4
 2962 0e08 FF1001E2 		and	r1, r1, #255
 2963              	.LVL239:
 340:../reversi8_2019.c ****         tablero[FA][CA] = color;
 2964              		.loc 1 340 0
 2965 0e0c 83E187E0 		add	lr, r7, r3, asl #3
 2966 0e10 0180CEE7 		strb	r8, [lr, r1]
 336:../reversi8_2019.c ****     for (i = 0; i < n; i++)
 2967              		.loc 1 336 0
 2968 0e14 0200A0E3 		mov	r0, #2
 2969              	.LVL240:
 2970              	.L165:
 338:../reversi8_2019.c ****         FA = FA + SF;
 2971              		.loc 1 338 0
 2972 0e18 05E083E0 		add	lr, r3, r5
 2973 0e1c FF300EE2 		and	r3, lr, #255
 339:../reversi8_2019.c ****         CA = CA + SC;
 2974              		.loc 1 339 0
 2975 0e20 04A081E0 		add	sl, r1, r4
 2976 0e24 FF100AE2 		and	r1, sl, #255
 340:../reversi8_2019.c ****         tablero[FA][CA] = color;
 2977              		.loc 1 340 0
 2978 0e28 83C187E0 		add	ip, r7, r3, asl #3
 2979 0e2c 0180CCE7 		strb	r8, [ip, r1]
 336:../reversi8_2019.c ****     for (i = 0; i < n; i++)
 2980              		.loc 1 336 0
 2981 0e30 010080E2 		add	r0, r0, #1
 2982              	.L164:
 338:../reversi8_2019.c ****         FA = FA + SF;
 2983              		.loc 1 338 0
 2984 0e34 053083E0 		add	r3, r3, r5
 2985 0e38 FF3003E2 		and	r3, r3, #255
 339:../reversi8_2019.c ****         CA = CA + SC;
 2986              		.loc 1 339 0
 2987 0e3c 041081E0 		add	r1, r1, r4
 336:../reversi8_2019.c ****     for (i = 0; i < n; i++)
 2988              		.loc 1 336 0
 2989 0e40 010080E2 		add	r0, r0, #1
 339:../reversi8_2019.c ****         CA = CA + SC;
 2990              		.loc 1 339 0
 2991 0e44 FF1001E2 		and	r1, r1, #255
 340:../reversi8_2019.c ****         tablero[FA][CA] = color;
 2992              		.loc 1 340 0
 2993 0e48 83C187E0 		add	ip, r7, r3, asl #3
 336:../reversi8_2019.c ****     for (i = 0; i < n; i++)
 2994              		.loc 1 336 0
 2995 0e4c 020050E1 		cmp	r0, r2
 340:../reversi8_2019.c ****         tablero[FA][CA] = color;
 2996              		.loc 1 340 0
 2997 0e50 0180CCE7 		strb	r8, [ip, r1]
 336:../reversi8_2019.c ****     for (i = 0; i < n; i++)
 2998              		.loc 1 336 0
 2999 0e54 2600000A 		beq	.L148
 3000              	.L167:
 3001 0e58 4C200BE5 		str	r2, [fp, #-76]
 3002 0e5c 50600BE5 		str	r6, [fp, #-80]
 3003              	.L149:
 338:../reversi8_2019.c ****         FA = FA + SF;
 3004              		.loc 1 338 0
 3005 0e60 05A083E0 		add	sl, r3, r5
 339:../reversi8_2019.c ****         CA = CA + SC;
 3006              		.loc 1 339 0
 3007 0e64 046081E0 		add	r6, r1, r4
 3008 0e68 FF1006E2 		and	r1, r6, #255
 338:../reversi8_2019.c ****         FA = FA + SF;
 3009              		.loc 1 338 0
 3010 0e6c FFA00AE2 		and	sl, sl, #255
 3011 0e70 05C08AE0 		add	ip, sl, r5
 339:../reversi8_2019.c ****         CA = CA + SC;
 3012              		.loc 1 339 0
 3013 0e74 04E081E0 		add	lr, r1, r4
 338:../reversi8_2019.c ****         FA = FA + SF;
 3014              		.loc 1 338 0
 3015 0e78 FF600CE2 		and	r6, ip, #255
 339:../reversi8_2019.c ****         CA = CA + SC;
 3016              		.loc 1 339 0
 3017 0e7c FFE00EE2 		and	lr, lr, #255
 338:../reversi8_2019.c ****         FA = FA + SF;
 3018              		.loc 1 338 0
 3019 0e80 052086E0 		add	r2, r6, r5
 339:../reversi8_2019.c ****         CA = CA + SC;
 3020              		.loc 1 339 0
 3021 0e84 04908EE0 		add	r9, lr, r4
 338:../reversi8_2019.c ****         FA = FA + SF;
 3022              		.loc 1 338 0
 3023 0e88 FFC002E2 		and	ip, r2, #255
 339:../reversi8_2019.c ****         CA = CA + SC;
 3024              		.loc 1 339 0
 3025 0e8c FF9009E2 		and	r9, r9, #255
 340:../reversi8_2019.c ****         tablero[FA][CA] = color;
 3026              		.loc 1 340 0
 3027 0e90 8AA187E0 		add	sl, r7, sl, asl #3
 339:../reversi8_2019.c ****         CA = CA + SC;
 3028              		.loc 1 339 0
 3029 0e94 58100BE5 		str	r1, [fp, #-88]
 340:../reversi8_2019.c ****         tablero[FA][CA] = color;
 3030              		.loc 1 340 0
 3031 0e98 40A00BE5 		str	sl, [fp, #-64]
 3032 0e9c 8C1187E0 		add	r1, r7, ip, asl #3
 339:../reversi8_2019.c ****         CA = CA + SC;
 3033              		.loc 1 339 0
 3034 0ea0 042089E0 		add	r2, r9, r4
 340:../reversi8_2019.c ****         tablero[FA][CA] = color;
 3035              		.loc 1 340 0
 3036 0ea4 60100BE5 		str	r1, [fp, #-96]
 3037 0ea8 40A01BE5 		ldr	sl, [fp, #-64]
 339:../reversi8_2019.c ****         CA = CA + SC;
 3038              		.loc 1 339 0
 3039 0eac FF1002E2 		and	r1, r2, #255
 340:../reversi8_2019.c ****         tablero[FA][CA] = color;
 3040              		.loc 1 340 0
 3041 0eb0 58201BE5 		ldr	r2, [fp, #-88]
 338:../reversi8_2019.c ****         FA = FA + SF;
 3042              		.loc 1 338 0
 3043 0eb4 05308CE0 		add	r3, ip, r5
 340:../reversi8_2019.c ****         tablero[FA][CA] = color;
 3044              		.loc 1 340 0
 3045 0eb8 866187E0 		add	r6, r7, r6, asl #3
 336:../reversi8_2019.c ****     for (i = 0; i < n; i++)
 3046              		.loc 1 336 0
 3047 0ebc 4CC01BE5 		ldr	ip, [fp, #-76]
 340:../reversi8_2019.c ****         tablero[FA][CA] = color;
 3048              		.loc 1 340 0
 3049 0ec0 44600BE5 		str	r6, [fp, #-68]
 336:../reversi8_2019.c ****     for (i = 0; i < n; i++)
 3050              		.loc 1 336 0
 3051 0ec4 040080E2 		add	r0, r0, #4
 340:../reversi8_2019.c ****         tablero[FA][CA] = color;
 3052              		.loc 1 340 0
 3053 0ec8 0280CAE7 		strb	r8, [sl, r2]
 336:../reversi8_2019.c ****     for (i = 0; i < n; i++)
 3054              		.loc 1 336 0
 3055 0ecc 0C0050E1 		cmp	r0, ip
 340:../reversi8_2019.c ****         tablero[FA][CA] = color;
 3056              		.loc 1 340 0
 3057 0ed0 44C01BE5 		ldr	ip, [fp, #-68]
 3058 0ed4 0E80CCE7 		strb	r8, [ip, lr]
 3059 0ed8 60201BE5 		ldr	r2, [fp, #-96]
 338:../reversi8_2019.c ****         FA = FA + SF;
 3060              		.loc 1 338 0
 3061 0edc FF3003E2 		and	r3, r3, #255
 340:../reversi8_2019.c ****         tablero[FA][CA] = color;
 3062              		.loc 1 340 0
 3063 0ee0 836187E0 		add	r6, r7, r3, asl #3
 3064 0ee4 0980C2E7 		strb	r8, [r2, r9]
 3065 0ee8 0180C6E7 		strb	r8, [r6, r1]
 336:../reversi8_2019.c ****     for (i = 0; i < n; i++)
 3066              		.loc 1 336 0
 3067 0eec DBFFFF1A 		bne	.L149
 3068 0ef0 50601BE5 		ldr	r6, [fp, #-80]
 3069              	.L148:
 3070              	.LBE51:
 3071              	.LBE50:
 364:../reversi8_2019.c ****             jugada_valida = 1;          //TODO explicar
 3072              		.loc 1 364 0
 3073 0ef4 24A09FE5 		ldr	sl, .L169+4
 354:../reversi8_2019.c ****     for (i = 0; i < DIM; i++) // 0 es Norte, 1 NE, 2 E ...
 3074              		.loc 1 354 0
 3075 0ef8 016086E2 		add	r6, r6, #1
 3076              	.LVL241:
 364:../reversi8_2019.c ****             jugada_valida = 1;          //TODO explicar
 3077              		.loc 1 364 0
 3078 0efc 0100A0E3 		mov	r0, #1
 354:../reversi8_2019.c ****     for (i = 0; i < DIM; i++) // 0 es Norte, 1 NE, 2 E ...
 3079              		.loc 1 354 0
 3080 0f00 080056E3 		cmp	r6, #8
 364:../reversi8_2019.c ****             jugada_valida = 1;          //TODO explicar
 3081              		.loc 1 364 0
 3082 0f04 88008AE5 		str	r0, [sl, #136]
 354:../reversi8_2019.c ****     for (i = 0; i < DIM; i++) // 0 es Norte, 1 NE, 2 E ...
 3083              		.loc 1 354 0
 3084 0f08 97FFFF1A 		bne	.L150
 3085              	.LVL242:
 3086              	.L168:
 368:../reversi8_2019.c **** }
 3087              		.loc 1 368 0
 3088 0f0c 0000A0E3 		mov	r0, #0
 3089 0f10 28D04BE2 		sub	sp, fp, #40
 3090 0f14 F06F9DE8 		ldmfd	sp, {r4, r5, r6, r7, r8, r9, sl, fp, sp, lr}
 3091 0f18 1EFF2FE1 		bx	lr
 3092              	.L170:
 3093              		.align	2
 3094              	.L169:
 3095 0f1c 00000000 		.word	.LANCHOR1
 3096 0f20 00000000 		.word	.LANCHOR0
 3097              		.cfi_endproc
 3098              	.LFE13:
 3100              		.align	2
 3101              		.global	elegir_mov
 3103              	elegir_mov:
 3104              	.LFB14:
 381:../reversi8_2019.c **** {
 3105              		.loc 1 381 0
 3106              		.cfi_startproc
 3107              		@ Function supports interworking.
 3108              		@ args = 0, pretend = 0, frame = 40
 3109              		@ frame_needed = 1, uses_anonymous_args = 0
 3110              	.LVL243:
 3111 0f24 0DC0A0E1 		mov	ip, sp
 3112              	.LCFI11:
 3113              		.cfi_def_cfa_register 12
 3114 0f28 F0DF2DE9 		stmfd	sp!, {r4, r5, r6, r7, r8, r9, sl, fp, ip, lr, pc}
 3115 0f2c 04B04CE2 		sub	fp, ip, #4
 3116              		.cfi_offset 14, -8
 3117              		.cfi_offset 13, -12
 3118              		.cfi_offset 11, -16
 3119              		.cfi_offset 10, -20
 3120              		.cfi_offset 9, -24
 3121              		.cfi_offset 8, -28
 3122              		.cfi_offset 7, -32
 3123              		.cfi_offset 6, -36
 3124              		.cfi_offset 5, -40
 3125              		.cfi_offset 4, -44
 3126              	.LCFI12:
 3127              		.cfi_def_cfa 11, 4
 3128 0f30 3CD04DE2 		sub	sp, sp, #60
 391:../reversi8_2019.c ****     for (i=0; i<DIM; i++)
 3129              		.loc 1 391 0
 3130 0f34 0080A0E3 		mov	r8, #0
 381:../reversi8_2019.c **** {
 3131              		.loc 1 381 0
 3132 0f38 50200BE5 		str	r2, [fp, #-80]
 383:../reversi8_2019.c ****     int mf = -1; // almacena la fila del mejor movimiento encontrado
 3133              		.loc 1 383 0
 3134 0f3c 0020E0E3 		mvn	r2, #0
 3135              	.LVL244:
 381:../reversi8_2019.c **** {
 3136              		.loc 1 381 0
 3137 0f40 38100BE5 		str	r1, [fp, #-56]
 3138 0f44 54300BE5 		str	r3, [fp, #-84]
 385:../reversi8_2019.c ****     char mejor = 0; // almacena el mejor valor encontrado
 3139              		.loc 1 385 0
 3140 0f48 3C800BE5 		str	r8, [fp, #-60]
 383:../reversi8_2019.c ****     int mf = -1; // almacena la fila del mejor movimiento encontrado
 3141              		.loc 1 383 0
 3142 0f4c 48200BE5 		str	r2, [fp, #-72]
 415:../reversi8_2019.c ****                             if (tabla_valor[i][j] > mejor)
 3143              		.loc 1 415 0
 3144 0f50 0070A0E1 		mov	r7, r0
 3145              	.LVL245:
 3146              	.L172:
 380:../reversi8_2019.c **** int elegir_mov(char candidatas[][DIM], char tablero[][DIM], char *f, char *c)
 3147              		.loc 1 380 0 discriminator 1
 3148 0f54 38101BE5 		ldr	r1, [fp, #-56]
 3149 0f58 10C29FE5 		ldr	ip, .L180
 3150 0f5c 8831A0E1 		mov	r3, r8, asl #3
 3151 0f60 030081E0 		add	r0, r1, r3
 3152 0f64 03508CE0 		add	r5, ip, r3
 381:../reversi8_2019.c **** {
 3153              		.loc 1 381 0 discriminator 1
 3154 0f68 0040A0E3 		mov	r4, #0
 380:../reversi8_2019.c **** int elegir_mov(char candidatas[][DIM], char tablero[][DIM], char *f, char *c)
 3155              		.loc 1 380 0 discriminator 1
 3156 0f6c 44000BE5 		str	r0, [fp, #-68]
 3157 0f70 40500BE5 		str	r5, [fp, #-64]
 3158 0f74 020000EA 		b	.L176
 3159              	.LVL246:
 3160              	.L173:
 393:../reversi8_2019.c ****         for (j=0; j<DIM; j++)
 3161              		.loc 1 393 0
 3162 0f78 014084E2 		add	r4, r4, #1
 3163              	.LVL247:
 3164 0f7c 080054E3 		cmp	r4, #8
 3165 0f80 6C00000A 		beq	.L179
 3166              	.LVL248:
 3167              	.L176:
 395:../reversi8_2019.c ****             if (candidatas[i][j] == SI)
 3168              		.loc 1 395 0
 3169 0f84 0450D7E7 		ldrb	r5, [r7, r4]	@ zero_extendqisi2
 3170 0f88 010055E3 		cmp	r5, #1
 3171 0f8c F9FFFF1A 		bne	.L173
 397:../reversi8_2019.c ****                 if (tablero[i][j] == CASILLA_VACIA)
 3172              		.loc 1 397 0
 3173 0f90 44301BE5 		ldr	r3, [fp, #-68]
 3174 0f94 0460D3E7 		ldrb	r6, [r3, r4]	@ zero_extendqisi2
 3175 0f98 000056E3 		cmp	r6, #0
 3176 0f9c F5FFFF1A 		bne	.L173
 3177              	.LVL249:
 3178 0fa0 FFA008E2 		and	sl, r8, #255
 3179 0fa4 FF9004E2 		and	r9, r4, #255
 411:../reversi8_2019.c ****                         patron = patron_volteo(tablero, &longitud, i, j, SF, SC, FICHA_BLANCA);
 3180              		.loc 1 411 0
 3181 0fa8 FFC0A0E3 		mov	ip, #255
 3182 0fac 38001BE5 		ldr	r0, [fp, #-56]
 3183 0fb0 30104BE2 		sub	r1, fp, #48
 3184 0fb4 0A20A0E1 		mov	r2, sl
 3185 0fb8 0930A0E1 		mov	r3, r9
 410:../reversi8_2019.c ****                         longitud = 0;
 3186              		.loc 1 410 0
 3187 0fbc 30600BE5 		str	r6, [fp, #-48]
 411:../reversi8_2019.c ****                         patron = patron_volteo(tablero, &longitud, i, j, SF, SC, FICHA_BLANCA);
 3188              		.loc 1 411 0
 3189 0fc0 00C08DE5 		str	ip, [sp, #0]
 3190 0fc4 04608DE5 		str	r6, [sp, #4]
 3191 0fc8 08508DE5 		str	r5, [sp, #8]
 3192 0fcc FEFFFFEB 		bl	patron_volteo
 3193              	.LVL250:
 412:../reversi8_2019.c ****                         if (patron == PATRON_ENCONTRADO)
 3194              		.loc 1 412 0
 3195 0fd0 010050E3 		cmp	r0, #1
 3196 0fd4 4D00000A 		beq	.L174
 3197              	.LVL251:
 411:../reversi8_2019.c ****                         patron = patron_volteo(tablero, &longitud, i, j, SF, SC, FICHA_BLANCA);
 3198              		.loc 1 411 0
 3199 0fd8 FFE0A0E3 		mov	lr, #255
 3200 0fdc 38001BE5 		ldr	r0, [fp, #-56]
 3201              	.LVL252:
 3202 0fe0 30104BE2 		sub	r1, fp, #48
 3203 0fe4 0A20A0E1 		mov	r2, sl
 3204 0fe8 0930A0E1 		mov	r3, r9
 410:../reversi8_2019.c ****                         longitud = 0;
 3205              		.loc 1 410 0
 3206 0fec 30600BE5 		str	r6, [fp, #-48]
 411:../reversi8_2019.c ****                         patron = patron_volteo(tablero, &longitud, i, j, SF, SC, FICHA_BLANCA);
 3207              		.loc 1 411 0
 3208 0ff0 00E08DE5 		str	lr, [sp, #0]
 3209 0ff4 04508DE5 		str	r5, [sp, #4]
 3210 0ff8 08508DE5 		str	r5, [sp, #8]
 3211 0ffc FEFFFFEB 		bl	patron_volteo
 3212              	.LVL253:
 412:../reversi8_2019.c ****                         if (patron == PATRON_ENCONTRADO)
 3213              		.loc 1 412 0
 3214 1000 010050E3 		cmp	r0, #1
 3215 1004 4100000A 		beq	.L174
 3216              	.LVL254:
 411:../reversi8_2019.c ****                         patron = patron_volteo(tablero, &longitud, i, j, SF, SC, FICHA_BLANCA);
 3217              		.loc 1 411 0
 3218 1008 38001BE5 		ldr	r0, [fp, #-56]
 3219              	.LVL255:
 3220 100c 30104BE2 		sub	r1, fp, #48
 3221 1010 0A20A0E1 		mov	r2, sl
 3222 1014 0930A0E1 		mov	r3, r9
 410:../reversi8_2019.c ****                         longitud = 0;
 3223              		.loc 1 410 0
 3224 1018 30600BE5 		str	r6, [fp, #-48]
 411:../reversi8_2019.c ****                         patron = patron_volteo(tablero, &longitud, i, j, SF, SC, FICHA_BLANCA);
 3225              		.loc 1 411 0
 3226 101c 00608DE5 		str	r6, [sp, #0]
 3227 1020 04508DE5 		str	r5, [sp, #4]
 3228 1024 08508DE5 		str	r5, [sp, #8]
 3229 1028 FEFFFFEB 		bl	patron_volteo
 3230              	.LVL256:
 412:../reversi8_2019.c ****                         if (patron == PATRON_ENCONTRADO)
 3231              		.loc 1 412 0
 3232 102c 010050E3 		cmp	r0, #1
 3233 1030 3600000A 		beq	.L174
 3234              	.LVL257:
 411:../reversi8_2019.c ****                         patron = patron_volteo(tablero, &longitud, i, j, SF, SC, FICHA_BLANCA);
 3235              		.loc 1 411 0
 3236 1034 38001BE5 		ldr	r0, [fp, #-56]
 3237              	.LVL258:
 3238 1038 30104BE2 		sub	r1, fp, #48
 3239 103c 0A20A0E1 		mov	r2, sl
 3240 1040 0930A0E1 		mov	r3, r9
 410:../reversi8_2019.c ****                         longitud = 0;
 3241              		.loc 1 410 0
 3242 1044 30600BE5 		str	r6, [fp, #-48]
 411:../reversi8_2019.c ****                         patron = patron_volteo(tablero, &longitud, i, j, SF, SC, FICHA_BLANCA);
 3243              		.loc 1 411 0
 3244 1048 00508DE5 		str	r5, [sp, #0]
 3245 104c 04508DE5 		str	r5, [sp, #4]
 3246 1050 08508DE5 		str	r5, [sp, #8]
 3247 1054 FEFFFFEB 		bl	patron_volteo
 3248              	.LVL259:
 412:../reversi8_2019.c ****                         if (patron == PATRON_ENCONTRADO)
 3249              		.loc 1 412 0
 3250 1058 010050E3 		cmp	r0, #1
 3251 105c 2B00000A 		beq	.L174
 3252              	.LVL260:
 411:../reversi8_2019.c ****                         patron = patron_volteo(tablero, &longitud, i, j, SF, SC, FICHA_BLANCA);
 3253              		.loc 1 411 0
 3254 1060 38001BE5 		ldr	r0, [fp, #-56]
 3255              	.LVL261:
 3256 1064 30104BE2 		sub	r1, fp, #48
 3257 1068 0A20A0E1 		mov	r2, sl
 3258 106c 0930A0E1 		mov	r3, r9
 410:../reversi8_2019.c ****                         longitud = 0;
 3259              		.loc 1 410 0
 3260 1070 30600BE5 		str	r6, [fp, #-48]
 411:../reversi8_2019.c ****                         patron = patron_volteo(tablero, &longitud, i, j, SF, SC, FICHA_BLANCA);
 3261              		.loc 1 411 0
 3262 1074 60008DE8 		stmia	sp, {r5, r6}	@ phole stm
 3263 1078 08508DE5 		str	r5, [sp, #8]
 3264 107c FEFFFFEB 		bl	patron_volteo
 3265              	.LVL262:
 412:../reversi8_2019.c ****                         if (patron == PATRON_ENCONTRADO)
 3266              		.loc 1 412 0
 3267 1080 010050E3 		cmp	r0, #1
 3268 1084 2100000A 		beq	.L174
 3269              	.LVL263:
 411:../reversi8_2019.c ****                         patron = patron_volteo(tablero, &longitud, i, j, SF, SC, FICHA_BLANCA);
 3270              		.loc 1 411 0
 3271 1088 FFC0A0E3 		mov	ip, #255
 3272 108c 38001BE5 		ldr	r0, [fp, #-56]
 3273              	.LVL264:
 3274 1090 30104BE2 		sub	r1, fp, #48
 3275 1094 0A20A0E1 		mov	r2, sl
 3276 1098 0930A0E1 		mov	r3, r9
 410:../reversi8_2019.c ****                         longitud = 0;
 3277              		.loc 1 410 0
 3278 109c 30600BE5 		str	r6, [fp, #-48]
 411:../reversi8_2019.c ****                         patron = patron_volteo(tablero, &longitud, i, j, SF, SC, FICHA_BLANCA);
 3279              		.loc 1 411 0
 3280 10a0 20108DE8 		stmia	sp, {r5, ip}	@ phole stm
 3281 10a4 08508DE5 		str	r5, [sp, #8]
 3282 10a8 FEFFFFEB 		bl	patron_volteo
 3283              	.LVL265:
 412:../reversi8_2019.c ****                         if (patron == PATRON_ENCONTRADO)
 3284              		.loc 1 412 0
 3285 10ac 010050E3 		cmp	r0, #1
 3286 10b0 1600000A 		beq	.L174
 3287              	.LVL266:
 411:../reversi8_2019.c ****                         patron = patron_volteo(tablero, &longitud, i, j, SF, SC, FICHA_BLANCA);
 3288              		.loc 1 411 0
 3289 10b4 FFE0A0E3 		mov	lr, #255
 3290 10b8 38001BE5 		ldr	r0, [fp, #-56]
 3291              	.LVL267:
 3292 10bc 30104BE2 		sub	r1, fp, #48
 3293 10c0 0A20A0E1 		mov	r2, sl
 3294 10c4 0930A0E1 		mov	r3, r9
 410:../reversi8_2019.c ****                         longitud = 0;
 3295              		.loc 1 410 0
 3296 10c8 30600BE5 		str	r6, [fp, #-48]
 411:../reversi8_2019.c ****                         patron = patron_volteo(tablero, &longitud, i, j, SF, SC, FICHA_BLANCA);
 3297              		.loc 1 411 0
 3298 10cc 40408DE8 		stmia	sp, {r6, lr}	@ phole stm
 3299 10d0 08508DE5 		str	r5, [sp, #8]
 3300 10d4 FEFFFFEB 		bl	patron_volteo
 3301              	.LVL268:
 412:../reversi8_2019.c ****                         if (patron == PATRON_ENCONTRADO)
 3302              		.loc 1 412 0
 3303 10d8 010050E3 		cmp	r0, #1
 3304 10dc 0B00000A 		beq	.L174
 3305              	.LVL269:
 411:../reversi8_2019.c ****                         patron = patron_volteo(tablero, &longitud, i, j, SF, SC, FICHA_BLANCA);
 3306              		.loc 1 411 0
 3307 10e0 FFC0A0E3 		mov	ip, #255
 3308 10e4 38001BE5 		ldr	r0, [fp, #-56]
 3309              	.LVL270:
 3310 10e8 30104BE2 		sub	r1, fp, #48
 3311 10ec 0A20A0E1 		mov	r2, sl
 3312 10f0 0930A0E1 		mov	r3, r9
 410:../reversi8_2019.c ****                         longitud = 0;
 3313              		.loc 1 410 0
 3314 10f4 30600BE5 		str	r6, [fp, #-48]
 411:../reversi8_2019.c ****                         patron = patron_volteo(tablero, &longitud, i, j, SF, SC, FICHA_BLANCA);
 3315              		.loc 1 411 0
 3316 10f8 00C08DE5 		str	ip, [sp, #0]
 3317 10fc 04C08DE5 		str	ip, [sp, #4]
 3318 1100 08508DE5 		str	r5, [sp, #8]
 3319 1104 FEFFFFEB 		bl	patron_volteo
 3320              	.LVL271:
 412:../reversi8_2019.c ****                         if (patron == PATRON_ENCONTRADO)
 3321              		.loc 1 412 0
 3322 1108 010050E3 		cmp	r0, #1
 3323 110c 99FFFF1A 		bne	.L173
 3324              	.LVL272:
 3325              	.L174:
 415:../reversi8_2019.c ****                             if (tabla_valor[i][j] > mejor)
 3326              		.loc 1 415 0
 3327 1110 40201BE5 		ldr	r2, [fp, #-64]
 3328 1114 3C101BE5 		ldr	r1, [fp, #-60]
 3329 1118 0400D2E7 		ldrb	r0, [r2, r4]	@ zero_extendqisi2
 3330              	.LVL273:
 3331 111c 010050E1 		cmp	r0, r1
 3332 1120 4C400B85 		strhi	r4, [fp, #-76]
 393:../reversi8_2019.c ****         for (j=0; j<DIM; j++)
 3333              		.loc 1 393 0
 3334 1124 014084E2 		add	r4, r4, #1
 415:../reversi8_2019.c ****                             if (tabla_valor[i][j] > mejor)
 3335              		.loc 1 415 0
 3336 1128 3C000B85 		strhi	r0, [fp, #-60]
 3337 112c 48800B85 		strhi	r8, [fp, #-72]
 3338              	.LVL274:
 393:../reversi8_2019.c ****         for (j=0; j<DIM; j++)
 3339              		.loc 1 393 0
 3340 1130 080054E3 		cmp	r4, #8
 3341 1134 92FFFF1A 		bne	.L176
 3342              	.LVL275:
 3343              	.L179:
 391:../reversi8_2019.c ****     for (i=0; i<DIM; i++)
 3344              		.loc 1 391 0
 3345 1138 018088E2 		add	r8, r8, #1
 3346              	.LVL276:
 3347 113c 080058E3 		cmp	r8, #8
 3348 1140 087087E2 		add	r7, r7, #8
 3349 1144 82FFFF1A 		bne	.L172
 429:../reversi8_2019.c ****     *f = (char) mf;
 3350              		.loc 1 429 0
 3351 1148 50001BE5 		ldr	r0, [fp, #-80]
 3352 114c 48C01BE5 		ldr	ip, [fp, #-72]
 3353 1150 00C0C0E5 		strb	ip, [r0, #0]
 430:../reversi8_2019.c ****     *c = (char) mc;
 3354              		.loc 1 430 0
 3355 1154 4C301BE5 		ldr	r3, [fp, #-76]
 3356 1158 54201BE5 		ldr	r2, [fp, #-84]
 433:../reversi8_2019.c **** }
 3357              		.loc 1 433 0
 3358 115c 48001BE5 		ldr	r0, [fp, #-72]
 430:../reversi8_2019.c ****     *c = (char) mc;
 3359              		.loc 1 430 0
 3360 1160 0030C2E5 		strb	r3, [r2, #0]
 433:../reversi8_2019.c **** }
 3361              		.loc 1 433 0
 3362 1164 28D04BE2 		sub	sp, fp, #40
 3363 1168 F06F9DE8 		ldmfd	sp, {r4, r5, r6, r7, r8, r9, sl, fp, sp, lr}
 3364 116c 1EFF2FE1 		bx	lr
 3365              	.L181:
 3366              		.align	2
 3367              	.L180:
 3368 1170 10000000 		.word	.LANCHOR1+16
 3369              		.cfi_endproc
 3370              	.LFE14:
 3372              		.align	2
 3373              		.global	actualizar_candidatas
 3375              	actualizar_candidatas:
 3376              	.LFB16:
 462:../reversi8_2019.c **** {
 3377              		.loc 1 462 0
 3378              		.cfi_startproc
 3379              		@ Function supports interworking.
 3380              		@ args = 0, pretend = 0, frame = 0
 3381              		@ frame_needed = 0, uses_anonymous_args = 0
 3382              		@ link register save eliminated.
 3383              	.LVL277:
 465:../reversi8_2019.c ****     candidatas[f][c] = CASILLA_OCUPADA;
 3384              		.loc 1 465 0
 3385 1174 813180E0 		add	r3, r0, r1, asl #3
 3386 1178 02C0A0E3 		mov	ip, #2
 466:../reversi8_2019.c ****     if (f > 0)
 3387              		.loc 1 466 0
 3388 117c 000051E3 		cmp	r1, #0
 462:../reversi8_2019.c **** {
 3389              		.loc 1 462 0
 3390 1180 30002DE9 		stmfd	sp!, {r4, r5}
 3391              	.LCFI13:
 3392              		.cfi_def_cfa_offset 8
 465:../reversi8_2019.c ****     candidatas[f][c] = CASILLA_OCUPADA;
 3393              		.loc 1 465 0
 3394 1184 02C0C3E7 		strb	ip, [r3, r2]
 466:../reversi8_2019.c ****     if (f > 0)
 3395              		.loc 1 466 0
 3396 1188 0E00000A 		beq	.L183
 3397              		.cfi_offset 5, -4
 3398              		.cfi_offset 4, -8
 468:../reversi8_2019.c ****         if (candidatas[f-1][c] != CASILLA_OCUPADA)
 3399              		.loc 1 468 0
 3400 118c 015041E2 		sub	r5, r1, #1
 3401 1190 85C180E0 		add	ip, r0, r5, asl #3
 3402 1194 0240DCE7 		ldrb	r4, [ip, r2]	@ zero_extendqisi2
 3403 1198 020054E3 		cmp	r4, #2
 469:../reversi8_2019.c ****             candidatas[f-1][c] = SI;
 3404              		.loc 1 469 0
 3405 119c 0140A013 		movne	r4, #1
 3406 11a0 0240CC17 		strneb	r4, [ip, r2]
 471:../reversi8_2019.c ****         if ((c > 0) && (candidatas[f-1][c-1] != CASILLA_OCUPADA))
 3407              		.loc 1 471 0
 3408 11a4 000052E3 		cmp	r2, #0
 3409 11a8 2A00001A 		bne	.L196
 3410              	.L185:
 474:../reversi8_2019.c ****         if ((c < 7) && (candidatas[f-1][c+1] != CASILLA_OCUPADA))
 3411              		.loc 1 474 0 discriminator 1
 3412 11ac 014082E2 		add	r4, r2, #1
 3413 11b0 0450DCE7 		ldrb	r5, [ip, r4]	@ zero_extendqisi2
 3414 11b4 020055E3 		cmp	r5, #2
 475:../reversi8_2019.c ****             candidatas[f-1][c+1] = SI;
 3415              		.loc 1 475 0 discriminator 1
 3416 11b8 0150A013 		movne	r5, #1
 3417 11bc 0450CC17 		strneb	r5, [ip, r4]
 3418              	.L187:
 477:../reversi8_2019.c ****     if (f < 7)
 3419              		.loc 1 477 0
 3420 11c0 060051E3 		cmp	r1, #6
 3421 11c4 0C00008A 		bhi	.L188
 3422              	.L183:
 479:../reversi8_2019.c ****         if (candidatas[f+1][c] != CASILLA_OCUPADA)
 3423              		.loc 1 479 0
 3424 11c8 01C081E2 		add	ip, r1, #1
 3425 11cc 8C0180E0 		add	r0, r0, ip, asl #3
 3426              	.LVL278:
 3427 11d0 0210D0E7 		ldrb	r1, [r0, r2]	@ zero_extendqisi2
 3428              	.LVL279:
 3429 11d4 020051E3 		cmp	r1, #2
 480:../reversi8_2019.c ****             candidatas[f+1][c] = SI;
 3430              		.loc 1 480 0
 3431 11d8 0110A013 		movne	r1, #1
 3432 11dc 0210C017 		strneb	r1, [r0, r2]
 482:../reversi8_2019.c ****         if ((c > 0) && (candidatas[f+1][c-1] != CASILLA_OCUPADA))
 3433              		.loc 1 482 0
 3434 11e0 000052E3 		cmp	r2, #0
 3435 11e4 0D00001A 		bne	.L197
 3436              	.L190:
 485:../reversi8_2019.c ****         if ((c < 7) && (candidatas[f+1][c+1] != CASILLA_OCUPADA))
 3437              		.loc 1 485 0 discriminator 1
 3438 11e8 011082E2 		add	r1, r2, #1
 3439 11ec 01C0D0E7 		ldrb	ip, [r0, r1]	@ zero_extendqisi2
 3440 11f0 02005CE3 		cmp	ip, #2
 486:../reversi8_2019.c ****             candidatas[f+1][c+1] = SI;
 3441              		.loc 1 486 0 discriminator 1
 3442 11f4 01C0A013 		movne	ip, #1
 3443 11f8 01C0C017 		strneb	ip, [r0, r1]
 3444              	.L188:
 488:../reversi8_2019.c ****     if ((c > 0) && (candidatas[f][c-1] != CASILLA_OCUPADA))
 3445              		.loc 1 488 0
 3446 11fc 000052E3 		cmp	r2, #0
 3447 1200 1C00001A 		bne	.L198
 3448              	.L193:
 491:../reversi8_2019.c ****     if ((c < 7) && (candidatas[f][c+1] != CASILLA_OCUPADA))
 3449              		.loc 1 491 0 discriminator 1
 3450 1204 012082E2 		add	r2, r2, #1
 3451              	.LVL280:
 3452 1208 0210D3E7 		ldrb	r1, [r3, r2]	@ zero_extendqisi2
 3453 120c 020051E3 		cmp	r1, #2
 492:../reversi8_2019.c ****         candidatas[f][c+1] = SI;
 3454              		.loc 1 492 0 discriminator 1
 3455 1210 0110A013 		movne	r1, #1
 3456 1214 0210C317 		strneb	r1, [r3, r2]
 3457              	.L182:
 3458              		.loc 1 493 0
 3459 1218 3000BDE8 		ldmfd	sp!, {r4, r5}
 3460 121c 1EFF2FE1 		bx	lr
 3461              	.LVL281:
 3462              	.L197:
 482:../reversi8_2019.c ****         if ((c > 0) && (candidatas[f+1][c-1] != CASILLA_OCUPADA))
 3463              		.loc 1 482 0 discriminator 1
 3464 1220 011042E2 		sub	r1, r2, #1
 3465 1224 01C0D0E7 		ldrb	ip, [r0, r1]	@ zero_extendqisi2
 3466 1228 02005CE3 		cmp	ip, #2
 483:../reversi8_2019.c ****             candidatas[f+1][c-1] = SI;
 3467              		.loc 1 483 0 discriminator 1
 3468 122c 01C0A013 		movne	ip, #1
 3469 1230 01C0C017 		strneb	ip, [r0, r1]
 485:../reversi8_2019.c ****         if ((c < 7) && (candidatas[f+1][c+1] != CASILLA_OCUPADA))
 3470              		.loc 1 485 0 discriminator 1
 3471 1234 060052E3 		cmp	r2, #6
 3472 1238 EAFFFF9A 		bls	.L190
 3473              	.L192:
 488:../reversi8_2019.c ****     if ((c > 0) && (candidatas[f][c-1] != CASILLA_OCUPADA))
 3474              		.loc 1 488 0 discriminator 1
 3475 123c 0100D3E7 		ldrb	r0, [r3, r1]	@ zero_extendqisi2
 3476 1240 020050E3 		cmp	r0, #2
 489:../reversi8_2019.c ****         candidatas[f][c-1] = SI;
 3477              		.loc 1 489 0 discriminator 1
 3478 1244 0100A013 		movne	r0, #1
 3479 1248 0100C317 		strneb	r0, [r3, r1]
 491:../reversi8_2019.c ****     if ((c < 7) && (candidatas[f][c+1] != CASILLA_OCUPADA))
 3480              		.loc 1 491 0 discriminator 1
 3481 124c 060052E3 		cmp	r2, #6
 3482 1250 F0FFFF8A 		bhi	.L182
 3483 1254 EAFFFFEA 		b	.L193
 3484              	.LVL282:
 3485              	.L196:
 471:../reversi8_2019.c ****         if ((c > 0) && (candidatas[f-1][c-1] != CASILLA_OCUPADA))
 3486              		.loc 1 471 0 discriminator 1
 3487 1258 014042E2 		sub	r4, r2, #1
 3488 125c 0450DCE7 		ldrb	r5, [ip, r4]	@ zero_extendqisi2
 3489 1260 020055E3 		cmp	r5, #2
 472:../reversi8_2019.c ****             candidatas[f-1][c-1] = SI;
 3490              		.loc 1 472 0 discriminator 1
 3491 1264 0150A013 		movne	r5, #1
 3492 1268 0450CC17 		strneb	r5, [ip, r4]
 474:../reversi8_2019.c ****         if ((c < 7) && (candidatas[f-1][c+1] != CASILLA_OCUPADA))
 3493              		.loc 1 474 0 discriminator 1
 3494 126c 060052E3 		cmp	r2, #6
 3495 1270 D2FFFF8A 		bhi	.L187
 3496 1274 CCFFFFEA 		b	.L185
 3497              	.LVL283:
 3498              	.L198:
 488:../reversi8_2019.c ****     if ((c > 0) && (candidatas[f][c-1] != CASILLA_OCUPADA))
 3499              		.loc 1 488 0
 3500 1278 011042E2 		sub	r1, r2, #1
 3501 127c EEFFFFEA 		b	.L192
 3502              		.cfi_endproc
 3503              	.LFE16:
 3505              		.align	2
 3506              		.global	reversi8_inicializar
 3508              	reversi8_inicializar:
 3509              	.LFB17:
 494:../reversi8_2019.c **** 
 495:../reversi8_2019.c **** 
 496:../reversi8_2019.c **** 
 497:../reversi8_2019.c **** 
 498:../reversi8_2019.c **** ////////////////////////////////////////////////////////////////////////////////
 499:../reversi8_2019.c **** // Proceso principal del juego
 500:../reversi8_2019.c **** // Utiliza el tablero,
 501:../reversi8_2019.c **** // y las direcciones en las que indica el jugador la fila y la columna
 502:../reversi8_2019.c **** // y la señal de ready que indica que se han actualizado fila y columna
 503:../reversi8_2019.c **** // tablero, fila, columna y ready son variables globales aunque deberían ser locales de reversi8,
 504:../reversi8_2019.c **** // la razón es que al meterlas en la pila no las pone juntas, y así jugar es más complicado.
 505:../reversi8_2019.c **** // en esta versión el humano lleva negras y la máquina blancas
 506:../reversi8_2019.c **** // no se comprueba que el humano mueva correctamente.
 507:../reversi8_2019.c **** // Sólo que la máquina realice un movimiento correcto.
 508:../reversi8_2019.c **** 
 509:../reversi8_2019.c **** void reversi8_inicializar()
 510:../reversi8_2019.c **** {
 3510              		.loc 1 510 0
 3511              		.cfi_startproc
 3512              		@ Function supports interworking.
 3513              		@ args = 0, pretend = 0, frame = 0
 3514              		@ frame_needed = 1, uses_anonymous_args = 0
 3515              	.LVL284:
 3516 1280 0DC0A0E1 		mov	ip, sp
 3517              	.LCFI14:
 3518              		.cfi_def_cfa_register 12
 3519 1284 F8DF2DE9 		stmfd	sp!, {r3, r4, r5, r6, r7, r8, r9, sl, fp, ip, lr, pc}
 3520 1288 C8409FE5 		ldr	r4, .L200
 3521              		.cfi_offset 14, -8
 3522              		.cfi_offset 13, -12
 3523              		.cfi_offset 11, -16
 3524              		.cfi_offset 10, -20
 3525              		.cfi_offset 9, -24
 3526              		.cfi_offset 8, -28
 3527              		.cfi_offset 7, -32
 3528              		.cfi_offset 6, -36
 3529              		.cfi_offset 5, -40
 3530              		.cfi_offset 4, -44
 3531              		.cfi_offset 3, -48
 3532              	.LVL285:
 195:../reversi8_2019.c ****             tablero[i][j] = CASILLA_VACIA;
 3533              		.loc 1 195 0
 3534 128c 0050A0E3 		mov	r5, #0
 3535 1290 04E0A0E1 		mov	lr, r4
 3536 1294 04508EE4 		str	r5, [lr], #4
 3537              	.LBB54:
 3538              	.LBB56:
 215:../reversi8_2019.c ****     tablero[3][3] = FICHA_BLANCA;
 3539              		.loc 1 215 0
 3540 1298 0130A0E3 		mov	r3, #1
 3541              	.LBE56:
 3542              	.LBE54:
 195:../reversi8_2019.c ****             tablero[i][j] = CASILLA_VACIA;
 3543              		.loc 1 195 0
 3544 129c 146084E2 		add	r6, r4, #20
 3545              		.loc 1 510 0
 3546 12a0 04B04CE2 		sub	fp, ip, #4
 3547              	.LCFI15:
 3548              		.cfi_def_cfa 11, 4
 195:../reversi8_2019.c ****             tablero[i][j] = CASILLA_VACIA;
 3549              		.loc 1 195 0
 3550 12a4 387084E2 		add	r7, r4, #56
 3551              	.LBB58:
 3552              	.LBB55:
 217:../reversi8_2019.c ****     tablero[3][4] = FICHA_NEGRA;
 3553              		.loc 1 217 0
 3554 12a8 02C0A0E3 		mov	ip, #2
 241:../reversi8_2019.c ****     contar(tablero, &blancas, &negras);
 3555              		.loc 1 241 0
 3556 12ac 0400A0E1 		mov	r0, r4
 3557 12b0 901084E2 		add	r1, r4, #144
 3558 12b4 942084E2 		add	r2, r4, #148
 3559              	.LBE55:
 3560              	.LBE58:
 195:../reversi8_2019.c ****             tablero[i][j] = CASILLA_VACIA;
 3561              		.loc 1 195 0
 3562 12b8 045084E5 		str	r5, [r4, #4]
 3563              	.LVL286:
 3564 12bc 04508EE5 		str	r5, [lr, #4]
 3565 12c0 045086E5 		str	r5, [r6, #4]
 3566 12c4 085086E5 		str	r5, [r6, #8]
 3567 12c8 0C5086E5 		str	r5, [r6, #12]
 3568 12cc 105086E5 		str	r5, [r6, #16]
 3569 12d0 0C5084E5 		str	r5, [r4, #12]
 3570 12d4 105084E5 		str	r5, [r4, #16]
 3571 12d8 145084E5 		str	r5, [r4, #20]
 3572 12dc 285084E5 		str	r5, [r4, #40]
 3573 12e0 2C5084E5 		str	r5, [r4, #44]
 3574 12e4 305084E5 		str	r5, [r4, #48]
 3575 12e8 345084E5 		str	r5, [r4, #52]
 3576 12ec 385084E5 		str	r5, [r4, #56]
 3577 12f0 045087E5 		str	r5, [r7, #4]
 3578              	.LVL287:
 3579              	.LBB59:
 3580              	.LBB57:
 215:../reversi8_2019.c ****     tablero[3][3] = FICHA_BLANCA;
 3581              		.loc 1 215 0
 3582 12f4 1B30C4E5 		strb	r3, [r4, #27]
 216:../reversi8_2019.c ****     tablero[4][4] = FICHA_BLANCA;
 3583              		.loc 1 216 0
 3584 12f8 2430C4E5 		strb	r3, [r4, #36]
 217:../reversi8_2019.c ****     tablero[3][4] = FICHA_NEGRA;
 3585              		.loc 1 217 0
 3586 12fc 1CC0C4E5 		strb	ip, [r4, #28]
 218:../reversi8_2019.c ****     tablero[4][3] = FICHA_NEGRA;
 3587              		.loc 1 218 0
 3588 1300 23C0C4E5 		strb	ip, [r4, #35]
 220:../reversi8_2019.c ****     candidatas[3][3] = CASILLA_OCUPADA;
 3589              		.loc 1 220 0
 3590 1304 63C0C4E5 		strb	ip, [r4, #99]
 221:../reversi8_2019.c ****     candidatas[4][4] = CASILLA_OCUPADA;
 3591              		.loc 1 221 0
 3592 1308 6CC0C4E5 		strb	ip, [r4, #108]
 222:../reversi8_2019.c ****     candidatas[3][4] = CASILLA_OCUPADA;
 3593              		.loc 1 222 0
 3594 130c 64C0C4E5 		strb	ip, [r4, #100]
 223:../reversi8_2019.c ****     candidatas[4][3] = CASILLA_OCUPADA;
 3595              		.loc 1 223 0
 3596 1310 6BC0C4E5 		strb	ip, [r4, #107]
 226:../reversi8_2019.c ****     candidatas[2][2] = SI;
 3597              		.loc 1 226 0
 3598 1314 5A30C4E5 		strb	r3, [r4, #90]
 227:../reversi8_2019.c ****     candidatas[2][3] = SI;
 3599              		.loc 1 227 0
 3600 1318 5B30C4E5 		strb	r3, [r4, #91]
 228:../reversi8_2019.c ****     candidatas[2][4] = SI;
 3601              		.loc 1 228 0
 3602 131c 5C30C4E5 		strb	r3, [r4, #92]
 229:../reversi8_2019.c ****     candidatas[2][5] = SI;
 3603              		.loc 1 229 0
 3604 1320 5D30C4E5 		strb	r3, [r4, #93]
 230:../reversi8_2019.c ****     candidatas[3][2] = SI;
 3605              		.loc 1 230 0
 3606 1324 6230C4E5 		strb	r3, [r4, #98]
 231:../reversi8_2019.c ****     candidatas[3][5] = SI;
 3607              		.loc 1 231 0
 3608 1328 6530C4E5 		strb	r3, [r4, #101]
 232:../reversi8_2019.c ****     candidatas[4][2] = SI;
 3609              		.loc 1 232 0
 3610 132c 6A30C4E5 		strb	r3, [r4, #106]
 233:../reversi8_2019.c ****     candidatas[4][5] = SI;
 3611              		.loc 1 233 0
 3612 1330 6D30C4E5 		strb	r3, [r4, #109]
 234:../reversi8_2019.c ****     candidatas[5][2] = SI;
 3613              		.loc 1 234 0
 3614 1334 7230C4E5 		strb	r3, [r4, #114]
 235:../reversi8_2019.c ****     candidatas[5][3] = SI;
 3615              		.loc 1 235 0
 3616 1338 7330C4E5 		strb	r3, [r4, #115]
 236:../reversi8_2019.c ****     candidatas[5][4] = SI;
 3617              		.loc 1 236 0
 3618 133c 7430C4E5 		strb	r3, [r4, #116]
 237:../reversi8_2019.c ****     candidatas[5][5] = SI;
 3619              		.loc 1 237 0
 3620 1340 7530C4E5 		strb	r3, [r4, #117]
 241:../reversi8_2019.c ****     contar(tablero, &blancas, &negras);
 3621              		.loc 1 241 0
 3622 1344 FEFFFFEB 		bl	contar
 3623              	.LBE57:
 3624              	.LBE59:
 511:../reversi8_2019.c **** 	init_table(tablero, candidatas);
 512:../reversi8_2019.c **** 	fin = 0;
 3625              		.loc 1 512 0
 3626 1348 8C5084E5 		str	r5, [r4, #140]
 513:../reversi8_2019.c **** 	/* Se comenta porque contamos en init_table y esto lo sobreescribe de forma errónea
 514:../reversi8_2019.c **** 	blancas = 0;
 515:../reversi8_2019.c **** 	negras = 0;
 516:../reversi8_2019.c **** 	*/
 517:../reversi8_2019.c **** }
 3627              		.loc 1 517 0
 3628 134c 2CD04BE2 		sub	sp, fp, #44
 3629 1350 F86F9DE8 		ldmfd	sp, {r3, r4, r5, r6, r7, r8, r9, sl, fp, sp, lr}
 3630 1354 1EFF2FE1 		bx	lr
 3631              	.L201:
 3632              		.align	2
 3633              	.L200:
 3634 1358 00000000 		.word	.LANCHOR0
 3635              		.cfi_endproc
 3636              	.LFE17:
 3638              		.align	2
 3639              		.global	mover_IA
 3641              	mover_IA:
 3642              	.LFB18:
 518:../reversi8_2019.c **** 
 519:../reversi8_2019.c **** void mover_IA()
 520:../reversi8_2019.c **** {
 3643              		.loc 1 520 0
 3644              		.cfi_startproc
 3645              		@ Function supports interworking.
 3646              		@ args = 0, pretend = 0, frame = 32
 3647              		@ frame_needed = 1, uses_anonymous_args = 0
 3648              	.LVL288:
 3649 135c 0DC0A0E1 		mov	ip, sp
 3650              	.LCFI16:
 3651              		.cfi_def_cfa_register 12
 3652 1360 F0DF2DE9 		stmfd	sp!, {r4, r5, r6, r7, r8, r9, sl, fp, ip, lr, pc}
 3653              	.LBB68:
 3654              	.LBB72:
 415:../reversi8_2019.c ****                             if (tabla_valor[i][j] > mejor)
 3655              		.loc 1 415 0
 3656 1364 101A9FE5 		ldr	r1, .L364
 3657              	.LBE72:
 3658              	.LBE68:
 3659              		.loc 1 520 0
 3660 1368 04B04CE2 		sub	fp, ip, #4
 3661              		.cfi_offset 14, -8
 3662              		.cfi_offset 13, -12
 3663              		.cfi_offset 11, -16
 3664              		.cfi_offset 10, -20
 3665              		.cfi_offset 9, -24
 3666              		.cfi_offset 8, -28
 3667              		.cfi_offset 7, -32
 3668              		.cfi_offset 6, -36
 3669              		.cfi_offset 5, -40
 3670              		.cfi_offset 4, -44
 3671              	.LCFI17:
 3672              		.cfi_def_cfa 11, 4
 3673 136c 2CD04DE2 		sub	sp, sp, #44
 391:../reversi8_2019.c ****     for (i=0; i<DIM; i++)
 3674              		.loc 1 391 0
 3675 1370 0090A0E3 		mov	r9, #0
 383:../reversi8_2019.c ****     int mf = -1; // almacena la fila del mejor movimiento encontrado
 3676              		.loc 1 383 0
 3677 1374 0020E0E3 		mvn	r2, #0
 3678 1378 008A9FE5 		ldr	r8, .L364+4
 3679              	.LBB76:
 3680              	.LBB71:
 415:../reversi8_2019.c ****                             if (tabla_valor[i][j] > mejor)
 3681              		.loc 1 415 0
 3682 137c 40100BE5 		str	r1, [fp, #-64]
 3683              	.LBE71:
 3684              	.LBE76:
 385:../reversi8_2019.c ****     char mejor = 0; // almacena el mejor valor encontrado
 3685              		.loc 1 385 0
 3686 1380 44900BE5 		str	r9, [fp, #-68]
 383:../reversi8_2019.c ****     int mf = -1; // almacena la fila del mejor movimiento encontrado
 3687              		.loc 1 383 0
 3688 1384 48200BE5 		str	r2, [fp, #-72]
 3689              	.LVL289:
 3690              	.L203:
 3691              	.LBB77:
 3692              	.LBB73:
 519:../reversi8_2019.c **** void mover_IA()
 3693              		.loc 1 519 0
 3694 1388 8961A0E1 		mov	r6, r9, asl #3
 3695 138c F0499FE5 		ldr	r4, .L364+8
 3696 1390 017046E2 		sub	r7, r6, #1
 397:../reversi8_2019.c ****                 if (tablero[i][j] == CASILLA_VACIA)
 3697              		.loc 1 397 0
 3698 1394 FF5009E2 		and	r5, r9, #255
 519:../reversi8_2019.c **** void mover_IA()
 3699              		.loc 1 519 0
 3700 1398 077084E0 		add	r7, r4, r7
 3701 139c 066088E0 		add	r6, r8, r6
 3702              	.LBE73:
 3703              	.LBE77:
 3704 13a0 0040A0E3 		mov	r4, #0
 3705              	.LBB78:
 3706              	.LBB70:
 397:../reversi8_2019.c ****                 if (tablero[i][j] == CASILLA_VACIA)
 3707              		.loc 1 397 0
 3708 13a4 3C500BE5 		str	r5, [fp, #-60]
 3709 13a8 030000EA 		b	.L207
 3710              	.LVL290:
 3711              	.L204:
 393:../reversi8_2019.c ****         for (j=0; j<DIM; j++)
 3712              		.loc 1 393 0
 3713 13ac 014084E2 		add	r4, r4, #1
 3714              	.LVL291:
 3715 13b0 080054E3 		cmp	r4, #8
 3716 13b4 016086E2 		add	r6, r6, #1
 3717 13b8 6300000A 		beq	.L362
 3718              	.LVL292:
 3719              	.L207:
 395:../reversi8_2019.c ****             if (candidatas[i][j] == SI)
 3720              		.loc 1 395 0
 3721 13bc 0150F7E5 		ldrb	r5, [r7, #1]!	@ zero_extendqisi2
 3722 13c0 010055E3 		cmp	r5, #1
 3723 13c4 F8FFFF1A 		bne	.L204
 397:../reversi8_2019.c ****                 if (tablero[i][j] == CASILLA_VACIA)
 3724              		.loc 1 397 0
 3725 13c8 00A0D6E5 		ldrb	sl, [r6, #0]	@ zero_extendqisi2
 3726 13cc 00005AE3 		cmp	sl, #0
 3727 13d0 F5FFFF1A 		bne	.L204
 3728              	.LVL293:
 3729 13d4 FF3004E2 		and	r3, r4, #255
 3730 13d8 38300BE5 		str	r3, [fp, #-56]
 411:../reversi8_2019.c ****                         patron = patron_volteo(tablero, &longitud, i, j, SF, SC, FICHA_BLANCA);
 3731              		.loc 1 411 0
 3732 13dc 0320A0E1 		mov	r2, r3
 3733 13e0 30004BE2 		sub	r0, fp, #48
 3734 13e4 3C101BE5 		ldr	r1, [fp, #-60]
 3735 13e8 FF30A0E3 		mov	r3, #255
 410:../reversi8_2019.c ****                         longitud = 0;
 3736              		.loc 1 410 0
 3737 13ec 30A00BE5 		str	sl, [fp, #-48]
 411:../reversi8_2019.c ****                         patron = patron_volteo(tablero, &longitud, i, j, SF, SC, FICHA_BLANCA);
 3738              		.loc 1 411 0
 3739 13f0 00A08DE5 		str	sl, [sp, #0]
 3740 13f4 04508DE5 		str	r5, [sp, #4]
 3741 13f8 81FBFFEB 		bl	patron_volteo.clone.2
 3742              	.LVL294:
 412:../reversi8_2019.c ****                         if (patron == PATRON_ENCONTRADO)
 3743              		.loc 1 412 0
 3744 13fc 010050E3 		cmp	r0, #1
 3745 1400 4600000A 		beq	.L205
 3746              	.LVL295:
 411:../reversi8_2019.c ****                         patron = patron_volteo(tablero, &longitud, i, j, SF, SC, FICHA_BLANCA);
 3747              		.loc 1 411 0
 3748 1404 30004BE2 		sub	r0, fp, #48
 3749              	.LVL296:
 3750 1408 3C104BE2 		sub	r1, fp, #60
 3751 140c 060091E8 		ldmia	r1, {r1, r2}	@ phole ldm
 3752 1410 FF30A0E3 		mov	r3, #255
 410:../reversi8_2019.c ****                         longitud = 0;
 3753              		.loc 1 410 0
 3754 1414 30A00BE5 		str	sl, [fp, #-48]
 411:../reversi8_2019.c ****                         patron = patron_volteo(tablero, &longitud, i, j, SF, SC, FICHA_BLANCA);
 3755              		.loc 1 411 0
 3756 1418 00508DE5 		str	r5, [sp, #0]
 3757 141c 04508DE5 		str	r5, [sp, #4]
 3758 1420 77FBFFEB 		bl	patron_volteo.clone.2
 3759              	.LVL297:
 412:../reversi8_2019.c ****                         if (patron == PATRON_ENCONTRADO)
 3760              		.loc 1 412 0
 3761 1424 010050E3 		cmp	r0, #1
 3762 1428 3C00000A 		beq	.L205
 3763              	.LVL298:
 411:../reversi8_2019.c ****                         patron = patron_volteo(tablero, &longitud, i, j, SF, SC, FICHA_BLANCA);
 3764              		.loc 1 411 0
 3765 142c 30004BE2 		sub	r0, fp, #48
 3766              	.LVL299:
 3767 1430 3C104BE2 		sub	r1, fp, #60
 3768 1434 060091E8 		ldmia	r1, {r1, r2}	@ phole ldm
 3769 1438 0A30A0E1 		mov	r3, sl
 410:../reversi8_2019.c ****                         longitud = 0;
 3770              		.loc 1 410 0
 3771 143c 30A00BE5 		str	sl, [fp, #-48]
 411:../reversi8_2019.c ****                         patron = patron_volteo(tablero, &longitud, i, j, SF, SC, FICHA_BLANCA);
 3772              		.loc 1 411 0
 3773 1440 00508DE5 		str	r5, [sp, #0]
 3774 1444 04508DE5 		str	r5, [sp, #4]
 3775 1448 6DFBFFEB 		bl	patron_volteo.clone.2
 3776              	.LVL300:
 412:../reversi8_2019.c ****                         if (patron == PATRON_ENCONTRADO)
 3777              		.loc 1 412 0
 3778 144c 010050E3 		cmp	r0, #1
 3779 1450 3200000A 		beq	.L205
 3780              	.LVL301:
 411:../reversi8_2019.c ****                         patron = patron_volteo(tablero, &longitud, i, j, SF, SC, FICHA_BLANCA);
 3781              		.loc 1 411 0
 3782 1454 30004BE2 		sub	r0, fp, #48
 3783              	.LVL302:
 3784 1458 3C104BE2 		sub	r1, fp, #60
 3785 145c 060091E8 		ldmia	r1, {r1, r2}	@ phole ldm
 3786 1460 0530A0E1 		mov	r3, r5
 410:../reversi8_2019.c ****                         longitud = 0;
 3787              		.loc 1 410 0
 3788 1464 30A00BE5 		str	sl, [fp, #-48]
 411:../reversi8_2019.c ****                         patron = patron_volteo(tablero, &longitud, i, j, SF, SC, FICHA_BLANCA);
 3789              		.loc 1 411 0
 3790 1468 00508DE5 		str	r5, [sp, #0]
 3791 146c 04508DE5 		str	r5, [sp, #4]
 3792 1470 63FBFFEB 		bl	patron_volteo.clone.2
 3793              	.LVL303:
 412:../reversi8_2019.c ****                         if (patron == PATRON_ENCONTRADO)
 3794              		.loc 1 412 0
 3795 1474 010050E3 		cmp	r0, #1
 3796 1478 2800000A 		beq	.L205
 3797              	.LVL304:
 411:../reversi8_2019.c ****                         patron = patron_volteo(tablero, &longitud, i, j, SF, SC, FICHA_BLANCA);
 3798              		.loc 1 411 0
 3799 147c 30004BE2 		sub	r0, fp, #48
 3800              	.LVL305:
 3801 1480 3C104BE2 		sub	r1, fp, #60
 3802 1484 060091E8 		ldmia	r1, {r1, r2}	@ phole ldm
 3803 1488 0530A0E1 		mov	r3, r5
 410:../reversi8_2019.c ****                         longitud = 0;
 3804              		.loc 1 410 0
 3805 148c 30A00BE5 		str	sl, [fp, #-48]
 411:../reversi8_2019.c ****                         patron = patron_volteo(tablero, &longitud, i, j, SF, SC, FICHA_BLANCA);
 3806              		.loc 1 411 0
 3807 1490 00A08DE5 		str	sl, [sp, #0]
 3808 1494 04508DE5 		str	r5, [sp, #4]
 3809 1498 59FBFFEB 		bl	patron_volteo.clone.2
 3810              	.LVL306:
 412:../reversi8_2019.c ****                         if (patron == PATRON_ENCONTRADO)
 3811              		.loc 1 412 0
 3812 149c 010050E3 		cmp	r0, #1
 3813 14a0 1E00000A 		beq	.L205
 3814              	.LVL307:
 411:../reversi8_2019.c ****                         patron = patron_volteo(tablero, &longitud, i, j, SF, SC, FICHA_BLANCA);
 3815              		.loc 1 411 0
 3816 14a4 FFC0A0E3 		mov	ip, #255
 3817 14a8 30004BE2 		sub	r0, fp, #48
 3818              	.LVL308:
 3819 14ac 3C104BE2 		sub	r1, fp, #60
 3820 14b0 060091E8 		ldmia	r1, {r1, r2}	@ phole ldm
 3821 14b4 0530A0E1 		mov	r3, r5
 410:../reversi8_2019.c ****                         longitud = 0;
 3822              		.loc 1 410 0
 3823 14b8 30A00BE5 		str	sl, [fp, #-48]
 411:../reversi8_2019.c ****                         patron = patron_volteo(tablero, &longitud, i, j, SF, SC, FICHA_BLANCA);
 3824              		.loc 1 411 0
 3825 14bc 00C08DE5 		str	ip, [sp, #0]
 3826 14c0 04508DE5 		str	r5, [sp, #4]
 3827 14c4 4EFBFFEB 		bl	patron_volteo.clone.2
 3828              	.LVL309:
 412:../reversi8_2019.c ****                         if (patron == PATRON_ENCONTRADO)
 3829              		.loc 1 412 0
 3830 14c8 010050E3 		cmp	r0, #1
 3831 14cc 1300000A 		beq	.L205
 3832              	.LVL310:
 411:../reversi8_2019.c ****                         patron = patron_volteo(tablero, &longitud, i, j, SF, SC, FICHA_BLANCA);
 3833              		.loc 1 411 0
 3834 14d0 FFE0A0E3 		mov	lr, #255
 3835 14d4 30004BE2 		sub	r0, fp, #48
 3836              	.LVL311:
 3837 14d8 3C104BE2 		sub	r1, fp, #60
 3838 14dc 060091E8 		ldmia	r1, {r1, r2}	@ phole ldm
 3839 14e0 0A30A0E1 		mov	r3, sl
 410:../reversi8_2019.c ****                         longitud = 0;
 3840              		.loc 1 410 0
 3841 14e4 30A00BE5 		str	sl, [fp, #-48]
 411:../reversi8_2019.c ****                         patron = patron_volteo(tablero, &longitud, i, j, SF, SC, FICHA_BLANCA);
 3842              		.loc 1 411 0
 3843 14e8 00E08DE5 		str	lr, [sp, #0]
 3844 14ec 04508DE5 		str	r5, [sp, #4]
 3845 14f0 43FBFFEB 		bl	patron_volteo.clone.2
 3846              	.LVL312:
 412:../reversi8_2019.c ****                         if (patron == PATRON_ENCONTRADO)
 3847              		.loc 1 412 0
 3848 14f4 010050E3 		cmp	r0, #1
 3849 14f8 0800000A 		beq	.L205
 3850              	.LVL313:
 411:../reversi8_2019.c ****                         patron = patron_volteo(tablero, &longitud, i, j, SF, SC, FICHA_BLANCA);
 3851              		.loc 1 411 0
 3852 14fc FF30A0E3 		mov	r3, #255
 3853 1500 30004BE2 		sub	r0, fp, #48
 3854              	.LVL314:
 3855 1504 3C104BE2 		sub	r1, fp, #60
 3856 1508 060091E8 		ldmia	r1, {r1, r2}	@ phole ldm
 410:../reversi8_2019.c ****                         longitud = 0;
 3857              		.loc 1 410 0
 3858 150c 30A00BE5 		str	sl, [fp, #-48]
 411:../reversi8_2019.c ****                         patron = patron_volteo(tablero, &longitud, i, j, SF, SC, FICHA_BLANCA);
 3859              		.loc 1 411 0
 3860 1510 28008DE8 		stmia	sp, {r3, r5}	@ phole stm
 3861 1514 3AFBFFEB 		bl	patron_volteo.clone.2
 3862              	.LVL315:
 412:../reversi8_2019.c ****                         if (patron == PATRON_ENCONTRADO)
 3863              		.loc 1 412 0
 3864 1518 010050E3 		cmp	r0, #1
 3865 151c A2FFFF1A 		bne	.L204
 3866              	.LVL316:
 3867              	.L205:
 415:../reversi8_2019.c ****                             if (tabla_valor[i][j] > mejor)
 3868              		.loc 1 415 0
 3869 1520 40101BE5 		ldr	r1, [fp, #-64]
 3870 1524 44201BE5 		ldr	r2, [fp, #-68]
 3871 1528 0400D1E7 		ldrb	r0, [r1, r4]	@ zero_extendqisi2
 3872              	.LVL317:
 3873 152c 020050E1 		cmp	r0, r2
 3874 1530 4C400B85 		strhi	r4, [fp, #-76]
 393:../reversi8_2019.c ****         for (j=0; j<DIM; j++)
 3875              		.loc 1 393 0
 3876 1534 014084E2 		add	r4, r4, #1
 415:../reversi8_2019.c ****                             if (tabla_valor[i][j] > mejor)
 3877              		.loc 1 415 0
 3878 1538 44000B85 		strhi	r0, [fp, #-68]
 3879 153c 48900B85 		strhi	r9, [fp, #-72]
 3880              	.LVL318:
 393:../reversi8_2019.c ****         for (j=0; j<DIM; j++)
 3881              		.loc 1 393 0
 3882 1540 080054E3 		cmp	r4, #8
 3883 1544 016086E2 		add	r6, r6, #1
 3884 1548 9BFFFF1A 		bne	.L207
 3885              	.LVL319:
 3886              	.L362:
 391:../reversi8_2019.c ****     for (i=0; i<DIM; i++)
 3887              		.loc 1 391 0
 3888 154c 40C01BE5 		ldr	ip, [fp, #-64]
 3889 1550 019089E2 		add	r9, r9, #1
 3890              	.LVL320:
 3891 1554 08308CE2 		add	r3, ip, #8
 3892 1558 080059E3 		cmp	r9, #8
 3893 155c 40300BE5 		str	r3, [fp, #-64]
 3894 1560 88FFFF1A 		bne	.L203
 429:../reversi8_2019.c ****     *f = (char) mf;
 3895              		.loc 1 429 0
 3896 1564 48201BE5 		ldr	r2, [fp, #-72]
 430:../reversi8_2019.c ****     *c = (char) mc;
 3897              		.loc 1 430 0
 3898 1568 4CC01BE5 		ldr	ip, [fp, #-76]
 429:../reversi8_2019.c ****     *f = (char) mf;
 3899              		.loc 1 429 0
 3900 156c 14189FE5 		ldr	r1, .L364+12
 3901 1570 FF0002E2 		and	r0, r2, #255
 430:../reversi8_2019.c ****     *c = (char) mc;
 3902              		.loc 1 430 0
 3903 1574 FF300CE2 		and	r3, ip, #255
 3904              	.LBE70:
 3905              	.LBE78:
 521:../reversi8_2019.c ****     // escribe el movimiento en las variables globales fila columna
 522:../reversi8_2019.c ****     done = elegir_mov(candidatas, tablero, &f, &c);
 523:../reversi8_2019.c ****     if (done == -1)
 3906              		.loc 1 523 0
 3907 1578 48C01BE5 		ldr	ip, [fp, #-72]
 3908              	.LBB79:
 3909              	.LBB74:
 429:../reversi8_2019.c ****     *f = (char) mf;
 3910              		.loc 1 429 0
 3911 157c 38000BE5 		str	r0, [fp, #-56]
 3912 1580 0000C1E5 		strb	r0, [r1, #0]
 3913              	.LBE74:
 3914              	.LBE79:
 522:../reversi8_2019.c ****     done = elegir_mov(candidatas, tablero, &f, &c);
 3915              		.loc 1 522 0
 3916 1584 00089FE5 		ldr	r0, .L364+16
 3917              		.loc 1 523 0
 3918 1588 01007CE3 		cmn	ip, #1
 3919              	.LBB80:
 3920              	.LBB69:
 430:../reversi8_2019.c ****     *c = (char) mc;
 3921              		.loc 1 430 0
 3922 158c FC279FE5 		ldr	r2, .L364+20
 3923              	.LBE69:
 3924              	.LBE80:
 522:../reversi8_2019.c ****     done = elegir_mov(candidatas, tablero, &f, &c);
 3925              		.loc 1 522 0
 3926 1590 00C080E5 		str	ip, [r0, #0]
 524:../reversi8_2019.c ****     {
 525:../reversi8_2019.c ****          fin = 1;
 3927              		.loc 1 525 0
 3928 1594 0100A003 		moveq	r0, #1
 3929              	.LBB81:
 3930              	.LBB75:
 430:../reversi8_2019.c ****     *c = (char) mc;
 3931              		.loc 1 430 0
 3932 1598 3C300BE5 		str	r3, [fp, #-60]
 3933 159c 0030C2E5 		strb	r3, [r2, #0]
 3934              	.LBE75:
 3935              	.LBE81:
 3936              		.loc 1 525 0
 3937 15a0 8C008805 		streq	r0, [r8, #140]
 523:../reversi8_2019.c ****     if (done == -1)
 3938              		.loc 1 523 0
 3939 15a4 6C00000A 		beq	.L210
 526:../reversi8_2019.c ****     }
 527:../reversi8_2019.c ****     else
 528:../reversi8_2019.c ****     {
 529:../reversi8_2019.c ****         tablero[f][c] = FICHA_BLANCA;
 3940              		.loc 1 529 0
 3941 15a8 3C601BE5 		ldr	r6, [fp, #-60]
 3942 15ac 38501BE5 		ldr	r5, [fp, #-56]
 3943 15b0 0170A0E3 		mov	r7, #1
 3944 15b4 85E186E0 		add	lr, r6, r5, asl #3
 3945 15b8 0E70C8E7 		strb	r7, [r8, lr]
 3946              	.LVL321:
 354:../reversi8_2019.c ****     for (i = 0; i < DIM; i++) // 0 es Norte, 1 NE, 2 E ...
 3947              		.loc 1 354 0
 3948 15bc 0060A0E3 		mov	r6, #0
 3949 15c0 020000EA 		b	.L214
 3950              	.LVL322:
 3951              	.L211:
 3952              	.LBB82:
 3953              	.LBB83:
 3954 15c4 016086E2 		add	r6, r6, #1
 3955              	.LVL323:
 3956 15c8 080056E3 		cmp	r6, #8
 3957 15cc 5D00000A 		beq	.L363
 3958              	.LVL324:
 3959              	.L214:
 356:../reversi8_2019.c ****         SF = vSF[i];
 3960              		.loc 1 356 0
 3961 15d0 BC179FE5 		ldr	r1, .L364+24
 3962 15d4 0640D1E7 		ldrb	r4, [r1, r6]	@ zero_extendqisi2
 3963              	.LVL325:
 357:../reversi8_2019.c ****         SC = vSC[i];
 3964              		.loc 1 357 0
 3965 15d8 083081E2 		add	r3, r1, #8
 3966 15dc 0650D3E7 		ldrb	r5, [r3, r6]	@ zero_extendqisi2
 3967              	.LVL326:
 359:../reversi8_2019.c ****         flip = 0;
 3968              		.loc 1 359 0
 3969 15e0 00C0A0E3 		mov	ip, #0
 360:../reversi8_2019.c ****         patron = patron_volteo(tablero, &flip, f, c, SF, SC, color);
 3970              		.loc 1 360 0
 3971 15e4 30004BE2 		sub	r0, fp, #48
 3972 15e8 38101BE5 		ldr	r1, [fp, #-56]
 3973 15ec 3C201BE5 		ldr	r2, [fp, #-60]
 3974 15f0 0430A0E1 		mov	r3, r4
 359:../reversi8_2019.c ****         flip = 0;
 3975              		.loc 1 359 0
 3976 15f4 30C00BE5 		str	ip, [fp, #-48]
 360:../reversi8_2019.c ****         patron = patron_volteo(tablero, &flip, f, c, SF, SC, color);
 3977              		.loc 1 360 0
 3978 15f8 A0008DE8 		stmia	sp, {r5, r7}	@ phole stm
 3979 15fc 00FBFFEB 		bl	patron_volteo.clone.2
 3980              	.LVL327:
 361:../reversi8_2019.c ****         if (patron == PATRON_ENCONTRADO )
 3981              		.loc 1 361 0
 3982 1600 010050E3 		cmp	r0, #1
 3983 1604 EEFFFF1A 		bne	.L211
 363:../reversi8_2019.c ****             voltear(tablero, f, c, SF, SC, flip, color);
 3984              		.loc 1 363 0
 3985 1608 30001BE5 		ldr	r0, [fp, #-48]
 3986              	.LVL328:
 3987              	.LBB84:
 3988              	.LBB85:
 336:../reversi8_2019.c ****     for (i = 0; i < n; i++)
 3989              		.loc 1 336 0
 3990 160c 000050E3 		cmp	r0, #0
 3991 1610 480000DA 		ble	.L212
 338:../reversi8_2019.c ****         FA = FA + SF;
 3992              		.loc 1 338 0
 3993 1614 3C104BE2 		sub	r1, fp, #60
 3994 1618 024091E8 		ldmia	r1, {r1, lr}	@ phole ldm
 3995 161c 04208EE0 		add	r2, lr, r4
 339:../reversi8_2019.c ****         CA = CA + SC;
 3996              		.loc 1 339 0
 3997 1620 053081E0 		add	r3, r1, r5
 338:../reversi8_2019.c ****         FA = FA + SF;
 3998              		.loc 1 338 0
 3999 1624 FF2002E2 		and	r2, r2, #255
 4000              	.LVL329:
 339:../reversi8_2019.c ****         CA = CA + SC;
 4001              		.loc 1 339 0
 4002 1628 FF3003E2 		and	r3, r3, #255
 4003              	.LVL330:
 4004 162c 01C040E2 		sub	ip, r0, #1
 340:../reversi8_2019.c ****         tablero[FA][CA] = color;
 4005              		.loc 1 340 0
 4006 1630 82E183E0 		add	lr, r3, r2, asl #3
 336:../reversi8_2019.c ****     for (i = 0; i < n; i++)
 4007              		.loc 1 336 0
 4008 1634 000057E1 		cmp	r7, r0
 4009 1638 03C00CE2 		and	ip, ip, #3
 340:../reversi8_2019.c ****         tablero[FA][CA] = color;
 4010              		.loc 1 340 0
 4011 163c 0E70C8E7 		strb	r7, [r8, lr]
 336:../reversi8_2019.c ****     for (i = 0; i < n; i++)
 4012              		.loc 1 336 0
 4013 1640 0710A0E1 		mov	r1, r7
 4014 1644 3B00000A 		beq	.L212
 4015 1648 00005CE3 		cmp	ip, #0
 4016 164c 1A00000A 		beq	.L361
 4017 1650 01005CE3 		cmp	ip, #1
 4018 1654 0F00000A 		beq	.L358
 4019 1658 02005CE3 		cmp	ip, #2
 4020 165c 0600000A 		beq	.L359
 338:../reversi8_2019.c ****         FA = FA + SF;
 4021              		.loc 1 338 0
 4022 1660 041082E0 		add	r1, r2, r4
 339:../reversi8_2019.c ****         CA = CA + SC;
 4023              		.loc 1 339 0
 4024 1664 05E083E0 		add	lr, r3, r5
 338:../reversi8_2019.c ****         FA = FA + SF;
 4025              		.loc 1 338 0
 4026 1668 FF2001E2 		and	r2, r1, #255
 4027              	.LVL331:
 339:../reversi8_2019.c ****         CA = CA + SC;
 4028              		.loc 1 339 0
 4029 166c FF300EE2 		and	r3, lr, #255
 4030              	.LVL332:
 340:../reversi8_2019.c ****         tablero[FA][CA] = color;
 4031              		.loc 1 340 0
 4032 1670 82C183E0 		add	ip, r3, r2, asl #3
 4033 1674 0C70C8E7 		strb	r7, [r8, ip]
 336:../reversi8_2019.c ****     for (i = 0; i < n; i++)
 4034              		.loc 1 336 0
 4035 1678 0210A0E3 		mov	r1, #2
 4036              	.LVL333:
 4037              	.L359:
 338:../reversi8_2019.c ****         FA = FA + SF;
 4038              		.loc 1 338 0
 4039 167c 042082E0 		add	r2, r2, r4
 339:../reversi8_2019.c ****         CA = CA + SC;
 4040              		.loc 1 339 0
 4041 1680 053083E0 		add	r3, r3, r5
 338:../reversi8_2019.c ****         FA = FA + SF;
 4042              		.loc 1 338 0
 4043 1684 FF2002E2 		and	r2, r2, #255
 339:../reversi8_2019.c ****         CA = CA + SC;
 4044              		.loc 1 339 0
 4045 1688 FF3003E2 		and	r3, r3, #255
 340:../reversi8_2019.c ****         tablero[FA][CA] = color;
 4046              		.loc 1 340 0
 4047 168c 82C183E0 		add	ip, r3, r2, asl #3
 4048 1690 0C70C8E7 		strb	r7, [r8, ip]
 336:../reversi8_2019.c ****     for (i = 0; i < n; i++)
 4049              		.loc 1 336 0
 4050 1694 011081E2 		add	r1, r1, #1
 4051              	.L358:
 338:../reversi8_2019.c ****         FA = FA + SF;
 4052              		.loc 1 338 0
 4053 1698 042082E0 		add	r2, r2, r4
 339:../reversi8_2019.c ****         CA = CA + SC;
 4054              		.loc 1 339 0
 4055 169c 05C083E0 		add	ip, r3, r5
 338:../reversi8_2019.c ****         FA = FA + SF;
 4056              		.loc 1 338 0
 4057 16a0 FF2002E2 		and	r2, r2, #255
 339:../reversi8_2019.c ****         CA = CA + SC;
 4058              		.loc 1 339 0
 4059 16a4 FF300CE2 		and	r3, ip, #255
 336:../reversi8_2019.c ****     for (i = 0; i < n; i++)
 4060              		.loc 1 336 0
 4061 16a8 011081E2 		add	r1, r1, #1
 340:../reversi8_2019.c ****         tablero[FA][CA] = color;
 4062              		.loc 1 340 0
 4063 16ac 82E183E0 		add	lr, r3, r2, asl #3
 336:../reversi8_2019.c ****     for (i = 0; i < n; i++)
 4064              		.loc 1 336 0
 4065 16b0 000051E1 		cmp	r1, r0
 340:../reversi8_2019.c ****         tablero[FA][CA] = color;
 4066              		.loc 1 340 0
 4067 16b4 0E70C8E7 		strb	r7, [r8, lr]
 336:../reversi8_2019.c ****     for (i = 0; i < n; i++)
 4068              		.loc 1 336 0
 4069 16b8 1E00000A 		beq	.L212
 4070              	.L361:
 4071 16bc 40000BE5 		str	r0, [fp, #-64]
 4072 16c0 44600BE5 		str	r6, [fp, #-68]
 4073              	.L213:
 338:../reversi8_2019.c ****         FA = FA + SF;
 4074              		.loc 1 338 0
 4075 16c4 049082E0 		add	r9, r2, r4
 339:../reversi8_2019.c ****         CA = CA + SC;
 4076              		.loc 1 339 0
 4077 16c8 05A083E0 		add	sl, r3, r5
 338:../reversi8_2019.c ****         FA = FA + SF;
 4078              		.loc 1 338 0
 4079 16cc FF9009E2 		and	r9, r9, #255
 339:../reversi8_2019.c ****         CA = CA + SC;
 4080              		.loc 1 339 0
 4081 16d0 FFA00AE2 		and	sl, sl, #255
 4082 16d4 05E08AE0 		add	lr, sl, r5
 338:../reversi8_2019.c ****         FA = FA + SF;
 4083              		.loc 1 338 0
 4084 16d8 046089E0 		add	r6, r9, r4
 4085 16dc FF6006E2 		and	r6, r6, #255
 339:../reversi8_2019.c ****         CA = CA + SC;
 4086              		.loc 1 339 0
 4087 16e0 FFE00EE2 		and	lr, lr, #255
 338:../reversi8_2019.c ****         FA = FA + SF;
 4088              		.loc 1 338 0
 4089 16e4 04C086E0 		add	ip, r6, r4
 339:../reversi8_2019.c ****         CA = CA + SC;
 4090              		.loc 1 339 0
 4091 16e8 05008EE0 		add	r0, lr, r5
 338:../reversi8_2019.c ****         FA = FA + SF;
 4092              		.loc 1 338 0
 4093 16ec FFC00CE2 		and	ip, ip, #255
 339:../reversi8_2019.c ****         CA = CA + SC;
 4094              		.loc 1 339 0
 4095 16f0 FF0000E2 		and	r0, r0, #255
 338:../reversi8_2019.c ****         FA = FA + SF;
 4096              		.loc 1 338 0
 4097 16f4 04208CE0 		add	r2, ip, r4
 339:../reversi8_2019.c ****         CA = CA + SC;
 4098              		.loc 1 339 0
 4099 16f8 053080E0 		add	r3, r0, r5
 340:../reversi8_2019.c ****         tablero[FA][CA] = color;
 4100              		.loc 1 340 0
 4101 16fc 8C0180E0 		add	r0, r0, ip, asl #3
 336:../reversi8_2019.c ****     for (i = 0; i < n; i++)
 4102              		.loc 1 336 0
 4103 1700 40C01BE5 		ldr	ip, [fp, #-64]
 338:../reversi8_2019.c ****         FA = FA + SF;
 4104              		.loc 1 338 0
 4105 1704 FF2002E2 		and	r2, r2, #255
 339:../reversi8_2019.c ****         CA = CA + SC;
 4106              		.loc 1 339 0
 4107 1708 FF3003E2 		and	r3, r3, #255
 336:../reversi8_2019.c ****     for (i = 0; i < n; i++)
 4108              		.loc 1 336 0
 4109 170c 041081E2 		add	r1, r1, #4
 340:../reversi8_2019.c ****         tablero[FA][CA] = color;
 4110              		.loc 1 340 0
 4111 1710 86E18EE0 		add	lr, lr, r6, asl #3
 4112 1714 89A18AE0 		add	sl, sl, r9, asl #3
 4113 1718 826183E0 		add	r6, r3, r2, asl #3
 336:../reversi8_2019.c ****     for (i = 0; i < n; i++)
 4114              		.loc 1 336 0
 4115 171c 0C0051E1 		cmp	r1, ip
 340:../reversi8_2019.c ****         tablero[FA][CA] = color;
 4116              		.loc 1 340 0
 4117 1720 0A70C8E7 		strb	r7, [r8, sl]
 4118 1724 0E70C8E7 		strb	r7, [r8, lr]
 4119 1728 0070C8E7 		strb	r7, [r8, r0]
 4120 172c 0670C8E7 		strb	r7, [r8, r6]
 336:../reversi8_2019.c ****     for (i = 0; i < n; i++)
 4121              		.loc 1 336 0
 4122 1730 E3FFFF1A 		bne	.L213
 4123 1734 44601BE5 		ldr	r6, [fp, #-68]
 4124              	.L212:
 4125              	.LBE85:
 4126              	.LBE84:
 354:../reversi8_2019.c ****     for (i = 0; i < DIM; i++) // 0 es Norte, 1 NE, 2 E ...
 4127              		.loc 1 354 0
 4128 1738 016086E2 		add	r6, r6, #1
 4129              	.LVL334:
 4130 173c 080056E3 		cmp	r6, #8
 364:../reversi8_2019.c ****             jugada_valida = 1;          //TODO explicar
 4131              		.loc 1 364 0
 4132 1740 887088E5 		str	r7, [r8, #136]
 354:../reversi8_2019.c ****     for (i = 0; i < DIM; i++) // 0 es Norte, 1 NE, 2 E ...
 4133              		.loc 1 354 0
 4134 1744 A1FFFF1A 		bne	.L214
 4135              	.LVL335:
 4136              	.L363:
 4137              	.LBE83:
 4138              	.LBE82:
 530:../reversi8_2019.c ****         actualizar_tablero(tablero, f, c, FICHA_BLANCA);
 531:../reversi8_2019.c ****         actualizar_candidatas(candidatas, f, c);
 4139              		.loc 1 531 0
 4140 1748 38369FE5 		ldr	r3, .L364+12
 4141 174c 3C169FE5 		ldr	r1, .L364+20
 4142 1750 0000D3E5 		ldrb	r0, [r3, #0]	@ zero_extendqisi2
 4143 1754 0010D1E5 		ldrb	r1, [r1, #0]	@ zero_extendqisi2
 4144 1758 03FBFFEB 		bl	actualizar_candidatas.clone.5
 4145              	.LVL336:
 4146              	.L210:
 4147              	.LBB86:
 4148              	.LBB87:
 449:../reversi8_2019.c ****             if (tablero[i][j] == FICHA_BLANCA)
 4149              		.loc 1 449 0
 4150 175c 0010D8E5 		ldrb	r1, [r8, #0]	@ zero_extendqisi2
 441:../reversi8_2019.c ****     *b = 0;
 4151              		.loc 1 441 0
 4152 1760 0020A0E3 		mov	r2, #0
 4153              	.LVL337:
 449:../reversi8_2019.c ****             if (tablero[i][j] == FICHA_BLANCA)
 4154              		.loc 1 449 0
 4155 1764 010051E3 		cmp	r1, #1
 441:../reversi8_2019.c ****     *b = 0;
 4156              		.loc 1 441 0
 4157 1768 0230A0E1 		mov	r3, r2
 4158              	.LVL338:
 451:../reversi8_2019.c ****                 (*b)++;
 4159              		.loc 1 451 0
 4160 176c 0130A001 		moveq	r3, r1
 449:../reversi8_2019.c ****             if (tablero[i][j] == FICHA_BLANCA)
 4161              		.loc 1 449 0
 4162 1770 0200000A 		beq	.L216
 455:../reversi8_2019.c ****                 (*n)++;
 4163              		.loc 1 455 0
 4164 1774 020041E2 		sub	r0, r1, #2
 4165 1778 002070E2 		rsbs	r2, r0, #0
 4166 177c 0020A2E0 		adc	r2, r2, r0
 4167              	.L216:
 4168              	.LVL339:
 449:../reversi8_2019.c ****             if (tablero[i][j] == FICHA_BLANCA)
 4169              		.loc 1 449 0
 4170 1780 0110D8E5 		ldrb	r1, [r8, #1]	@ zero_extendqisi2
 4171 1784 010051E3 		cmp	r1, #1
 451:../reversi8_2019.c ****                 (*b)++;
 4172              		.loc 1 451 0
 4173 1788 01308302 		addeq	r3, r3, #1
 449:../reversi8_2019.c ****             if (tablero[i][j] == FICHA_BLANCA)
 4174              		.loc 1 449 0
 4175 178c 0100000A 		beq	.L218
 453:../reversi8_2019.c ****             else if (tablero[i][j] == FICHA_NEGRA)
 4176              		.loc 1 453 0
 4177 1790 020051E3 		cmp	r1, #2
 455:../reversi8_2019.c ****                 (*n)++;
 4178              		.loc 1 455 0
 4179 1794 01208202 		addeq	r2, r2, #1
 4180              	.L218:
 4181              	.LVL340:
 449:../reversi8_2019.c ****             if (tablero[i][j] == FICHA_BLANCA)
 4182              		.loc 1 449 0
 4183 1798 0210D8E5 		ldrb	r1, [r8, #2]	@ zero_extendqisi2
 4184 179c 010051E3 		cmp	r1, #1
 451:../reversi8_2019.c ****                 (*b)++;
 4185              		.loc 1 451 0
 4186 17a0 01308302 		addeq	r3, r3, #1
 449:../reversi8_2019.c ****             if (tablero[i][j] == FICHA_BLANCA)
 4187              		.loc 1 449 0
 4188 17a4 0100000A 		beq	.L220
 453:../reversi8_2019.c ****             else if (tablero[i][j] == FICHA_NEGRA)
 4189              		.loc 1 453 0
 4190 17a8 020051E3 		cmp	r1, #2
 455:../reversi8_2019.c ****                 (*n)++;
 4191              		.loc 1 455 0
 4192 17ac 01208202 		addeq	r2, r2, #1
 4193              	.L220:
 4194              	.LVL341:
 449:../reversi8_2019.c ****             if (tablero[i][j] == FICHA_BLANCA)
 4195              		.loc 1 449 0
 4196 17b0 0310D8E5 		ldrb	r1, [r8, #3]	@ zero_extendqisi2
 4197 17b4 010051E3 		cmp	r1, #1
 451:../reversi8_2019.c ****                 (*b)++;
 4198              		.loc 1 451 0
 4199 17b8 01308302 		addeq	r3, r3, #1
 449:../reversi8_2019.c ****             if (tablero[i][j] == FICHA_BLANCA)
 4200              		.loc 1 449 0
 4201 17bc 0100000A 		beq	.L222
 453:../reversi8_2019.c ****             else if (tablero[i][j] == FICHA_NEGRA)
 4202              		.loc 1 453 0
 4203 17c0 020051E3 		cmp	r1, #2
 455:../reversi8_2019.c ****                 (*n)++;
 4204              		.loc 1 455 0
 4205 17c4 01208202 		addeq	r2, r2, #1
 4206              	.L222:
 4207              	.LVL342:
 449:../reversi8_2019.c ****             if (tablero[i][j] == FICHA_BLANCA)
 4208              		.loc 1 449 0
 4209 17c8 0410D8E5 		ldrb	r1, [r8, #4]	@ zero_extendqisi2
 4210 17cc 010051E3 		cmp	r1, #1
 451:../reversi8_2019.c ****                 (*b)++;
 4211              		.loc 1 451 0
 4212 17d0 01308302 		addeq	r3, r3, #1
 449:../reversi8_2019.c ****             if (tablero[i][j] == FICHA_BLANCA)
 4213              		.loc 1 449 0
 4214 17d4 0100000A 		beq	.L224
 453:../reversi8_2019.c ****             else if (tablero[i][j] == FICHA_NEGRA)
 4215              		.loc 1 453 0
 4216 17d8 020051E3 		cmp	r1, #2
 455:../reversi8_2019.c ****                 (*n)++;
 4217              		.loc 1 455 0
 4218 17dc 01208202 		addeq	r2, r2, #1
 4219              	.L224:
 4220              	.LVL343:
 449:../reversi8_2019.c ****             if (tablero[i][j] == FICHA_BLANCA)
 4221              		.loc 1 449 0
 4222 17e0 0510D8E5 		ldrb	r1, [r8, #5]	@ zero_extendqisi2
 4223 17e4 010051E3 		cmp	r1, #1
 451:../reversi8_2019.c ****                 (*b)++;
 4224              		.loc 1 451 0
 4225 17e8 01308302 		addeq	r3, r3, #1
 449:../reversi8_2019.c ****             if (tablero[i][j] == FICHA_BLANCA)
 4226              		.loc 1 449 0
 4227 17ec 0100000A 		beq	.L226
 453:../reversi8_2019.c ****             else if (tablero[i][j] == FICHA_NEGRA)
 4228              		.loc 1 453 0
 4229 17f0 020051E3 		cmp	r1, #2
 455:../reversi8_2019.c ****                 (*n)++;
 4230              		.loc 1 455 0
 4231 17f4 01208202 		addeq	r2, r2, #1
 4232              	.L226:
 4233              	.LVL344:
 449:../reversi8_2019.c ****             if (tablero[i][j] == FICHA_BLANCA)
 4234              		.loc 1 449 0
 4235 17f8 0610D8E5 		ldrb	r1, [r8, #6]	@ zero_extendqisi2
 4236 17fc 010051E3 		cmp	r1, #1
 451:../reversi8_2019.c ****                 (*b)++;
 4237              		.loc 1 451 0
 4238 1800 01308302 		addeq	r3, r3, #1
 449:../reversi8_2019.c ****             if (tablero[i][j] == FICHA_BLANCA)
 4239              		.loc 1 449 0
 4240 1804 0100000A 		beq	.L228
 453:../reversi8_2019.c ****             else if (tablero[i][j] == FICHA_NEGRA)
 4241              		.loc 1 453 0
 4242 1808 020051E3 		cmp	r1, #2
 455:../reversi8_2019.c ****                 (*n)++;
 4243              		.loc 1 455 0
 4244 180c 01208202 		addeq	r2, r2, #1
 4245              	.L228:
 4246              	.LVL345:
 449:../reversi8_2019.c ****             if (tablero[i][j] == FICHA_BLANCA)
 4247              		.loc 1 449 0
 4248 1810 0710D8E5 		ldrb	r1, [r8, #7]	@ zero_extendqisi2
 4249 1814 010051E3 		cmp	r1, #1
 451:../reversi8_2019.c ****                 (*b)++;
 4250              		.loc 1 451 0
 4251 1818 01308302 		addeq	r3, r3, #1
 449:../reversi8_2019.c ****             if (tablero[i][j] == FICHA_BLANCA)
 4252              		.loc 1 449 0
 4253 181c 0100000A 		beq	.L230
 453:../reversi8_2019.c ****             else if (tablero[i][j] == FICHA_NEGRA)
 4254              		.loc 1 453 0
 4255 1820 020051E3 		cmp	r1, #2
 455:../reversi8_2019.c ****                 (*n)++;
 4256              		.loc 1 455 0
 4257 1824 01208202 		addeq	r2, r2, #1
 4258              	.L230:
 4259              	.LVL346:
 449:../reversi8_2019.c ****             if (tablero[i][j] == FICHA_BLANCA)
 4260              		.loc 1 449 0
 4261 1828 0810D8E5 		ldrb	r1, [r8, #8]	@ zero_extendqisi2
 4262 182c 010051E3 		cmp	r1, #1
 451:../reversi8_2019.c ****                 (*b)++;
 4263              		.loc 1 451 0
 4264 1830 01308302 		addeq	r3, r3, #1
 449:../reversi8_2019.c ****             if (tablero[i][j] == FICHA_BLANCA)
 4265              		.loc 1 449 0
 4266 1834 0100000A 		beq	.L232
 453:../reversi8_2019.c ****             else if (tablero[i][j] == FICHA_NEGRA)
 4267              		.loc 1 453 0
 4268 1838 020051E3 		cmp	r1, #2
 455:../reversi8_2019.c ****                 (*n)++;
 4269              		.loc 1 455 0
 4270 183c 01208202 		addeq	r2, r2, #1
 4271              	.L232:
 4272              	.LVL347:
 449:../reversi8_2019.c ****             if (tablero[i][j] == FICHA_BLANCA)
 4273              		.loc 1 449 0
 4274 1840 0910D8E5 		ldrb	r1, [r8, #9]	@ zero_extendqisi2
 4275 1844 010051E3 		cmp	r1, #1
 451:../reversi8_2019.c ****                 (*b)++;
 4276              		.loc 1 451 0
 4277 1848 01308302 		addeq	r3, r3, #1
 449:../reversi8_2019.c ****             if (tablero[i][j] == FICHA_BLANCA)
 4278              		.loc 1 449 0
 4279 184c 0100000A 		beq	.L234
 453:../reversi8_2019.c ****             else if (tablero[i][j] == FICHA_NEGRA)
 4280              		.loc 1 453 0
 4281 1850 020051E3 		cmp	r1, #2
 455:../reversi8_2019.c ****                 (*n)++;
 4282              		.loc 1 455 0
 4283 1854 01208202 		addeq	r2, r2, #1
 4284              	.L234:
 4285              	.LVL348:
 449:../reversi8_2019.c ****             if (tablero[i][j] == FICHA_BLANCA)
 4286              		.loc 1 449 0
 4287 1858 0A10D8E5 		ldrb	r1, [r8, #10]	@ zero_extendqisi2
 4288 185c 010051E3 		cmp	r1, #1
 451:../reversi8_2019.c ****                 (*b)++;
 4289              		.loc 1 451 0
 4290 1860 01308302 		addeq	r3, r3, #1
 449:../reversi8_2019.c ****             if (tablero[i][j] == FICHA_BLANCA)
 4291              		.loc 1 449 0
 4292 1864 0100000A 		beq	.L236
 453:../reversi8_2019.c ****             else if (tablero[i][j] == FICHA_NEGRA)
 4293              		.loc 1 453 0
 4294 1868 020051E3 		cmp	r1, #2
 455:../reversi8_2019.c ****                 (*n)++;
 4295              		.loc 1 455 0
 4296 186c 01208202 		addeq	r2, r2, #1
 4297              	.L236:
 4298              	.LVL349:
 449:../reversi8_2019.c ****             if (tablero[i][j] == FICHA_BLANCA)
 4299              		.loc 1 449 0
 4300 1870 0B10D8E5 		ldrb	r1, [r8, #11]	@ zero_extendqisi2
 4301 1874 010051E3 		cmp	r1, #1
 451:../reversi8_2019.c ****                 (*b)++;
 4302              		.loc 1 451 0
 4303 1878 01308302 		addeq	r3, r3, #1
 449:../reversi8_2019.c ****             if (tablero[i][j] == FICHA_BLANCA)
 4304              		.loc 1 449 0
 4305 187c 0100000A 		beq	.L238
 453:../reversi8_2019.c ****             else if (tablero[i][j] == FICHA_NEGRA)
 4306              		.loc 1 453 0
 4307 1880 020051E3 		cmp	r1, #2
 455:../reversi8_2019.c ****                 (*n)++;
 4308              		.loc 1 455 0
 4309 1884 01208202 		addeq	r2, r2, #1
 4310              	.L238:
 4311              	.LVL350:
 449:../reversi8_2019.c ****             if (tablero[i][j] == FICHA_BLANCA)
 4312              		.loc 1 449 0
 4313 1888 0C10D8E5 		ldrb	r1, [r8, #12]	@ zero_extendqisi2
 4314 188c 010051E3 		cmp	r1, #1
 451:../reversi8_2019.c ****                 (*b)++;
 4315              		.loc 1 451 0
 4316 1890 01308302 		addeq	r3, r3, #1
 449:../reversi8_2019.c ****             if (tablero[i][j] == FICHA_BLANCA)
 4317              		.loc 1 449 0
 4318 1894 0100000A 		beq	.L240
 453:../reversi8_2019.c ****             else if (tablero[i][j] == FICHA_NEGRA)
 4319              		.loc 1 453 0
 4320 1898 020051E3 		cmp	r1, #2
 455:../reversi8_2019.c ****                 (*n)++;
 4321              		.loc 1 455 0
 4322 189c 01208202 		addeq	r2, r2, #1
 4323              	.L240:
 4324              	.LVL351:
 449:../reversi8_2019.c ****             if (tablero[i][j] == FICHA_BLANCA)
 4325              		.loc 1 449 0
 4326 18a0 0D10D8E5 		ldrb	r1, [r8, #13]	@ zero_extendqisi2
 4327 18a4 010051E3 		cmp	r1, #1
 451:../reversi8_2019.c ****                 (*b)++;
 4328              		.loc 1 451 0
 4329 18a8 01308302 		addeq	r3, r3, #1
 449:../reversi8_2019.c ****             if (tablero[i][j] == FICHA_BLANCA)
 4330              		.loc 1 449 0
 4331 18ac 0100000A 		beq	.L242
 453:../reversi8_2019.c ****             else if (tablero[i][j] == FICHA_NEGRA)
 4332              		.loc 1 453 0
 4333 18b0 020051E3 		cmp	r1, #2
 455:../reversi8_2019.c ****                 (*n)++;
 4334              		.loc 1 455 0
 4335 18b4 01208202 		addeq	r2, r2, #1
 4336              	.L242:
 4337              	.LVL352:
 449:../reversi8_2019.c ****             if (tablero[i][j] == FICHA_BLANCA)
 4338              		.loc 1 449 0
 4339 18b8 0E10D8E5 		ldrb	r1, [r8, #14]	@ zero_extendqisi2
 4340 18bc 010051E3 		cmp	r1, #1
 451:../reversi8_2019.c ****                 (*b)++;
 4341              		.loc 1 451 0
 4342 18c0 01308302 		addeq	r3, r3, #1
 449:../reversi8_2019.c ****             if (tablero[i][j] == FICHA_BLANCA)
 4343              		.loc 1 449 0
 4344 18c4 0100000A 		beq	.L244
 453:../reversi8_2019.c ****             else if (tablero[i][j] == FICHA_NEGRA)
 4345              		.loc 1 453 0
 4346 18c8 020051E3 		cmp	r1, #2
 455:../reversi8_2019.c ****                 (*n)++;
 4347              		.loc 1 455 0
 4348 18cc 01208202 		addeq	r2, r2, #1
 4349              	.L244:
 4350              	.LVL353:
 449:../reversi8_2019.c ****             if (tablero[i][j] == FICHA_BLANCA)
 4351              		.loc 1 449 0
 4352 18d0 0F10D8E5 		ldrb	r1, [r8, #15]	@ zero_extendqisi2
 4353 18d4 010051E3 		cmp	r1, #1
 451:../reversi8_2019.c ****                 (*b)++;
 4354              		.loc 1 451 0
 4355 18d8 01308302 		addeq	r3, r3, #1
 449:../reversi8_2019.c ****             if (tablero[i][j] == FICHA_BLANCA)
 4356              		.loc 1 449 0
 4357 18dc 0100000A 		beq	.L246
 453:../reversi8_2019.c ****             else if (tablero[i][j] == FICHA_NEGRA)
 4358              		.loc 1 453 0
 4359 18e0 020051E3 		cmp	r1, #2
 455:../reversi8_2019.c ****                 (*n)++;
 4360              		.loc 1 455 0
 4361 18e4 01208202 		addeq	r2, r2, #1
 4362              	.L246:
 4363              	.LVL354:
 449:../reversi8_2019.c ****             if (tablero[i][j] == FICHA_BLANCA)
 4364              		.loc 1 449 0
 4365 18e8 1010D8E5 		ldrb	r1, [r8, #16]	@ zero_extendqisi2
 4366 18ec 010051E3 		cmp	r1, #1
 451:../reversi8_2019.c ****                 (*b)++;
 4367              		.loc 1 451 0
 4368 18f0 01308302 		addeq	r3, r3, #1
 449:../reversi8_2019.c ****             if (tablero[i][j] == FICHA_BLANCA)
 4369              		.loc 1 449 0
 4370 18f4 0100000A 		beq	.L248
 453:../reversi8_2019.c ****             else if (tablero[i][j] == FICHA_NEGRA)
 4371              		.loc 1 453 0
 4372 18f8 020051E3 		cmp	r1, #2
 455:../reversi8_2019.c ****                 (*n)++;
 4373              		.loc 1 455 0
 4374 18fc 01208202 		addeq	r2, r2, #1
 4375              	.L248:
 4376              	.LVL355:
 449:../reversi8_2019.c ****             if (tablero[i][j] == FICHA_BLANCA)
 4377              		.loc 1 449 0
 4378 1900 1110D8E5 		ldrb	r1, [r8, #17]	@ zero_extendqisi2
 4379 1904 010051E3 		cmp	r1, #1
 451:../reversi8_2019.c ****                 (*b)++;
 4380              		.loc 1 451 0
 4381 1908 01308302 		addeq	r3, r3, #1
 449:../reversi8_2019.c ****             if (tablero[i][j] == FICHA_BLANCA)
 4382              		.loc 1 449 0
 4383 190c 0100000A 		beq	.L250
 453:../reversi8_2019.c ****             else if (tablero[i][j] == FICHA_NEGRA)
 4384              		.loc 1 453 0
 4385 1910 020051E3 		cmp	r1, #2
 455:../reversi8_2019.c ****                 (*n)++;
 4386              		.loc 1 455 0
 4387 1914 01208202 		addeq	r2, r2, #1
 4388              	.L250:
 4389              	.LVL356:
 449:../reversi8_2019.c ****             if (tablero[i][j] == FICHA_BLANCA)
 4390              		.loc 1 449 0
 4391 1918 1210D8E5 		ldrb	r1, [r8, #18]	@ zero_extendqisi2
 4392 191c 010051E3 		cmp	r1, #1
 451:../reversi8_2019.c ****                 (*b)++;
 4393              		.loc 1 451 0
 4394 1920 01308302 		addeq	r3, r3, #1
 449:../reversi8_2019.c ****             if (tablero[i][j] == FICHA_BLANCA)
 4395              		.loc 1 449 0
 4396 1924 0100000A 		beq	.L252
 453:../reversi8_2019.c ****             else if (tablero[i][j] == FICHA_NEGRA)
 4397              		.loc 1 453 0
 4398 1928 020051E3 		cmp	r1, #2
 455:../reversi8_2019.c ****                 (*n)++;
 4399              		.loc 1 455 0
 4400 192c 01208202 		addeq	r2, r2, #1
 4401              	.L252:
 4402              	.LVL357:
 449:../reversi8_2019.c ****             if (tablero[i][j] == FICHA_BLANCA)
 4403              		.loc 1 449 0
 4404 1930 1310D8E5 		ldrb	r1, [r8, #19]	@ zero_extendqisi2
 4405 1934 010051E3 		cmp	r1, #1
 451:../reversi8_2019.c ****                 (*b)++;
 4406              		.loc 1 451 0
 4407 1938 01308302 		addeq	r3, r3, #1
 449:../reversi8_2019.c ****             if (tablero[i][j] == FICHA_BLANCA)
 4408              		.loc 1 449 0
 4409 193c 0100000A 		beq	.L254
 453:../reversi8_2019.c ****             else if (tablero[i][j] == FICHA_NEGRA)
 4410              		.loc 1 453 0
 4411 1940 020051E3 		cmp	r1, #2
 455:../reversi8_2019.c ****                 (*n)++;
 4412              		.loc 1 455 0
 4413 1944 01208202 		addeq	r2, r2, #1
 4414              	.L254:
 4415              	.LVL358:
 449:../reversi8_2019.c ****             if (tablero[i][j] == FICHA_BLANCA)
 4416              		.loc 1 449 0
 4417 1948 1410D8E5 		ldrb	r1, [r8, #20]	@ zero_extendqisi2
 4418 194c 010051E3 		cmp	r1, #1
 451:../reversi8_2019.c ****                 (*b)++;
 4419              		.loc 1 451 0
 4420 1950 01308302 		addeq	r3, r3, #1
 449:../reversi8_2019.c ****             if (tablero[i][j] == FICHA_BLANCA)
 4421              		.loc 1 449 0
 4422 1954 0100000A 		beq	.L256
 453:../reversi8_2019.c ****             else if (tablero[i][j] == FICHA_NEGRA)
 4423              		.loc 1 453 0
 4424 1958 020051E3 		cmp	r1, #2
 455:../reversi8_2019.c ****                 (*n)++;
 4425              		.loc 1 455 0
 4426 195c 01208202 		addeq	r2, r2, #1
 4427              	.L256:
 4428              	.LVL359:
 449:../reversi8_2019.c ****             if (tablero[i][j] == FICHA_BLANCA)
 4429              		.loc 1 449 0
 4430 1960 1510D8E5 		ldrb	r1, [r8, #21]	@ zero_extendqisi2
 4431 1964 010051E3 		cmp	r1, #1
 451:../reversi8_2019.c ****                 (*b)++;
 4432              		.loc 1 451 0
 4433 1968 01308302 		addeq	r3, r3, #1
 449:../reversi8_2019.c ****             if (tablero[i][j] == FICHA_BLANCA)
 4434              		.loc 1 449 0
 4435 196c 0100000A 		beq	.L258
 453:../reversi8_2019.c ****             else if (tablero[i][j] == FICHA_NEGRA)
 4436              		.loc 1 453 0
 4437 1970 020051E3 		cmp	r1, #2
 455:../reversi8_2019.c ****                 (*n)++;
 4438              		.loc 1 455 0
 4439 1974 01208202 		addeq	r2, r2, #1
 4440              	.L258:
 4441              	.LVL360:
 449:../reversi8_2019.c ****             if (tablero[i][j] == FICHA_BLANCA)
 4442              		.loc 1 449 0
 4443 1978 1610D8E5 		ldrb	r1, [r8, #22]	@ zero_extendqisi2
 4444 197c 010051E3 		cmp	r1, #1
 451:../reversi8_2019.c ****                 (*b)++;
 4445              		.loc 1 451 0
 4446 1980 01308302 		addeq	r3, r3, #1
 449:../reversi8_2019.c ****             if (tablero[i][j] == FICHA_BLANCA)
 4447              		.loc 1 449 0
 4448 1984 0100000A 		beq	.L260
 453:../reversi8_2019.c ****             else if (tablero[i][j] == FICHA_NEGRA)
 4449              		.loc 1 453 0
 4450 1988 020051E3 		cmp	r1, #2
 455:../reversi8_2019.c ****                 (*n)++;
 4451              		.loc 1 455 0
 4452 198c 01208202 		addeq	r2, r2, #1
 4453              	.L260:
 4454              	.LVL361:
 449:../reversi8_2019.c ****             if (tablero[i][j] == FICHA_BLANCA)
 4455              		.loc 1 449 0
 4456 1990 1710D8E5 		ldrb	r1, [r8, #23]	@ zero_extendqisi2
 4457 1994 010051E3 		cmp	r1, #1
 451:../reversi8_2019.c ****                 (*b)++;
 4458              		.loc 1 451 0
 4459 1998 01308302 		addeq	r3, r3, #1
 449:../reversi8_2019.c ****             if (tablero[i][j] == FICHA_BLANCA)
 4460              		.loc 1 449 0
 4461 199c 0100000A 		beq	.L262
 453:../reversi8_2019.c ****             else if (tablero[i][j] == FICHA_NEGRA)
 4462              		.loc 1 453 0
 4463 19a0 020051E3 		cmp	r1, #2
 455:../reversi8_2019.c ****                 (*n)++;
 4464              		.loc 1 455 0
 4465 19a4 01208202 		addeq	r2, r2, #1
 4466              	.L262:
 4467              	.LVL362:
 449:../reversi8_2019.c ****             if (tablero[i][j] == FICHA_BLANCA)
 4468              		.loc 1 449 0
 4469 19a8 1810D8E5 		ldrb	r1, [r8, #24]	@ zero_extendqisi2
 4470 19ac 010051E3 		cmp	r1, #1
 451:../reversi8_2019.c ****                 (*b)++;
 4471              		.loc 1 451 0
 4472 19b0 01308302 		addeq	r3, r3, #1
 449:../reversi8_2019.c ****             if (tablero[i][j] == FICHA_BLANCA)
 4473              		.loc 1 449 0
 4474 19b4 0100000A 		beq	.L264
 453:../reversi8_2019.c ****             else if (tablero[i][j] == FICHA_NEGRA)
 4475              		.loc 1 453 0
 4476 19b8 020051E3 		cmp	r1, #2
 455:../reversi8_2019.c ****                 (*n)++;
 4477              		.loc 1 455 0
 4478 19bc 01208202 		addeq	r2, r2, #1
 4479              	.L264:
 4480              	.LVL363:
 449:../reversi8_2019.c ****             if (tablero[i][j] == FICHA_BLANCA)
 4481              		.loc 1 449 0
 4482 19c0 1910D8E5 		ldrb	r1, [r8, #25]	@ zero_extendqisi2
 4483 19c4 010051E3 		cmp	r1, #1
 451:../reversi8_2019.c ****                 (*b)++;
 4484              		.loc 1 451 0
 4485 19c8 01308302 		addeq	r3, r3, #1
 449:../reversi8_2019.c ****             if (tablero[i][j] == FICHA_BLANCA)
 4486              		.loc 1 449 0
 4487 19cc 0100000A 		beq	.L266
 453:../reversi8_2019.c ****             else if (tablero[i][j] == FICHA_NEGRA)
 4488              		.loc 1 453 0
 4489 19d0 020051E3 		cmp	r1, #2
 455:../reversi8_2019.c ****                 (*n)++;
 4490              		.loc 1 455 0
 4491 19d4 01208202 		addeq	r2, r2, #1
 4492              	.L266:
 4493              	.LVL364:
 449:../reversi8_2019.c ****             if (tablero[i][j] == FICHA_BLANCA)
 4494              		.loc 1 449 0
 4495 19d8 1A10D8E5 		ldrb	r1, [r8, #26]	@ zero_extendqisi2
 4496 19dc 010051E3 		cmp	r1, #1
 451:../reversi8_2019.c ****                 (*b)++;
 4497              		.loc 1 451 0
 4498 19e0 01308302 		addeq	r3, r3, #1
 449:../reversi8_2019.c ****             if (tablero[i][j] == FICHA_BLANCA)
 4499              		.loc 1 449 0
 4500 19e4 0100000A 		beq	.L268
 453:../reversi8_2019.c ****             else if (tablero[i][j] == FICHA_NEGRA)
 4501              		.loc 1 453 0
 4502 19e8 020051E3 		cmp	r1, #2
 455:../reversi8_2019.c ****                 (*n)++;
 4503              		.loc 1 455 0
 4504 19ec 01208202 		addeq	r2, r2, #1
 4505              	.L268:
 4506              	.LVL365:
 449:../reversi8_2019.c ****             if (tablero[i][j] == FICHA_BLANCA)
 4507              		.loc 1 449 0
 4508 19f0 1B10D8E5 		ldrb	r1, [r8, #27]	@ zero_extendqisi2
 4509 19f4 010051E3 		cmp	r1, #1
 451:../reversi8_2019.c ****                 (*b)++;
 4510              		.loc 1 451 0
 4511 19f8 01308302 		addeq	r3, r3, #1
 449:../reversi8_2019.c ****             if (tablero[i][j] == FICHA_BLANCA)
 4512              		.loc 1 449 0
 4513 19fc 0100000A 		beq	.L270
 453:../reversi8_2019.c ****             else if (tablero[i][j] == FICHA_NEGRA)
 4514              		.loc 1 453 0
 4515 1a00 020051E3 		cmp	r1, #2
 455:../reversi8_2019.c ****                 (*n)++;
 4516              		.loc 1 455 0
 4517 1a04 01208202 		addeq	r2, r2, #1
 4518              	.L270:
 4519              	.LVL366:
 449:../reversi8_2019.c ****             if (tablero[i][j] == FICHA_BLANCA)
 4520              		.loc 1 449 0
 4521 1a08 1C10D8E5 		ldrb	r1, [r8, #28]	@ zero_extendqisi2
 4522 1a0c 010051E3 		cmp	r1, #1
 451:../reversi8_2019.c ****                 (*b)++;
 4523              		.loc 1 451 0
 4524 1a10 01308302 		addeq	r3, r3, #1
 449:../reversi8_2019.c ****             if (tablero[i][j] == FICHA_BLANCA)
 4525              		.loc 1 449 0
 4526 1a14 0100000A 		beq	.L272
 453:../reversi8_2019.c ****             else if (tablero[i][j] == FICHA_NEGRA)
 4527              		.loc 1 453 0
 4528 1a18 020051E3 		cmp	r1, #2
 455:../reversi8_2019.c ****                 (*n)++;
 4529              		.loc 1 455 0
 4530 1a1c 01208202 		addeq	r2, r2, #1
 4531              	.L272:
 4532              	.LVL367:
 449:../reversi8_2019.c ****             if (tablero[i][j] == FICHA_BLANCA)
 4533              		.loc 1 449 0
 4534 1a20 1D10D8E5 		ldrb	r1, [r8, #29]	@ zero_extendqisi2
 4535 1a24 010051E3 		cmp	r1, #1
 451:../reversi8_2019.c ****                 (*b)++;
 4536              		.loc 1 451 0
 4537 1a28 01308302 		addeq	r3, r3, #1
 449:../reversi8_2019.c ****             if (tablero[i][j] == FICHA_BLANCA)
 4538              		.loc 1 449 0
 4539 1a2c 0100000A 		beq	.L274
 453:../reversi8_2019.c ****             else if (tablero[i][j] == FICHA_NEGRA)
 4540              		.loc 1 453 0
 4541 1a30 020051E3 		cmp	r1, #2
 455:../reversi8_2019.c ****                 (*n)++;
 4542              		.loc 1 455 0
 4543 1a34 01208202 		addeq	r2, r2, #1
 4544              	.L274:
 4545              	.LVL368:
 449:../reversi8_2019.c ****             if (tablero[i][j] == FICHA_BLANCA)
 4546              		.loc 1 449 0
 4547 1a38 1E10D8E5 		ldrb	r1, [r8, #30]	@ zero_extendqisi2
 4548 1a3c 010051E3 		cmp	r1, #1
 451:../reversi8_2019.c ****                 (*b)++;
 4549              		.loc 1 451 0
 4550 1a40 01308302 		addeq	r3, r3, #1
 449:../reversi8_2019.c ****             if (tablero[i][j] == FICHA_BLANCA)
 4551              		.loc 1 449 0
 4552 1a44 0100000A 		beq	.L276
 453:../reversi8_2019.c ****             else if (tablero[i][j] == FICHA_NEGRA)
 4553              		.loc 1 453 0
 4554 1a48 020051E3 		cmp	r1, #2
 455:../reversi8_2019.c ****                 (*n)++;
 4555              		.loc 1 455 0
 4556 1a4c 01208202 		addeq	r2, r2, #1
 4557              	.L276:
 4558              	.LVL369:
 449:../reversi8_2019.c ****             if (tablero[i][j] == FICHA_BLANCA)
 4559              		.loc 1 449 0
 4560 1a50 1F10D8E5 		ldrb	r1, [r8, #31]	@ zero_extendqisi2
 4561 1a54 010051E3 		cmp	r1, #1
 451:../reversi8_2019.c ****                 (*b)++;
 4562              		.loc 1 451 0
 4563 1a58 01308302 		addeq	r3, r3, #1
 449:../reversi8_2019.c ****             if (tablero[i][j] == FICHA_BLANCA)
 4564              		.loc 1 449 0
 4565 1a5c 0100000A 		beq	.L278
 453:../reversi8_2019.c ****             else if (tablero[i][j] == FICHA_NEGRA)
 4566              		.loc 1 453 0
 4567 1a60 020051E3 		cmp	r1, #2
 455:../reversi8_2019.c ****                 (*n)++;
 4568              		.loc 1 455 0
 4569 1a64 01208202 		addeq	r2, r2, #1
 4570              	.L278:
 4571              	.LVL370:
 449:../reversi8_2019.c ****             if (tablero[i][j] == FICHA_BLANCA)
 4572              		.loc 1 449 0
 4573 1a68 2010D8E5 		ldrb	r1, [r8, #32]	@ zero_extendqisi2
 4574 1a6c 010051E3 		cmp	r1, #1
 451:../reversi8_2019.c ****                 (*b)++;
 4575              		.loc 1 451 0
 4576 1a70 01308302 		addeq	r3, r3, #1
 449:../reversi8_2019.c ****             if (tablero[i][j] == FICHA_BLANCA)
 4577              		.loc 1 449 0
 4578 1a74 0100000A 		beq	.L280
 453:../reversi8_2019.c ****             else if (tablero[i][j] == FICHA_NEGRA)
 4579              		.loc 1 453 0
 4580 1a78 020051E3 		cmp	r1, #2
 455:../reversi8_2019.c ****                 (*n)++;
 4581              		.loc 1 455 0
 4582 1a7c 01208202 		addeq	r2, r2, #1
 4583              	.L280:
 4584              	.LVL371:
 449:../reversi8_2019.c ****             if (tablero[i][j] == FICHA_BLANCA)
 4585              		.loc 1 449 0
 4586 1a80 2110D8E5 		ldrb	r1, [r8, #33]	@ zero_extendqisi2
 4587 1a84 010051E3 		cmp	r1, #1
 451:../reversi8_2019.c ****                 (*b)++;
 4588              		.loc 1 451 0
 4589 1a88 01308302 		addeq	r3, r3, #1
 449:../reversi8_2019.c ****             if (tablero[i][j] == FICHA_BLANCA)
 4590              		.loc 1 449 0
 4591 1a8c 0100000A 		beq	.L282
 453:../reversi8_2019.c ****             else if (tablero[i][j] == FICHA_NEGRA)
 4592              		.loc 1 453 0
 4593 1a90 020051E3 		cmp	r1, #2
 455:../reversi8_2019.c ****                 (*n)++;
 4594              		.loc 1 455 0
 4595 1a94 01208202 		addeq	r2, r2, #1
 4596              	.L282:
 4597              	.LVL372:
 449:../reversi8_2019.c ****             if (tablero[i][j] == FICHA_BLANCA)
 4598              		.loc 1 449 0
 4599 1a98 2210D8E5 		ldrb	r1, [r8, #34]	@ zero_extendqisi2
 4600 1a9c 010051E3 		cmp	r1, #1
 451:../reversi8_2019.c ****                 (*b)++;
 4601              		.loc 1 451 0
 4602 1aa0 01308302 		addeq	r3, r3, #1
 449:../reversi8_2019.c ****             if (tablero[i][j] == FICHA_BLANCA)
 4603              		.loc 1 449 0
 4604 1aa4 0100000A 		beq	.L284
 453:../reversi8_2019.c ****             else if (tablero[i][j] == FICHA_NEGRA)
 4605              		.loc 1 453 0
 4606 1aa8 020051E3 		cmp	r1, #2
 455:../reversi8_2019.c ****                 (*n)++;
 4607              		.loc 1 455 0
 4608 1aac 01208202 		addeq	r2, r2, #1
 4609              	.L284:
 4610              	.LVL373:
 449:../reversi8_2019.c ****             if (tablero[i][j] == FICHA_BLANCA)
 4611              		.loc 1 449 0
 4612 1ab0 2310D8E5 		ldrb	r1, [r8, #35]	@ zero_extendqisi2
 4613 1ab4 010051E3 		cmp	r1, #1
 451:../reversi8_2019.c ****                 (*b)++;
 4614              		.loc 1 451 0
 4615 1ab8 01308302 		addeq	r3, r3, #1
 449:../reversi8_2019.c ****             if (tablero[i][j] == FICHA_BLANCA)
 4616              		.loc 1 449 0
 4617 1abc 0100000A 		beq	.L286
 453:../reversi8_2019.c ****             else if (tablero[i][j] == FICHA_NEGRA)
 4618              		.loc 1 453 0
 4619 1ac0 020051E3 		cmp	r1, #2
 455:../reversi8_2019.c ****                 (*n)++;
 4620              		.loc 1 455 0
 4621 1ac4 01208202 		addeq	r2, r2, #1
 4622              	.L286:
 4623              	.LVL374:
 449:../reversi8_2019.c ****             if (tablero[i][j] == FICHA_BLANCA)
 4624              		.loc 1 449 0
 4625 1ac8 2410D8E5 		ldrb	r1, [r8, #36]	@ zero_extendqisi2
 4626 1acc 010051E3 		cmp	r1, #1
 451:../reversi8_2019.c ****                 (*b)++;
 4627              		.loc 1 451 0
 4628 1ad0 01308302 		addeq	r3, r3, #1
 449:../reversi8_2019.c ****             if (tablero[i][j] == FICHA_BLANCA)
 4629              		.loc 1 449 0
 4630 1ad4 0100000A 		beq	.L288
 453:../reversi8_2019.c ****             else if (tablero[i][j] == FICHA_NEGRA)
 4631              		.loc 1 453 0
 4632 1ad8 020051E3 		cmp	r1, #2
 455:../reversi8_2019.c ****                 (*n)++;
 4633              		.loc 1 455 0
 4634 1adc 01208202 		addeq	r2, r2, #1
 4635              	.L288:
 4636              	.LVL375:
 449:../reversi8_2019.c ****             if (tablero[i][j] == FICHA_BLANCA)
 4637              		.loc 1 449 0
 4638 1ae0 2510D8E5 		ldrb	r1, [r8, #37]	@ zero_extendqisi2
 4639 1ae4 010051E3 		cmp	r1, #1
 451:../reversi8_2019.c ****                 (*b)++;
 4640              		.loc 1 451 0
 4641 1ae8 01308302 		addeq	r3, r3, #1
 449:../reversi8_2019.c ****             if (tablero[i][j] == FICHA_BLANCA)
 4642              		.loc 1 449 0
 4643 1aec 0100000A 		beq	.L290
 453:../reversi8_2019.c ****             else if (tablero[i][j] == FICHA_NEGRA)
 4644              		.loc 1 453 0
 4645 1af0 020051E3 		cmp	r1, #2
 455:../reversi8_2019.c ****                 (*n)++;
 4646              		.loc 1 455 0
 4647 1af4 01208202 		addeq	r2, r2, #1
 4648              	.L290:
 4649              	.LVL376:
 449:../reversi8_2019.c ****             if (tablero[i][j] == FICHA_BLANCA)
 4650              		.loc 1 449 0
 4651 1af8 2610D8E5 		ldrb	r1, [r8, #38]	@ zero_extendqisi2
 4652 1afc 010051E3 		cmp	r1, #1
 451:../reversi8_2019.c ****                 (*b)++;
 4653              		.loc 1 451 0
 4654 1b00 01308302 		addeq	r3, r3, #1
 449:../reversi8_2019.c ****             if (tablero[i][j] == FICHA_BLANCA)
 4655              		.loc 1 449 0
 4656 1b04 0100000A 		beq	.L292
 453:../reversi8_2019.c ****             else if (tablero[i][j] == FICHA_NEGRA)
 4657              		.loc 1 453 0
 4658 1b08 020051E3 		cmp	r1, #2
 455:../reversi8_2019.c ****                 (*n)++;
 4659              		.loc 1 455 0
 4660 1b0c 01208202 		addeq	r2, r2, #1
 4661              	.L292:
 4662              	.LVL377:
 449:../reversi8_2019.c ****             if (tablero[i][j] == FICHA_BLANCA)
 4663              		.loc 1 449 0
 4664 1b10 2710D8E5 		ldrb	r1, [r8, #39]	@ zero_extendqisi2
 4665 1b14 010051E3 		cmp	r1, #1
 451:../reversi8_2019.c ****                 (*b)++;
 4666              		.loc 1 451 0
 4667 1b18 01308302 		addeq	r3, r3, #1
 449:../reversi8_2019.c ****             if (tablero[i][j] == FICHA_BLANCA)
 4668              		.loc 1 449 0
 4669 1b1c 0100000A 		beq	.L294
 453:../reversi8_2019.c ****             else if (tablero[i][j] == FICHA_NEGRA)
 4670              		.loc 1 453 0
 4671 1b20 020051E3 		cmp	r1, #2
 455:../reversi8_2019.c ****                 (*n)++;
 4672              		.loc 1 455 0
 4673 1b24 01208202 		addeq	r2, r2, #1
 4674              	.L294:
 4675              	.LVL378:
 449:../reversi8_2019.c ****             if (tablero[i][j] == FICHA_BLANCA)
 4676              		.loc 1 449 0
 4677 1b28 2810D8E5 		ldrb	r1, [r8, #40]	@ zero_extendqisi2
 4678 1b2c 010051E3 		cmp	r1, #1
 451:../reversi8_2019.c ****                 (*b)++;
 4679              		.loc 1 451 0
 4680 1b30 01308302 		addeq	r3, r3, #1
 449:../reversi8_2019.c ****             if (tablero[i][j] == FICHA_BLANCA)
 4681              		.loc 1 449 0
 4682 1b34 0100000A 		beq	.L296
 453:../reversi8_2019.c ****             else if (tablero[i][j] == FICHA_NEGRA)
 4683              		.loc 1 453 0
 4684 1b38 020051E3 		cmp	r1, #2
 455:../reversi8_2019.c ****                 (*n)++;
 4685              		.loc 1 455 0
 4686 1b3c 01208202 		addeq	r2, r2, #1
 4687              	.L296:
 4688              	.LVL379:
 449:../reversi8_2019.c ****             if (tablero[i][j] == FICHA_BLANCA)
 4689              		.loc 1 449 0
 4690 1b40 2910D8E5 		ldrb	r1, [r8, #41]	@ zero_extendqisi2
 4691 1b44 010051E3 		cmp	r1, #1
 451:../reversi8_2019.c ****                 (*b)++;
 4692              		.loc 1 451 0
 4693 1b48 01308302 		addeq	r3, r3, #1
 449:../reversi8_2019.c ****             if (tablero[i][j] == FICHA_BLANCA)
 4694              		.loc 1 449 0
 4695 1b4c 0100000A 		beq	.L298
 453:../reversi8_2019.c ****             else if (tablero[i][j] == FICHA_NEGRA)
 4696              		.loc 1 453 0
 4697 1b50 020051E3 		cmp	r1, #2
 455:../reversi8_2019.c ****                 (*n)++;
 4698              		.loc 1 455 0
 4699 1b54 01208202 		addeq	r2, r2, #1
 4700              	.L298:
 4701              	.LVL380:
 449:../reversi8_2019.c ****             if (tablero[i][j] == FICHA_BLANCA)
 4702              		.loc 1 449 0
 4703 1b58 2A10D8E5 		ldrb	r1, [r8, #42]	@ zero_extendqisi2
 4704 1b5c 010051E3 		cmp	r1, #1
 451:../reversi8_2019.c ****                 (*b)++;
 4705              		.loc 1 451 0
 4706 1b60 01308302 		addeq	r3, r3, #1
 449:../reversi8_2019.c ****             if (tablero[i][j] == FICHA_BLANCA)
 4707              		.loc 1 449 0
 4708 1b64 0100000A 		beq	.L300
 453:../reversi8_2019.c ****             else if (tablero[i][j] == FICHA_NEGRA)
 4709              		.loc 1 453 0
 4710 1b68 020051E3 		cmp	r1, #2
 455:../reversi8_2019.c ****                 (*n)++;
 4711              		.loc 1 455 0
 4712 1b6c 01208202 		addeq	r2, r2, #1
 4713              	.L300:
 4714              	.LVL381:
 449:../reversi8_2019.c ****             if (tablero[i][j] == FICHA_BLANCA)
 4715              		.loc 1 449 0
 4716 1b70 2B10D8E5 		ldrb	r1, [r8, #43]	@ zero_extendqisi2
 4717 1b74 010051E3 		cmp	r1, #1
 451:../reversi8_2019.c ****                 (*b)++;
 4718              		.loc 1 451 0
 4719 1b78 01308302 		addeq	r3, r3, #1
 449:../reversi8_2019.c ****             if (tablero[i][j] == FICHA_BLANCA)
 4720              		.loc 1 449 0
 4721 1b7c 0100000A 		beq	.L302
 453:../reversi8_2019.c ****             else if (tablero[i][j] == FICHA_NEGRA)
 4722              		.loc 1 453 0
 4723 1b80 020051E3 		cmp	r1, #2
 455:../reversi8_2019.c ****                 (*n)++;
 4724              		.loc 1 455 0
 4725 1b84 01208202 		addeq	r2, r2, #1
 4726              	.L302:
 4727              	.LVL382:
 449:../reversi8_2019.c ****             if (tablero[i][j] == FICHA_BLANCA)
 4728              		.loc 1 449 0
 4729 1b88 2C10D8E5 		ldrb	r1, [r8, #44]	@ zero_extendqisi2
 4730 1b8c 010051E3 		cmp	r1, #1
 451:../reversi8_2019.c ****                 (*b)++;
 4731              		.loc 1 451 0
 4732 1b90 01308302 		addeq	r3, r3, #1
 449:../reversi8_2019.c ****             if (tablero[i][j] == FICHA_BLANCA)
 4733              		.loc 1 449 0
 4734 1b94 0100000A 		beq	.L304
 453:../reversi8_2019.c ****             else if (tablero[i][j] == FICHA_NEGRA)
 4735              		.loc 1 453 0
 4736 1b98 020051E3 		cmp	r1, #2
 455:../reversi8_2019.c ****                 (*n)++;
 4737              		.loc 1 455 0
 4738 1b9c 01208202 		addeq	r2, r2, #1
 4739              	.L304:
 4740              	.LVL383:
 449:../reversi8_2019.c ****             if (tablero[i][j] == FICHA_BLANCA)
 4741              		.loc 1 449 0
 4742 1ba0 2D10D8E5 		ldrb	r1, [r8, #45]	@ zero_extendqisi2
 4743 1ba4 010051E3 		cmp	r1, #1
 451:../reversi8_2019.c ****                 (*b)++;
 4744              		.loc 1 451 0
 4745 1ba8 01308302 		addeq	r3, r3, #1
 449:../reversi8_2019.c ****             if (tablero[i][j] == FICHA_BLANCA)
 4746              		.loc 1 449 0
 4747 1bac 0100000A 		beq	.L306
 453:../reversi8_2019.c ****             else if (tablero[i][j] == FICHA_NEGRA)
 4748              		.loc 1 453 0
 4749 1bb0 020051E3 		cmp	r1, #2
 455:../reversi8_2019.c ****                 (*n)++;
 4750              		.loc 1 455 0
 4751 1bb4 01208202 		addeq	r2, r2, #1
 4752              	.L306:
 4753              	.LVL384:
 449:../reversi8_2019.c ****             if (tablero[i][j] == FICHA_BLANCA)
 4754              		.loc 1 449 0
 4755 1bb8 2E10D8E5 		ldrb	r1, [r8, #46]	@ zero_extendqisi2
 4756 1bbc 010051E3 		cmp	r1, #1
 451:../reversi8_2019.c ****                 (*b)++;
 4757              		.loc 1 451 0
 4758 1bc0 01308302 		addeq	r3, r3, #1
 449:../reversi8_2019.c ****             if (tablero[i][j] == FICHA_BLANCA)
 4759              		.loc 1 449 0
 4760 1bc4 0100000A 		beq	.L308
 453:../reversi8_2019.c ****             else if (tablero[i][j] == FICHA_NEGRA)
 4761              		.loc 1 453 0
 4762 1bc8 020051E3 		cmp	r1, #2
 455:../reversi8_2019.c ****                 (*n)++;
 4763              		.loc 1 455 0
 4764 1bcc 01208202 		addeq	r2, r2, #1
 4765              	.L308:
 4766              	.LVL385:
 449:../reversi8_2019.c ****             if (tablero[i][j] == FICHA_BLANCA)
 4767              		.loc 1 449 0
 4768 1bd0 2F10D8E5 		ldrb	r1, [r8, #47]	@ zero_extendqisi2
 4769 1bd4 010051E3 		cmp	r1, #1
 451:../reversi8_2019.c ****                 (*b)++;
 4770              		.loc 1 451 0
 4771 1bd8 01308302 		addeq	r3, r3, #1
 449:../reversi8_2019.c ****             if (tablero[i][j] == FICHA_BLANCA)
 4772              		.loc 1 449 0
 4773 1bdc 0100000A 		beq	.L310
 453:../reversi8_2019.c ****             else if (tablero[i][j] == FICHA_NEGRA)
 4774              		.loc 1 453 0
 4775 1be0 020051E3 		cmp	r1, #2
 455:../reversi8_2019.c ****                 (*n)++;
 4776              		.loc 1 455 0
 4777 1be4 01208202 		addeq	r2, r2, #1
 4778              	.L310:
 4779              	.LVL386:
 449:../reversi8_2019.c ****             if (tablero[i][j] == FICHA_BLANCA)
 4780              		.loc 1 449 0
 4781 1be8 3010D8E5 		ldrb	r1, [r8, #48]	@ zero_extendqisi2
 4782 1bec 010051E3 		cmp	r1, #1
 451:../reversi8_2019.c ****                 (*b)++;
 4783              		.loc 1 451 0
 4784 1bf0 01308302 		addeq	r3, r3, #1
 449:../reversi8_2019.c ****             if (tablero[i][j] == FICHA_BLANCA)
 4785              		.loc 1 449 0
 4786 1bf4 0100000A 		beq	.L312
 453:../reversi8_2019.c ****             else if (tablero[i][j] == FICHA_NEGRA)
 4787              		.loc 1 453 0
 4788 1bf8 020051E3 		cmp	r1, #2
 455:../reversi8_2019.c ****                 (*n)++;
 4789              		.loc 1 455 0
 4790 1bfc 01208202 		addeq	r2, r2, #1
 4791              	.L312:
 4792              	.LVL387:
 449:../reversi8_2019.c ****             if (tablero[i][j] == FICHA_BLANCA)
 4793              		.loc 1 449 0
 4794 1c00 3110D8E5 		ldrb	r1, [r8, #49]	@ zero_extendqisi2
 4795 1c04 010051E3 		cmp	r1, #1
 451:../reversi8_2019.c ****                 (*b)++;
 4796              		.loc 1 451 0
 4797 1c08 01308302 		addeq	r3, r3, #1
 449:../reversi8_2019.c ****             if (tablero[i][j] == FICHA_BLANCA)
 4798              		.loc 1 449 0
 4799 1c0c 0100000A 		beq	.L314
 453:../reversi8_2019.c ****             else if (tablero[i][j] == FICHA_NEGRA)
 4800              		.loc 1 453 0
 4801 1c10 020051E3 		cmp	r1, #2
 455:../reversi8_2019.c ****                 (*n)++;
 4802              		.loc 1 455 0
 4803 1c14 01208202 		addeq	r2, r2, #1
 4804              	.L314:
 4805              	.LVL388:
 449:../reversi8_2019.c ****             if (tablero[i][j] == FICHA_BLANCA)
 4806              		.loc 1 449 0
 4807 1c18 3210D8E5 		ldrb	r1, [r8, #50]	@ zero_extendqisi2
 4808 1c1c 010051E3 		cmp	r1, #1
 451:../reversi8_2019.c ****                 (*b)++;
 4809              		.loc 1 451 0
 4810 1c20 01308302 		addeq	r3, r3, #1
 449:../reversi8_2019.c ****             if (tablero[i][j] == FICHA_BLANCA)
 4811              		.loc 1 449 0
 4812 1c24 0100000A 		beq	.L316
 453:../reversi8_2019.c ****             else if (tablero[i][j] == FICHA_NEGRA)
 4813              		.loc 1 453 0
 4814 1c28 020051E3 		cmp	r1, #2
 455:../reversi8_2019.c ****                 (*n)++;
 4815              		.loc 1 455 0
 4816 1c2c 01208202 		addeq	r2, r2, #1
 4817              	.L316:
 4818              	.LVL389:
 449:../reversi8_2019.c ****             if (tablero[i][j] == FICHA_BLANCA)
 4819              		.loc 1 449 0
 4820 1c30 3310D8E5 		ldrb	r1, [r8, #51]	@ zero_extendqisi2
 4821 1c34 010051E3 		cmp	r1, #1
 451:../reversi8_2019.c ****                 (*b)++;
 4822              		.loc 1 451 0
 4823 1c38 01308302 		addeq	r3, r3, #1
 449:../reversi8_2019.c ****             if (tablero[i][j] == FICHA_BLANCA)
 4824              		.loc 1 449 0
 4825 1c3c 0100000A 		beq	.L318
 453:../reversi8_2019.c ****             else if (tablero[i][j] == FICHA_NEGRA)
 4826              		.loc 1 453 0
 4827 1c40 020051E3 		cmp	r1, #2
 455:../reversi8_2019.c ****                 (*n)++;
 4828              		.loc 1 455 0
 4829 1c44 01208202 		addeq	r2, r2, #1
 4830              	.L318:
 4831              	.LVL390:
 449:../reversi8_2019.c ****             if (tablero[i][j] == FICHA_BLANCA)
 4832              		.loc 1 449 0
 4833 1c48 3410D8E5 		ldrb	r1, [r8, #52]	@ zero_extendqisi2
 4834 1c4c 010051E3 		cmp	r1, #1
 451:../reversi8_2019.c ****                 (*b)++;
 4835              		.loc 1 451 0
 4836 1c50 01308302 		addeq	r3, r3, #1
 449:../reversi8_2019.c ****             if (tablero[i][j] == FICHA_BLANCA)
 4837              		.loc 1 449 0
 4838 1c54 0100000A 		beq	.L320
 453:../reversi8_2019.c ****             else if (tablero[i][j] == FICHA_NEGRA)
 4839              		.loc 1 453 0
 4840 1c58 020051E3 		cmp	r1, #2
 455:../reversi8_2019.c ****                 (*n)++;
 4841              		.loc 1 455 0
 4842 1c5c 01208202 		addeq	r2, r2, #1
 4843              	.L320:
 4844              	.LVL391:
 449:../reversi8_2019.c ****             if (tablero[i][j] == FICHA_BLANCA)
 4845              		.loc 1 449 0
 4846 1c60 3510D8E5 		ldrb	r1, [r8, #53]	@ zero_extendqisi2
 4847 1c64 010051E3 		cmp	r1, #1
 451:../reversi8_2019.c ****                 (*b)++;
 4848              		.loc 1 451 0
 4849 1c68 01308302 		addeq	r3, r3, #1
 449:../reversi8_2019.c ****             if (tablero[i][j] == FICHA_BLANCA)
 4850              		.loc 1 449 0
 4851 1c6c 0100000A 		beq	.L322
 453:../reversi8_2019.c ****             else if (tablero[i][j] == FICHA_NEGRA)
 4852              		.loc 1 453 0
 4853 1c70 020051E3 		cmp	r1, #2
 455:../reversi8_2019.c ****                 (*n)++;
 4854              		.loc 1 455 0
 4855 1c74 01208202 		addeq	r2, r2, #1
 4856              	.L322:
 4857              	.LVL392:
 449:../reversi8_2019.c ****             if (tablero[i][j] == FICHA_BLANCA)
 4858              		.loc 1 449 0
 4859 1c78 3610D8E5 		ldrb	r1, [r8, #54]	@ zero_extendqisi2
 4860 1c7c 010051E3 		cmp	r1, #1
 451:../reversi8_2019.c ****                 (*b)++;
 4861              		.loc 1 451 0
 4862 1c80 01308302 		addeq	r3, r3, #1
 449:../reversi8_2019.c ****             if (tablero[i][j] == FICHA_BLANCA)
 4863              		.loc 1 449 0
 4864 1c84 0100000A 		beq	.L324
 453:../reversi8_2019.c ****             else if (tablero[i][j] == FICHA_NEGRA)
 4865              		.loc 1 453 0
 4866 1c88 020051E3 		cmp	r1, #2
 455:../reversi8_2019.c ****                 (*n)++;
 4867              		.loc 1 455 0
 4868 1c8c 01208202 		addeq	r2, r2, #1
 4869              	.L324:
 4870              	.LVL393:
 449:../reversi8_2019.c ****             if (tablero[i][j] == FICHA_BLANCA)
 4871              		.loc 1 449 0
 4872 1c90 3710D8E5 		ldrb	r1, [r8, #55]	@ zero_extendqisi2
 4873 1c94 010051E3 		cmp	r1, #1
 451:../reversi8_2019.c ****                 (*b)++;
 4874              		.loc 1 451 0
 4875 1c98 01308302 		addeq	r3, r3, #1
 449:../reversi8_2019.c ****             if (tablero[i][j] == FICHA_BLANCA)
 4876              		.loc 1 449 0
 4877 1c9c 0100000A 		beq	.L326
 453:../reversi8_2019.c ****             else if (tablero[i][j] == FICHA_NEGRA)
 4878              		.loc 1 453 0
 4879 1ca0 020051E3 		cmp	r1, #2
 455:../reversi8_2019.c ****                 (*n)++;
 4880              		.loc 1 455 0
 4881 1ca4 01208202 		addeq	r2, r2, #1
 4882              	.L326:
 4883              	.LVL394:
 449:../reversi8_2019.c ****             if (tablero[i][j] == FICHA_BLANCA)
 4884              		.loc 1 449 0
 4885 1ca8 3810D8E5 		ldrb	r1, [r8, #56]	@ zero_extendqisi2
 4886 1cac 010051E3 		cmp	r1, #1
 451:../reversi8_2019.c ****                 (*b)++;
 4887              		.loc 1 451 0
 4888 1cb0 01308302 		addeq	r3, r3, #1
 449:../reversi8_2019.c ****             if (tablero[i][j] == FICHA_BLANCA)
 4889              		.loc 1 449 0
 4890 1cb4 0100000A 		beq	.L328
 453:../reversi8_2019.c ****             else if (tablero[i][j] == FICHA_NEGRA)
 4891              		.loc 1 453 0
 4892 1cb8 020051E3 		cmp	r1, #2
 455:../reversi8_2019.c ****                 (*n)++;
 4893              		.loc 1 455 0
 4894 1cbc 01208202 		addeq	r2, r2, #1
 4895              	.L328:
 4896              	.LVL395:
 449:../reversi8_2019.c ****             if (tablero[i][j] == FICHA_BLANCA)
 4897              		.loc 1 449 0
 4898 1cc0 3910D8E5 		ldrb	r1, [r8, #57]	@ zero_extendqisi2
 4899 1cc4 010051E3 		cmp	r1, #1
 451:../reversi8_2019.c ****                 (*b)++;
 4900              		.loc 1 451 0
 4901 1cc8 01308302 		addeq	r3, r3, #1
 449:../reversi8_2019.c ****             if (tablero[i][j] == FICHA_BLANCA)
 4902              		.loc 1 449 0
 4903 1ccc 0100000A 		beq	.L330
 453:../reversi8_2019.c ****             else if (tablero[i][j] == FICHA_NEGRA)
 4904              		.loc 1 453 0
 4905 1cd0 020051E3 		cmp	r1, #2
 455:../reversi8_2019.c ****                 (*n)++;
 4906              		.loc 1 455 0
 4907 1cd4 01208202 		addeq	r2, r2, #1
 4908              	.L330:
 4909              	.LVL396:
 449:../reversi8_2019.c ****             if (tablero[i][j] == FICHA_BLANCA)
 4910              		.loc 1 449 0
 4911 1cd8 3A10D8E5 		ldrb	r1, [r8, #58]	@ zero_extendqisi2
 4912 1cdc 010051E3 		cmp	r1, #1
 451:../reversi8_2019.c ****                 (*b)++;
 4913              		.loc 1 451 0
 4914 1ce0 01308302 		addeq	r3, r3, #1
 449:../reversi8_2019.c ****             if (tablero[i][j] == FICHA_BLANCA)
 4915              		.loc 1 449 0
 4916 1ce4 0100000A 		beq	.L332
 453:../reversi8_2019.c ****             else if (tablero[i][j] == FICHA_NEGRA)
 4917              		.loc 1 453 0
 4918 1ce8 020051E3 		cmp	r1, #2
 455:../reversi8_2019.c ****                 (*n)++;
 4919              		.loc 1 455 0
 4920 1cec 01208202 		addeq	r2, r2, #1
 4921              	.L332:
 4922              	.LVL397:
 449:../reversi8_2019.c ****             if (tablero[i][j] == FICHA_BLANCA)
 4923              		.loc 1 449 0
 4924 1cf0 3B10D8E5 		ldrb	r1, [r8, #59]	@ zero_extendqisi2
 4925 1cf4 010051E3 		cmp	r1, #1
 451:../reversi8_2019.c ****                 (*b)++;
 4926              		.loc 1 451 0
 4927 1cf8 01308302 		addeq	r3, r3, #1
 449:../reversi8_2019.c ****             if (tablero[i][j] == FICHA_BLANCA)
 4928              		.loc 1 449 0
 4929 1cfc 0100000A 		beq	.L334
 453:../reversi8_2019.c ****             else if (tablero[i][j] == FICHA_NEGRA)
 4930              		.loc 1 453 0
 4931 1d00 020051E3 		cmp	r1, #2
 455:../reversi8_2019.c ****                 (*n)++;
 4932              		.loc 1 455 0
 4933 1d04 01208202 		addeq	r2, r2, #1
 4934              	.L334:
 4935              	.LVL398:
 449:../reversi8_2019.c ****             if (tablero[i][j] == FICHA_BLANCA)
 4936              		.loc 1 449 0
 4937 1d08 3C10D8E5 		ldrb	r1, [r8, #60]	@ zero_extendqisi2
 4938 1d0c 010051E3 		cmp	r1, #1
 451:../reversi8_2019.c ****                 (*b)++;
 4939              		.loc 1 451 0
 4940 1d10 01308302 		addeq	r3, r3, #1
 449:../reversi8_2019.c ****             if (tablero[i][j] == FICHA_BLANCA)
 4941              		.loc 1 449 0
 4942 1d14 0100000A 		beq	.L336
 453:../reversi8_2019.c ****             else if (tablero[i][j] == FICHA_NEGRA)
 4943              		.loc 1 453 0
 4944 1d18 020051E3 		cmp	r1, #2
 455:../reversi8_2019.c ****                 (*n)++;
 4945              		.loc 1 455 0
 4946 1d1c 01208202 		addeq	r2, r2, #1
 4947              	.L336:
 4948              	.LVL399:
 449:../reversi8_2019.c ****             if (tablero[i][j] == FICHA_BLANCA)
 4949              		.loc 1 449 0
 4950 1d20 3D10D8E5 		ldrb	r1, [r8, #61]	@ zero_extendqisi2
 4951 1d24 010051E3 		cmp	r1, #1
 451:../reversi8_2019.c ****                 (*b)++;
 4952              		.loc 1 451 0
 4953 1d28 01308302 		addeq	r3, r3, #1
 449:../reversi8_2019.c ****             if (tablero[i][j] == FICHA_BLANCA)
 4954              		.loc 1 449 0
 4955 1d2c 0100000A 		beq	.L338
 453:../reversi8_2019.c ****             else if (tablero[i][j] == FICHA_NEGRA)
 4956              		.loc 1 453 0
 4957 1d30 020051E3 		cmp	r1, #2
 455:../reversi8_2019.c ****                 (*n)++;
 4958              		.loc 1 455 0
 4959 1d34 01208202 		addeq	r2, r2, #1
 4960              	.L338:
 4961              	.LVL400:
 449:../reversi8_2019.c ****             if (tablero[i][j] == FICHA_BLANCA)
 4962              		.loc 1 449 0
 4963 1d38 3E10D8E5 		ldrb	r1, [r8, #62]	@ zero_extendqisi2
 4964 1d3c 010051E3 		cmp	r1, #1
 451:../reversi8_2019.c ****                 (*b)++;
 4965              		.loc 1 451 0
 4966 1d40 01308302 		addeq	r3, r3, #1
 449:../reversi8_2019.c ****             if (tablero[i][j] == FICHA_BLANCA)
 4967              		.loc 1 449 0
 4968 1d44 0100000A 		beq	.L340
 453:../reversi8_2019.c ****             else if (tablero[i][j] == FICHA_NEGRA)
 4969              		.loc 1 453 0
 4970 1d48 020051E3 		cmp	r1, #2
 455:../reversi8_2019.c ****                 (*n)++;
 4971              		.loc 1 455 0
 4972 1d4c 01208202 		addeq	r2, r2, #1
 4973              	.L340:
 4974              	.LVL401:
 449:../reversi8_2019.c ****             if (tablero[i][j] == FICHA_BLANCA)
 4975              		.loc 1 449 0
 4976 1d50 3F10D8E5 		ldrb	r1, [r8, #63]	@ zero_extendqisi2
 4977 1d54 010051E3 		cmp	r1, #1
 451:../reversi8_2019.c ****                 (*b)++;
 4978              		.loc 1 451 0
 4979 1d58 01308302 		addeq	r3, r3, #1
 449:../reversi8_2019.c ****             if (tablero[i][j] == FICHA_BLANCA)
 4980              		.loc 1 449 0
 4981 1d5c 0100000A 		beq	.L342
 453:../reversi8_2019.c ****             else if (tablero[i][j] == FICHA_NEGRA)
 4982              		.loc 1 453 0
 4983 1d60 020051E3 		cmp	r1, #2
 455:../reversi8_2019.c ****                 (*n)++;
 4984              		.loc 1 455 0
 4985 1d64 01208202 		addeq	r2, r2, #1
 4986              	.L342:
 4987              	.LVL402:
 451:../reversi8_2019.c ****                 (*b)++;
 4988              		.loc 1 451 0
 4989 1d68 942088E5 		str	r2, [r8, #148]
 4990 1d6c 903088E5 		str	r3, [r8, #144]
 4991              	.LBE87:
 4992              	.LBE86:
 532:../reversi8_2019.c ****     }
 533:../reversi8_2019.c ****     contar(tablero, &blancas, &negras);
 534:../reversi8_2019.c **** }
 4993              		.loc 1 534 0
 4994 1d70 28D04BE2 		sub	sp, fp, #40
 4995 1d74 F06F9DE8 		ldmfd	sp, {r4, r5, r6, r7, r8, r9, sl, fp, sp, lr}
 4996 1d78 1EFF2FE1 		bx	lr
 4997              	.L365:
 4998              		.align	2
 4999              	.L364:
 5000 1d7c 10000000 		.word	.LANCHOR1+16
 5001 1d80 00000000 		.word	.LANCHOR0
 5002 1d84 48000000 		.word	.LANCHOR0+72
 5003 1d88 00000000 		.word	f
 5004 1d8c 00000000 		.word	done
 5005 1d90 00000000 		.word	c
 5006 1d94 00000000 		.word	.LANCHOR1
 5007              		.cfi_endproc
 5008              	.LFE18:
 5010              		.align	2
 5011              		.global	reversi8
 5013              	reversi8:
 5014              	.LFB19:
 535:../reversi8_2019.c **** 
 536:../reversi8_2019.c **** void reversi8()
 537:../reversi8_2019.c **** {
 5015              		.loc 1 537 0
 5016              		.cfi_startproc
 5017              		@ Function supports interworking.
 5018              		@ args = 0, pretend = 0, frame = 48
 5019              		@ frame_needed = 1, uses_anonymous_args = 0
 5020 1d98 0DC0A0E1 		mov	ip, sp
 5021              	.LCFI18:
 5022              		.cfi_def_cfa_register 12
 5023 1d9c F0DF2DE9 		stmfd	sp!, {r4, r5, r6, r7, r8, r9, sl, fp, ip, lr, pc}
 538:../reversi8_2019.c **** 	 ////////////////////////////////////////////////////////////////////
 539:../reversi8_2019.c **** 	 // Tablero candidatas: se usa para no explorar todas las posiciones del tablero
 540:../reversi8_2019.c **** 	// sólo se exploran las que están alrededor de las fichas colocadas
 541:../reversi8_2019.c **** 	 ////////////////////////////////////////////////////////////////////
 542:../reversi8_2019.c ****     jugada_valida = 0;
 5024              		.loc 1 542 0
 5025 1da0 7C4C9FE5 		ldr	r4, .L552
 5026              		.cfi_offset 14, -8
 5027              		.cfi_offset 13, -12
 5028              		.cfi_offset 11, -16
 5029              		.cfi_offset 10, -20
 5030              		.cfi_offset 9, -24
 5031              		.cfi_offset 8, -28
 5032              		.cfi_offset 7, -32
 5033              		.cfi_offset 6, -36
 5034              		.cfi_offset 5, -40
 5035              		.cfi_offset 4, -44
 537:../reversi8_2019.c **** {
 5036              		.loc 1 537 0
 5037 1da4 04B04CE2 		sub	fp, ip, #4
 5038              	.LCFI19:
 5039              		.cfi_def_cfa 11, 4
 5040 1da8 3CD04DE2 		sub	sp, sp, #60
 543:../reversi8_2019.c **** 	veces_pv = 0;
 544:../reversi8_2019.c **** 	t_pv = 0;
 545:../reversi8_2019.c ****     if(fin == 0)
 5041              		.loc 1 545 0
 5042 1dac 8C7094E5 		ldr	r7, [r4, #140]
 542:../reversi8_2019.c ****     jugada_valida = 0;
 5043              		.loc 1 542 0
 5044 1db0 0030A0E3 		mov	r3, #0
 5045              		.loc 1 545 0
 5046 1db4 030057E1 		cmp	r7, r3
 542:../reversi8_2019.c ****     jugada_valida = 0;
 5047              		.loc 1 542 0
 5048 1db8 883084E5 		str	r3, [r4, #136]
 543:../reversi8_2019.c **** 	veces_pv = 0;
 5049              		.loc 1 543 0
 5050 1dbc 443084E5 		str	r3, [r4, #68]
 544:../reversi8_2019.c **** 	t_pv = 0;
 5051              		.loc 1 544 0
 5052 1dc0 403084E5 		str	r3, [r4, #64]
 5053              		.loc 1 545 0
 5054 1dc4 8700001A 		bne	.L367
 546:../reversi8_2019.c ****     {
 547:../reversi8_2019.c ****         move = 0;
 548:../reversi8_2019.c ****         if(ready)
 5055              		.loc 1 548 0
 5056 1dc8 9C00D4E5 		ldrb	r0, [r4, #156]	@ zero_extendqisi2
 5057 1dcc 000050E3 		cmp	r0, #0
 547:../reversi8_2019.c ****         move = 0;
 5058              		.loc 1 547 0
 5059 1dd0 987084E5 		str	r7, [r4, #152]
 5060              		.loc 1 548 0
 5061 1dd4 8300000A 		beq	.L367
 549:../reversi8_2019.c ****         {
 550:../reversi8_2019.c ****         	ready = 0;
 5062              		.loc 1 550 0
 5063 1dd8 9C70C4E5 		strb	r7, [r4, #156]
 551:../reversi8_2019.c ****         	// si la fila o columna son 8 asumimos que el jugador no puede mover
 552:../reversi8_2019.c ****         	if (((fila) != DIM) && ((columna) != DIM))
 5064              		.loc 1 552 0
 5065 1ddc 9D10D4E5 		ldrb	r1, [r4, #157]	@ zero_extendqisi2
 5066 1de0 080051E3 		cmp	r1, #8
 5067 1de4 7F00000A 		beq	.L367
 5068              		.loc 1 552 0 is_stmt 0 discriminator 1
 5069 1de8 9E20D4E5 		ldrb	r2, [r4, #158]	@ zero_extendqisi2
 5070 1dec 080052E3 		cmp	r2, #8
 5071 1df0 7C00000A 		beq	.L367
 553:../reversi8_2019.c ****         	{
 554:../reversi8_2019.c ****         		tablero[fila][columna] = FICHA_NEGRA;
 5072              		.loc 1 554 0 is_stmt 1
 5073 1df4 9D00D4E5 		ldrb	r0, [r4, #157]	@ zero_extendqisi2
 5074 1df8 9E30D4E5 		ldrb	r3, [r4, #158]	@ zero_extendqisi2
 555:../reversi8_2019.c ****         		actualizar_tablero(tablero, fila, columna, FICHA_NEGRA);
 5075              		.loc 1 555 0
 5076 1dfc 9DC0D4E5 		ldrb	ip, [r4, #157]	@ zero_extendqisi2
 5077 1e00 9E60D4E5 		ldrb	r6, [r4, #158]	@ zero_extendqisi2
 554:../reversi8_2019.c ****         		tablero[fila][columna] = FICHA_NEGRA;
 5078              		.loc 1 554 0
 5079 1e04 0280A0E3 		mov	r8, #2
 5080 1e08 80E183E0 		add	lr, r3, r0, asl #3
 5081              		.loc 1 555 0
 5082 1e0c FFA00CE2 		and	sl, ip, #255
 5083 1e10 FF5006E2 		and	r5, r6, #255
 554:../reversi8_2019.c ****         		tablero[fila][columna] = FICHA_NEGRA;
 5084              		.loc 1 554 0
 5085 1e14 0E80C4E7 		strb	r8, [r4, lr]
 5086              		.loc 1 555 0
 5087 1e18 40A00BE5 		str	sl, [fp, #-64]
 5088 1e1c 44500BE5 		str	r5, [fp, #-68]
 5089              	.LVL403:
 5090 1e20 020000EA 		b	.L372
 5091              	.LVL404:
 5092              	.L369:
 5093              	.LBB100:
 5094              	.LBB101:
 354:../reversi8_2019.c ****     for (i = 0; i < DIM; i++) // 0 es Norte, 1 NE, 2 E ...
 5095              		.loc 1 354 0
 5096 1e24 017087E2 		add	r7, r7, #1
 5097              	.LVL405:
 5098 1e28 080057E3 		cmp	r7, #8
 5099 1e2c 6400000A 		beq	.L549
 5100              	.LVL406:
 5101              	.L372:
 356:../reversi8_2019.c ****         SF = vSF[i];
 5102              		.loc 1 356 0
 5103 1e30 F02B9FE5 		ldr	r2, .L552+4
 5104 1e34 0750D2E7 		ldrb	r5, [r2, r7]	@ zero_extendqisi2
 5105              	.LVL407:
 357:../reversi8_2019.c ****         SC = vSC[i];
 5106              		.loc 1 357 0
 5107 1e38 081082E2 		add	r1, r2, #8
 5108 1e3c 0760D1E7 		ldrb	r6, [r1, r7]	@ zero_extendqisi2
 5109              	.LVL408:
 360:../reversi8_2019.c ****         patron = patron_volteo(tablero, &flip, f, c, SF, SC, color);
 5110              		.loc 1 360 0
 5111 1e40 30004BE2 		sub	r0, fp, #48
 5112 1e44 40101BE5 		ldr	r1, [fp, #-64]
 5113 1e48 44201BE5 		ldr	r2, [fp, #-68]
 5114 1e4c 0530A0E1 		mov	r3, r5
 359:../reversi8_2019.c ****         flip = 0;
 5115              		.loc 1 359 0
 5116 1e50 00A0A0E3 		mov	sl, #0
 5117 1e54 30A00BE5 		str	sl, [fp, #-48]
 360:../reversi8_2019.c ****         patron = patron_volteo(tablero, &flip, f, c, SF, SC, color);
 5118              		.loc 1 360 0
 5119 1e58 40018DE8 		stmia	sp, {r6, r8}	@ phole stm
 5120 1e5c E8F8FFEB 		bl	patron_volteo.clone.2
 5121              	.LVL409:
 361:../reversi8_2019.c ****         if (patron == PATRON_ENCONTRADO )
 5122              		.loc 1 361 0
 5123 1e60 010050E3 		cmp	r0, #1
 5124 1e64 EEFFFF1A 		bne	.L369
 363:../reversi8_2019.c ****             voltear(tablero, f, c, SF, SC, flip, color);
 5125              		.loc 1 363 0
 5126 1e68 30C01BE5 		ldr	ip, [fp, #-48]
 5127              	.LBB103:
 5128              	.LBB105:
 336:../reversi8_2019.c ****     for (i = 0; i < n; i++)
 5129              		.loc 1 336 0
 5130 1e6c 0A005CE1 		cmp	ip, sl
 5131              	.LBE105:
 5132              	.LBE103:
 363:../reversi8_2019.c ****             voltear(tablero, f, c, SF, SC, flip, color);
 5133              		.loc 1 363 0
 5134 1e70 3CC00BE5 		str	ip, [fp, #-60]
 5135              	.LVL410:
 5136              	.LBB102:
 5137              	.LBB104:
 336:../reversi8_2019.c ****     for (i = 0; i < n; i++)
 5138              		.loc 1 336 0
 5139 1e74 4D0000DA 		ble	.L370
 338:../reversi8_2019.c ****         FA = FA + SF;
 5140              		.loc 1 338 0
 5141 1e78 44104BE2 		sub	r1, fp, #68
 5142 1e7c 060091E8 		ldmia	r1, {r1, r2}	@ phole ldm
 5143 1e80 053082E0 		add	r3, r2, r5
 339:../reversi8_2019.c ****         CA = CA + SC;
 5144              		.loc 1 339 0
 5145 1e84 06A081E0 		add	sl, r1, r6
 338:../reversi8_2019.c ****         FA = FA + SF;
 5146              		.loc 1 338 0
 5147 1e88 FF2003E2 		and	r2, r3, #255
 5148              	.LVL411:
 339:../reversi8_2019.c ****         CA = CA + SC;
 5149              		.loc 1 339 0
 5150 1e8c FF300AE2 		and	r3, sl, #255
 5151              	.LVL412:
 336:../reversi8_2019.c ****     for (i = 0; i < n; i++)
 5152              		.loc 1 336 0
 5153 1e90 3CA01BE5 		ldr	sl, [fp, #-60]
 5154 1e94 01E04CE2 		sub	lr, ip, #1
 5155 1e98 0A0050E1 		cmp	r0, sl
 340:../reversi8_2019.c ****         tablero[FA][CA] = color;
 5156              		.loc 1 340 0
 5157 1e9c 82C183E0 		add	ip, r3, r2, asl #3
 5158 1ea0 03100EE2 		and	r1, lr, #3
 5159 1ea4 0C80C4E7 		strb	r8, [r4, ip]
 336:../reversi8_2019.c ****     for (i = 0; i < n; i++)
 5160              		.loc 1 336 0
 5161 1ea8 4000000A 		beq	.L370
 5162 1eac 000051E3 		cmp	r1, #0
 5163 1eb0 1B00000A 		beq	.L548
 5164 1eb4 010051E3 		cmp	r1, #1
 5165 1eb8 0F00000A 		beq	.L543
 5166 1ebc 020051E3 		cmp	r1, #2
 5167 1ec0 0600000A 		beq	.L544
 339:../reversi8_2019.c ****         CA = CA + SC;
 5168              		.loc 1 339 0
 5169 1ec4 060083E0 		add	r0, r3, r6
 5170              	.LVL413:
 338:../reversi8_2019.c ****         FA = FA + SF;
 5171              		.loc 1 338 0
 5172 1ec8 051082E0 		add	r1, r2, r5
 339:../reversi8_2019.c ****         CA = CA + SC;
 5173              		.loc 1 339 0
 5174 1ecc FF3000E2 		and	r3, r0, #255
 338:../reversi8_2019.c ****         FA = FA + SF;
 5175              		.loc 1 338 0
 5176 1ed0 FF2001E2 		and	r2, r1, #255
 5177              	.LVL414:
 340:../reversi8_2019.c ****         tablero[FA][CA] = color;
 5178              		.loc 1 340 0
 5179 1ed4 82A183E0 		add	sl, r3, r2, asl #3
 5180 1ed8 0A80C4E7 		strb	r8, [r4, sl]
 336:../reversi8_2019.c ****     for (i = 0; i < n; i++)
 5181              		.loc 1 336 0
 5182 1edc 0800A0E1 		mov	r0, r8
 5183              	.LVL415:
 5184              	.L544:
 338:../reversi8_2019.c ****         FA = FA + SF;
 5185              		.loc 1 338 0
 5186 1ee0 05C082E0 		add	ip, r2, r5
 339:../reversi8_2019.c ****         CA = CA + SC;
 5187              		.loc 1 339 0
 5188 1ee4 063083E0 		add	r3, r3, r6
 338:../reversi8_2019.c ****         FA = FA + SF;
 5189              		.loc 1 338 0
 5190 1ee8 FF200CE2 		and	r2, ip, #255
 339:../reversi8_2019.c ****         CA = CA + SC;
 5191              		.loc 1 339 0
 5192 1eec FF3003E2 		and	r3, r3, #255
 340:../reversi8_2019.c ****         tablero[FA][CA] = color;
 5193              		.loc 1 340 0
 5194 1ef0 82E183E0 		add	lr, r3, r2, asl #3
 5195 1ef4 0E80C4E7 		strb	r8, [r4, lr]
 336:../reversi8_2019.c ****     for (i = 0; i < n; i++)
 5196              		.loc 1 336 0
 5197 1ef8 010080E2 		add	r0, r0, #1
 5198              	.L543:
 339:../reversi8_2019.c ****         CA = CA + SC;
 5199              		.loc 1 339 0
 5200 1efc 06A083E0 		add	sl, r3, r6
 5201 1f00 FF300AE2 		and	r3, sl, #255
 338:../reversi8_2019.c ****         FA = FA + SF;
 5202              		.loc 1 338 0
 5203 1f04 052082E0 		add	r2, r2, r5
 336:../reversi8_2019.c ****     for (i = 0; i < n; i++)
 5204              		.loc 1 336 0
 5205 1f08 3CA01BE5 		ldr	sl, [fp, #-60]
 338:../reversi8_2019.c ****         FA = FA + SF;
 5206              		.loc 1 338 0
 5207 1f0c FF2002E2 		and	r2, r2, #255
 336:../reversi8_2019.c ****     for (i = 0; i < n; i++)
 5208              		.loc 1 336 0
 5209 1f10 010080E2 		add	r0, r0, #1
 340:../reversi8_2019.c ****         tablero[FA][CA] = color;
 5210              		.loc 1 340 0
 5211 1f14 821183E0 		add	r1, r3, r2, asl #3
 336:../reversi8_2019.c ****     for (i = 0; i < n; i++)
 5212              		.loc 1 336 0
 5213 1f18 0A0050E1 		cmp	r0, sl
 340:../reversi8_2019.c ****         tablero[FA][CA] = color;
 5214              		.loc 1 340 0
 5215 1f1c 0180C4E7 		strb	r8, [r4, r1]
 336:../reversi8_2019.c ****     for (i = 0; i < n; i++)
 5216              		.loc 1 336 0
 5217 1f20 2200000A 		beq	.L370
 5218              	.L548:
 5219 1f24 48700BE5 		str	r7, [fp, #-72]
 5220              	.L371:
 339:../reversi8_2019.c ****         CA = CA + SC;
 5221              		.loc 1 339 0
 5222 1f28 06E083E0 		add	lr, r3, r6
 5223 1f2c FFE00EE2 		and	lr, lr, #255
 5224 1f30 06108EE0 		add	r1, lr, r6
 338:../reversi8_2019.c ****         FA = FA + SF;
 5225              		.loc 1 338 0
 5226 1f34 05A082E0 		add	sl, r2, r5
 339:../reversi8_2019.c ****         CA = CA + SC;
 5227              		.loc 1 339 0
 5228 1f38 FF1001E2 		and	r1, r1, #255
 338:../reversi8_2019.c ****         FA = FA + SF;
 5229              		.loc 1 338 0
 5230 1f3c FF200AE2 		and	r2, sl, #255
 339:../reversi8_2019.c ****         CA = CA + SC;
 5231              		.loc 1 339 0
 5232 1f40 067081E0 		add	r7, r1, r6
 5233 1f44 FFA007E2 		and	sl, r7, #255
 338:../reversi8_2019.c ****         FA = FA + SF;
 5234              		.loc 1 338 0
 5235 1f48 05C082E0 		add	ip, r2, r5
 5236 1f4c FFC00CE2 		and	ip, ip, #255
 339:../reversi8_2019.c ****         CA = CA + SC;
 5237              		.loc 1 339 0
 5238 1f50 38A00BE5 		str	sl, [fp, #-56]
 5239 1f54 06308AE0 		add	r3, sl, r6
 338:../reversi8_2019.c ****         FA = FA + SF;
 5240              		.loc 1 338 0
 5241 1f58 05908CE0 		add	r9, ip, r5
 340:../reversi8_2019.c ****         tablero[FA][CA] = color;
 5242              		.loc 1 340 0
 5243 1f5c 38A01BE5 		ldr	sl, [fp, #-56]
 338:../reversi8_2019.c ****         FA = FA + SF;
 5244              		.loc 1 338 0
 5245 1f60 58200BE5 		str	r2, [fp, #-88]
 5246 1f64 FF9009E2 		and	r9, r9, #255
 5247 1f68 052089E0 		add	r2, r9, r5
 340:../reversi8_2019.c ****         tablero[FA][CA] = color;
 5248              		.loc 1 340 0
 5249 1f6c 58701BE5 		ldr	r7, [fp, #-88]
 5250 1f70 89918AE0 		add	r9, sl, r9, asl #3
 336:../reversi8_2019.c ****     for (i = 0; i < n; i++)
 5251              		.loc 1 336 0
 5252 1f74 3CA01BE5 		ldr	sl, [fp, #-60]
 339:../reversi8_2019.c ****         CA = CA + SC;
 5253              		.loc 1 339 0
 5254 1f78 50300BE5 		str	r3, [fp, #-80]
 338:../reversi8_2019.c ****         FA = FA + SF;
 5255              		.loc 1 338 0
 5256 1f7c FF2002E2 		and	r2, r2, #255
 339:../reversi8_2019.c ****         CA = CA + SC;
 5257              		.loc 1 339 0
 5258 1f80 FF3003E2 		and	r3, r3, #255
 336:../reversi8_2019.c ****     for (i = 0; i < n; i++)
 5259              		.loc 1 336 0
 5260 1f84 040080E2 		add	r0, r0, #4
 340:../reversi8_2019.c ****         tablero[FA][CA] = color;
 5261              		.loc 1 340 0
 5262 1f88 87718EE0 		add	r7, lr, r7, asl #3
 336:../reversi8_2019.c ****     for (i = 0; i < n; i++)
 5263              		.loc 1 336 0
 5264 1f8c 0A0050E1 		cmp	r0, sl
 340:../reversi8_2019.c ****         tablero[FA][CA] = color;
 5265              		.loc 1 340 0
 5266 1f90 8CE181E0 		add	lr, r1, ip, asl #3
 5267 1f94 82C183E0 		add	ip, r3, r2, asl #3
 5268 1f98 0780C4E7 		strb	r8, [r4, r7]
 5269 1f9c 0E80C4E7 		strb	r8, [r4, lr]
 5270 1fa0 0980C4E7 		strb	r8, [r4, r9]
 5271 1fa4 0C80C4E7 		strb	r8, [r4, ip]
 336:../reversi8_2019.c ****     for (i = 0; i < n; i++)
 5272              		.loc 1 336 0
 5273 1fa8 DEFFFF1A 		bne	.L371
 5274 1fac 48701BE5 		ldr	r7, [fp, #-72]
 5275              	.L370:
 5276              	.LBE104:
 5277              	.LBE102:
 354:../reversi8_2019.c ****     for (i = 0; i < DIM; i++) // 0 es Norte, 1 NE, 2 E ...
 5278              		.loc 1 354 0
 5279 1fb0 017087E2 		add	r7, r7, #1
 5280              	.LVL416:
 364:../reversi8_2019.c ****             jugada_valida = 1;          //TODO explicar
 5281              		.loc 1 364 0
 5282 1fb4 0150A0E3 		mov	r5, #1
 5283              	.LVL417:
 354:../reversi8_2019.c ****     for (i = 0; i < DIM; i++) // 0 es Norte, 1 NE, 2 E ...
 5284              		.loc 1 354 0
 5285 1fb8 080057E3 		cmp	r7, #8
 364:../reversi8_2019.c ****             jugada_valida = 1;          //TODO explicar
 5286              		.loc 1 364 0
 5287 1fbc 885084E5 		str	r5, [r4, #136]
 354:../reversi8_2019.c ****     for (i = 0; i < DIM; i++) // 0 es Norte, 1 NE, 2 E ...
 5288              		.loc 1 354 0
 5289 1fc0 9AFFFF1A 		bne	.L372
 5290              	.LVL418:
 5291              	.L549:
 5292              	.LBE101:
 5293              	.LBE100:
 556:../reversi8_2019.c ****                 if(jugada_valida != 1)
 5294              		.loc 1 556 0
 5295 1fc4 886094E5 		ldr	r6, [r4, #136]
 5296              	.LVL419:
 5297 1fc8 010056E3 		cmp	r6, #1
 5298 1fcc 505A9FE5 		ldr	r5, .L552
 5299 1fd0 8C01000A 		beq	.L373
 557:../reversi8_2019.c ****                 {
 558:../reversi8_2019.c ****                     tablero[fila][columna] = CASILLA_VACIA;
 5300              		.loc 1 558 0
 5301 1fd4 9DC0D5E5 		ldrb	ip, [r5, #157]	@ zero_extendqisi2
 5302 1fd8 9E10D5E5 		ldrb	r1, [r5, #158]	@ zero_extendqisi2
 5303 1fdc 0000A0E3 		mov	r0, #0
 5304 1fe0 8C3181E0 		add	r3, r1, ip, asl #3
 5305 1fe4 0300C5E7 		strb	r0, [r5, r3]
 5306              	.LVL420:
 5307              	.L367:
 5308              	.LBB109:
 5309              	.LBB110:
 449:../reversi8_2019.c ****             if (tablero[i][j] == FICHA_BLANCA)
 5310              		.loc 1 449 0
 5311 1fe8 0010D4E5 		ldrb	r1, [r4, #0]	@ zero_extendqisi2
 441:../reversi8_2019.c ****     *b = 0;
 5312              		.loc 1 441 0
 5313 1fec 0020A0E3 		mov	r2, #0
 5314              	.LVL421:
 449:../reversi8_2019.c ****             if (tablero[i][j] == FICHA_BLANCA)
 5315              		.loc 1 449 0
 5316 1ff0 010051E3 		cmp	r1, #1
 441:../reversi8_2019.c ****     *b = 0;
 5317              		.loc 1 441 0
 5318 1ff4 0230A0E1 		mov	r3, r2
 5319              	.LVL422:
 451:../reversi8_2019.c ****                 (*b)++;
 5320              		.loc 1 451 0
 5321 1ff8 0130A001 		moveq	r3, r1
 449:../reversi8_2019.c ****             if (tablero[i][j] == FICHA_BLANCA)
 5322              		.loc 1 449 0
 5323 1ffc 0200000A 		beq	.L386
 455:../reversi8_2019.c ****                 (*n)++;
 5324              		.loc 1 455 0
 5325 2000 020041E2 		sub	r0, r1, #2
 5326 2004 002070E2 		rsbs	r2, r0, #0
 5327 2008 0020A2E0 		adc	r2, r2, r0
 5328              	.L386:
 5329              	.LVL423:
 449:../reversi8_2019.c ****             if (tablero[i][j] == FICHA_BLANCA)
 5330              		.loc 1 449 0
 5331 200c 0110D4E5 		ldrb	r1, [r4, #1]	@ zero_extendqisi2
 5332 2010 010051E3 		cmp	r1, #1
 451:../reversi8_2019.c ****                 (*b)++;
 5333              		.loc 1 451 0
 5334 2014 01308302 		addeq	r3, r3, #1
 449:../reversi8_2019.c ****             if (tablero[i][j] == FICHA_BLANCA)
 5335              		.loc 1 449 0
 5336 2018 0100000A 		beq	.L388
 453:../reversi8_2019.c ****             else if (tablero[i][j] == FICHA_NEGRA)
 5337              		.loc 1 453 0
 5338 201c 020051E3 		cmp	r1, #2
 455:../reversi8_2019.c ****                 (*n)++;
 5339              		.loc 1 455 0
 5340 2020 01208202 		addeq	r2, r2, #1
 5341              	.L388:
 5342              	.LVL424:
 449:../reversi8_2019.c ****             if (tablero[i][j] == FICHA_BLANCA)
 5343              		.loc 1 449 0
 5344 2024 0210D4E5 		ldrb	r1, [r4, #2]	@ zero_extendqisi2
 5345 2028 010051E3 		cmp	r1, #1
 451:../reversi8_2019.c ****                 (*b)++;
 5346              		.loc 1 451 0
 5347 202c 01308302 		addeq	r3, r3, #1
 449:../reversi8_2019.c ****             if (tablero[i][j] == FICHA_BLANCA)
 5348              		.loc 1 449 0
 5349 2030 0100000A 		beq	.L390
 453:../reversi8_2019.c ****             else if (tablero[i][j] == FICHA_NEGRA)
 5350              		.loc 1 453 0
 5351 2034 020051E3 		cmp	r1, #2
 455:../reversi8_2019.c ****                 (*n)++;
 5352              		.loc 1 455 0
 5353 2038 01208202 		addeq	r2, r2, #1
 5354              	.L390:
 5355              	.LVL425:
 449:../reversi8_2019.c ****             if (tablero[i][j] == FICHA_BLANCA)
 5356              		.loc 1 449 0
 5357 203c 0310D4E5 		ldrb	r1, [r4, #3]	@ zero_extendqisi2
 5358 2040 010051E3 		cmp	r1, #1
 451:../reversi8_2019.c ****                 (*b)++;
 5359              		.loc 1 451 0
 5360 2044 01308302 		addeq	r3, r3, #1
 449:../reversi8_2019.c ****             if (tablero[i][j] == FICHA_BLANCA)
 5361              		.loc 1 449 0
 5362 2048 0100000A 		beq	.L392
 453:../reversi8_2019.c ****             else if (tablero[i][j] == FICHA_NEGRA)
 5363              		.loc 1 453 0
 5364 204c 020051E3 		cmp	r1, #2
 455:../reversi8_2019.c ****                 (*n)++;
 5365              		.loc 1 455 0
 5366 2050 01208202 		addeq	r2, r2, #1
 5367              	.L392:
 5368              	.LVL426:
 449:../reversi8_2019.c ****             if (tablero[i][j] == FICHA_BLANCA)
 5369              		.loc 1 449 0
 5370 2054 0410D4E5 		ldrb	r1, [r4, #4]	@ zero_extendqisi2
 5371 2058 010051E3 		cmp	r1, #1
 451:../reversi8_2019.c ****                 (*b)++;
 5372              		.loc 1 451 0
 5373 205c 01308302 		addeq	r3, r3, #1
 449:../reversi8_2019.c ****             if (tablero[i][j] == FICHA_BLANCA)
 5374              		.loc 1 449 0
 5375 2060 0100000A 		beq	.L394
 453:../reversi8_2019.c ****             else if (tablero[i][j] == FICHA_NEGRA)
 5376              		.loc 1 453 0
 5377 2064 020051E3 		cmp	r1, #2
 455:../reversi8_2019.c ****                 (*n)++;
 5378              		.loc 1 455 0
 5379 2068 01208202 		addeq	r2, r2, #1
 5380              	.L394:
 5381              	.LVL427:
 449:../reversi8_2019.c ****             if (tablero[i][j] == FICHA_BLANCA)
 5382              		.loc 1 449 0
 5383 206c 0510D4E5 		ldrb	r1, [r4, #5]	@ zero_extendqisi2
 5384 2070 010051E3 		cmp	r1, #1
 451:../reversi8_2019.c ****                 (*b)++;
 5385              		.loc 1 451 0
 5386 2074 01308302 		addeq	r3, r3, #1
 449:../reversi8_2019.c ****             if (tablero[i][j] == FICHA_BLANCA)
 5387              		.loc 1 449 0
 5388 2078 0100000A 		beq	.L396
 453:../reversi8_2019.c ****             else if (tablero[i][j] == FICHA_NEGRA)
 5389              		.loc 1 453 0
 5390 207c 020051E3 		cmp	r1, #2
 455:../reversi8_2019.c ****                 (*n)++;
 5391              		.loc 1 455 0
 5392 2080 01208202 		addeq	r2, r2, #1
 5393              	.L396:
 5394              	.LVL428:
 449:../reversi8_2019.c ****             if (tablero[i][j] == FICHA_BLANCA)
 5395              		.loc 1 449 0
 5396 2084 0610D4E5 		ldrb	r1, [r4, #6]	@ zero_extendqisi2
 5397 2088 010051E3 		cmp	r1, #1
 451:../reversi8_2019.c ****                 (*b)++;
 5398              		.loc 1 451 0
 5399 208c 01308302 		addeq	r3, r3, #1
 449:../reversi8_2019.c ****             if (tablero[i][j] == FICHA_BLANCA)
 5400              		.loc 1 449 0
 5401 2090 0100000A 		beq	.L398
 453:../reversi8_2019.c ****             else if (tablero[i][j] == FICHA_NEGRA)
 5402              		.loc 1 453 0
 5403 2094 020051E3 		cmp	r1, #2
 455:../reversi8_2019.c ****                 (*n)++;
 5404              		.loc 1 455 0
 5405 2098 01208202 		addeq	r2, r2, #1
 5406              	.L398:
 5407              	.LVL429:
 449:../reversi8_2019.c ****             if (tablero[i][j] == FICHA_BLANCA)
 5408              		.loc 1 449 0
 5409 209c 0710D4E5 		ldrb	r1, [r4, #7]	@ zero_extendqisi2
 5410 20a0 010051E3 		cmp	r1, #1
 451:../reversi8_2019.c ****                 (*b)++;
 5411              		.loc 1 451 0
 5412 20a4 01308302 		addeq	r3, r3, #1
 449:../reversi8_2019.c ****             if (tablero[i][j] == FICHA_BLANCA)
 5413              		.loc 1 449 0
 5414 20a8 0100000A 		beq	.L400
 453:../reversi8_2019.c ****             else if (tablero[i][j] == FICHA_NEGRA)
 5415              		.loc 1 453 0
 5416 20ac 020051E3 		cmp	r1, #2
 455:../reversi8_2019.c ****                 (*n)++;
 5417              		.loc 1 455 0
 5418 20b0 01208202 		addeq	r2, r2, #1
 5419              	.L400:
 5420              	.LVL430:
 449:../reversi8_2019.c ****             if (tablero[i][j] == FICHA_BLANCA)
 5421              		.loc 1 449 0
 5422 20b4 0810D4E5 		ldrb	r1, [r4, #8]	@ zero_extendqisi2
 5423 20b8 010051E3 		cmp	r1, #1
 451:../reversi8_2019.c ****                 (*b)++;
 5424              		.loc 1 451 0
 5425 20bc 01308302 		addeq	r3, r3, #1
 449:../reversi8_2019.c ****             if (tablero[i][j] == FICHA_BLANCA)
 5426              		.loc 1 449 0
 5427 20c0 0100000A 		beq	.L402
 453:../reversi8_2019.c ****             else if (tablero[i][j] == FICHA_NEGRA)
 5428              		.loc 1 453 0
 5429 20c4 020051E3 		cmp	r1, #2
 455:../reversi8_2019.c ****                 (*n)++;
 5430              		.loc 1 455 0
 5431 20c8 01208202 		addeq	r2, r2, #1
 5432              	.L402:
 5433              	.LVL431:
 449:../reversi8_2019.c ****             if (tablero[i][j] == FICHA_BLANCA)
 5434              		.loc 1 449 0
 5435 20cc 0910D4E5 		ldrb	r1, [r4, #9]	@ zero_extendqisi2
 5436 20d0 010051E3 		cmp	r1, #1
 451:../reversi8_2019.c ****                 (*b)++;
 5437              		.loc 1 451 0
 5438 20d4 01308302 		addeq	r3, r3, #1
 449:../reversi8_2019.c ****             if (tablero[i][j] == FICHA_BLANCA)
 5439              		.loc 1 449 0
 5440 20d8 0100000A 		beq	.L404
 453:../reversi8_2019.c ****             else if (tablero[i][j] == FICHA_NEGRA)
 5441              		.loc 1 453 0
 5442 20dc 020051E3 		cmp	r1, #2
 455:../reversi8_2019.c ****                 (*n)++;
 5443              		.loc 1 455 0
 5444 20e0 01208202 		addeq	r2, r2, #1
 5445              	.L404:
 5446              	.LVL432:
 449:../reversi8_2019.c ****             if (tablero[i][j] == FICHA_BLANCA)
 5447              		.loc 1 449 0
 5448 20e4 0A10D4E5 		ldrb	r1, [r4, #10]	@ zero_extendqisi2
 5449 20e8 010051E3 		cmp	r1, #1
 451:../reversi8_2019.c ****                 (*b)++;
 5450              		.loc 1 451 0
 5451 20ec 01308302 		addeq	r3, r3, #1
 449:../reversi8_2019.c ****             if (tablero[i][j] == FICHA_BLANCA)
 5452              		.loc 1 449 0
 5453 20f0 0100000A 		beq	.L406
 453:../reversi8_2019.c ****             else if (tablero[i][j] == FICHA_NEGRA)
 5454              		.loc 1 453 0
 5455 20f4 020051E3 		cmp	r1, #2
 455:../reversi8_2019.c ****                 (*n)++;
 5456              		.loc 1 455 0
 5457 20f8 01208202 		addeq	r2, r2, #1
 5458              	.L406:
 5459              	.LVL433:
 449:../reversi8_2019.c ****             if (tablero[i][j] == FICHA_BLANCA)
 5460              		.loc 1 449 0
 5461 20fc 0B10D4E5 		ldrb	r1, [r4, #11]	@ zero_extendqisi2
 5462 2100 010051E3 		cmp	r1, #1
 451:../reversi8_2019.c ****                 (*b)++;
 5463              		.loc 1 451 0
 5464 2104 01308302 		addeq	r3, r3, #1
 449:../reversi8_2019.c ****             if (tablero[i][j] == FICHA_BLANCA)
 5465              		.loc 1 449 0
 5466 2108 0100000A 		beq	.L408
 453:../reversi8_2019.c ****             else if (tablero[i][j] == FICHA_NEGRA)
 5467              		.loc 1 453 0
 5468 210c 020051E3 		cmp	r1, #2
 455:../reversi8_2019.c ****                 (*n)++;
 5469              		.loc 1 455 0
 5470 2110 01208202 		addeq	r2, r2, #1
 5471              	.L408:
 5472              	.LVL434:
 449:../reversi8_2019.c ****             if (tablero[i][j] == FICHA_BLANCA)
 5473              		.loc 1 449 0
 5474 2114 0C10D4E5 		ldrb	r1, [r4, #12]	@ zero_extendqisi2
 5475 2118 010051E3 		cmp	r1, #1
 451:../reversi8_2019.c ****                 (*b)++;
 5476              		.loc 1 451 0
 5477 211c 01308302 		addeq	r3, r3, #1
 449:../reversi8_2019.c ****             if (tablero[i][j] == FICHA_BLANCA)
 5478              		.loc 1 449 0
 5479 2120 0100000A 		beq	.L410
 453:../reversi8_2019.c ****             else if (tablero[i][j] == FICHA_NEGRA)
 5480              		.loc 1 453 0
 5481 2124 020051E3 		cmp	r1, #2
 455:../reversi8_2019.c ****                 (*n)++;
 5482              		.loc 1 455 0
 5483 2128 01208202 		addeq	r2, r2, #1
 5484              	.L410:
 5485              	.LVL435:
 449:../reversi8_2019.c ****             if (tablero[i][j] == FICHA_BLANCA)
 5486              		.loc 1 449 0
 5487 212c 0D10D4E5 		ldrb	r1, [r4, #13]	@ zero_extendqisi2
 5488 2130 010051E3 		cmp	r1, #1
 451:../reversi8_2019.c ****                 (*b)++;
 5489              		.loc 1 451 0
 5490 2134 01308302 		addeq	r3, r3, #1
 449:../reversi8_2019.c ****             if (tablero[i][j] == FICHA_BLANCA)
 5491              		.loc 1 449 0
 5492 2138 0100000A 		beq	.L412
 453:../reversi8_2019.c ****             else if (tablero[i][j] == FICHA_NEGRA)
 5493              		.loc 1 453 0
 5494 213c 020051E3 		cmp	r1, #2
 455:../reversi8_2019.c ****                 (*n)++;
 5495              		.loc 1 455 0
 5496 2140 01208202 		addeq	r2, r2, #1
 5497              	.L412:
 5498              	.LVL436:
 449:../reversi8_2019.c ****             if (tablero[i][j] == FICHA_BLANCA)
 5499              		.loc 1 449 0
 5500 2144 0E10D4E5 		ldrb	r1, [r4, #14]	@ zero_extendqisi2
 5501 2148 010051E3 		cmp	r1, #1
 451:../reversi8_2019.c ****                 (*b)++;
 5502              		.loc 1 451 0
 5503 214c 01308302 		addeq	r3, r3, #1
 449:../reversi8_2019.c ****             if (tablero[i][j] == FICHA_BLANCA)
 5504              		.loc 1 449 0
 5505 2150 0100000A 		beq	.L414
 453:../reversi8_2019.c ****             else if (tablero[i][j] == FICHA_NEGRA)
 5506              		.loc 1 453 0
 5507 2154 020051E3 		cmp	r1, #2
 455:../reversi8_2019.c ****                 (*n)++;
 5508              		.loc 1 455 0
 5509 2158 01208202 		addeq	r2, r2, #1
 5510              	.L414:
 5511              	.LVL437:
 449:../reversi8_2019.c ****             if (tablero[i][j] == FICHA_BLANCA)
 5512              		.loc 1 449 0
 5513 215c 0F10D4E5 		ldrb	r1, [r4, #15]	@ zero_extendqisi2
 5514 2160 010051E3 		cmp	r1, #1
 451:../reversi8_2019.c ****                 (*b)++;
 5515              		.loc 1 451 0
 5516 2164 01308302 		addeq	r3, r3, #1
 449:../reversi8_2019.c ****             if (tablero[i][j] == FICHA_BLANCA)
 5517              		.loc 1 449 0
 5518 2168 0100000A 		beq	.L416
 453:../reversi8_2019.c ****             else if (tablero[i][j] == FICHA_NEGRA)
 5519              		.loc 1 453 0
 5520 216c 020051E3 		cmp	r1, #2
 455:../reversi8_2019.c ****                 (*n)++;
 5521              		.loc 1 455 0
 5522 2170 01208202 		addeq	r2, r2, #1
 5523              	.L416:
 5524              	.LVL438:
 449:../reversi8_2019.c ****             if (tablero[i][j] == FICHA_BLANCA)
 5525              		.loc 1 449 0
 5526 2174 1010D4E5 		ldrb	r1, [r4, #16]	@ zero_extendqisi2
 5527 2178 010051E3 		cmp	r1, #1
 451:../reversi8_2019.c ****                 (*b)++;
 5528              		.loc 1 451 0
 5529 217c 01308302 		addeq	r3, r3, #1
 449:../reversi8_2019.c ****             if (tablero[i][j] == FICHA_BLANCA)
 5530              		.loc 1 449 0
 5531 2180 0100000A 		beq	.L418
 453:../reversi8_2019.c ****             else if (tablero[i][j] == FICHA_NEGRA)
 5532              		.loc 1 453 0
 5533 2184 020051E3 		cmp	r1, #2
 455:../reversi8_2019.c ****                 (*n)++;
 5534              		.loc 1 455 0
 5535 2188 01208202 		addeq	r2, r2, #1
 5536              	.L418:
 5537              	.LVL439:
 449:../reversi8_2019.c ****             if (tablero[i][j] == FICHA_BLANCA)
 5538              		.loc 1 449 0
 5539 218c 1110D4E5 		ldrb	r1, [r4, #17]	@ zero_extendqisi2
 5540 2190 010051E3 		cmp	r1, #1
 451:../reversi8_2019.c ****                 (*b)++;
 5541              		.loc 1 451 0
 5542 2194 01308302 		addeq	r3, r3, #1
 449:../reversi8_2019.c ****             if (tablero[i][j] == FICHA_BLANCA)
 5543              		.loc 1 449 0
 5544 2198 0100000A 		beq	.L420
 453:../reversi8_2019.c ****             else if (tablero[i][j] == FICHA_NEGRA)
 5545              		.loc 1 453 0
 5546 219c 020051E3 		cmp	r1, #2
 455:../reversi8_2019.c ****                 (*n)++;
 5547              		.loc 1 455 0
 5548 21a0 01208202 		addeq	r2, r2, #1
 5549              	.L420:
 5550              	.LVL440:
 449:../reversi8_2019.c ****             if (tablero[i][j] == FICHA_BLANCA)
 5551              		.loc 1 449 0
 5552 21a4 1210D4E5 		ldrb	r1, [r4, #18]	@ zero_extendqisi2
 5553 21a8 010051E3 		cmp	r1, #1
 451:../reversi8_2019.c ****                 (*b)++;
 5554              		.loc 1 451 0
 5555 21ac 01308302 		addeq	r3, r3, #1
 449:../reversi8_2019.c ****             if (tablero[i][j] == FICHA_BLANCA)
 5556              		.loc 1 449 0
 5557 21b0 0100000A 		beq	.L422
 453:../reversi8_2019.c ****             else if (tablero[i][j] == FICHA_NEGRA)
 5558              		.loc 1 453 0
 5559 21b4 020051E3 		cmp	r1, #2
 455:../reversi8_2019.c ****                 (*n)++;
 5560              		.loc 1 455 0
 5561 21b8 01208202 		addeq	r2, r2, #1
 5562              	.L422:
 5563              	.LVL441:
 449:../reversi8_2019.c ****             if (tablero[i][j] == FICHA_BLANCA)
 5564              		.loc 1 449 0
 5565 21bc 1310D4E5 		ldrb	r1, [r4, #19]	@ zero_extendqisi2
 5566 21c0 010051E3 		cmp	r1, #1
 451:../reversi8_2019.c ****                 (*b)++;
 5567              		.loc 1 451 0
 5568 21c4 01308302 		addeq	r3, r3, #1
 449:../reversi8_2019.c ****             if (tablero[i][j] == FICHA_BLANCA)
 5569              		.loc 1 449 0
 5570 21c8 0100000A 		beq	.L424
 453:../reversi8_2019.c ****             else if (tablero[i][j] == FICHA_NEGRA)
 5571              		.loc 1 453 0
 5572 21cc 020051E3 		cmp	r1, #2
 455:../reversi8_2019.c ****                 (*n)++;
 5573              		.loc 1 455 0
 5574 21d0 01208202 		addeq	r2, r2, #1
 5575              	.L424:
 5576              	.LVL442:
 449:../reversi8_2019.c ****             if (tablero[i][j] == FICHA_BLANCA)
 5577              		.loc 1 449 0
 5578 21d4 1410D4E5 		ldrb	r1, [r4, #20]	@ zero_extendqisi2
 5579 21d8 010051E3 		cmp	r1, #1
 451:../reversi8_2019.c ****                 (*b)++;
 5580              		.loc 1 451 0
 5581 21dc 01308302 		addeq	r3, r3, #1
 449:../reversi8_2019.c ****             if (tablero[i][j] == FICHA_BLANCA)
 5582              		.loc 1 449 0
 5583 21e0 0100000A 		beq	.L426
 453:../reversi8_2019.c ****             else if (tablero[i][j] == FICHA_NEGRA)
 5584              		.loc 1 453 0
 5585 21e4 020051E3 		cmp	r1, #2
 455:../reversi8_2019.c ****                 (*n)++;
 5586              		.loc 1 455 0
 5587 21e8 01208202 		addeq	r2, r2, #1
 5588              	.L426:
 5589              	.LVL443:
 449:../reversi8_2019.c ****             if (tablero[i][j] == FICHA_BLANCA)
 5590              		.loc 1 449 0
 5591 21ec 1510D4E5 		ldrb	r1, [r4, #21]	@ zero_extendqisi2
 5592 21f0 010051E3 		cmp	r1, #1
 451:../reversi8_2019.c ****                 (*b)++;
 5593              		.loc 1 451 0
 5594 21f4 01308302 		addeq	r3, r3, #1
 449:../reversi8_2019.c ****             if (tablero[i][j] == FICHA_BLANCA)
 5595              		.loc 1 449 0
 5596 21f8 0100000A 		beq	.L428
 453:../reversi8_2019.c ****             else if (tablero[i][j] == FICHA_NEGRA)
 5597              		.loc 1 453 0
 5598 21fc 020051E3 		cmp	r1, #2
 455:../reversi8_2019.c ****                 (*n)++;
 5599              		.loc 1 455 0
 5600 2200 01208202 		addeq	r2, r2, #1
 5601              	.L428:
 5602              	.LVL444:
 449:../reversi8_2019.c ****             if (tablero[i][j] == FICHA_BLANCA)
 5603              		.loc 1 449 0
 5604 2204 1610D4E5 		ldrb	r1, [r4, #22]	@ zero_extendqisi2
 5605 2208 010051E3 		cmp	r1, #1
 451:../reversi8_2019.c ****                 (*b)++;
 5606              		.loc 1 451 0
 5607 220c 01308302 		addeq	r3, r3, #1
 449:../reversi8_2019.c ****             if (tablero[i][j] == FICHA_BLANCA)
 5608              		.loc 1 449 0
 5609 2210 0100000A 		beq	.L430
 453:../reversi8_2019.c ****             else if (tablero[i][j] == FICHA_NEGRA)
 5610              		.loc 1 453 0
 5611 2214 020051E3 		cmp	r1, #2
 455:../reversi8_2019.c ****                 (*n)++;
 5612              		.loc 1 455 0
 5613 2218 01208202 		addeq	r2, r2, #1
 5614              	.L430:
 5615              	.LVL445:
 449:../reversi8_2019.c ****             if (tablero[i][j] == FICHA_BLANCA)
 5616              		.loc 1 449 0
 5617 221c 1710D4E5 		ldrb	r1, [r4, #23]	@ zero_extendqisi2
 5618 2220 010051E3 		cmp	r1, #1
 451:../reversi8_2019.c ****                 (*b)++;
 5619              		.loc 1 451 0
 5620 2224 01308302 		addeq	r3, r3, #1
 449:../reversi8_2019.c ****             if (tablero[i][j] == FICHA_BLANCA)
 5621              		.loc 1 449 0
 5622 2228 0100000A 		beq	.L432
 453:../reversi8_2019.c ****             else if (tablero[i][j] == FICHA_NEGRA)
 5623              		.loc 1 453 0
 5624 222c 020051E3 		cmp	r1, #2
 455:../reversi8_2019.c ****                 (*n)++;
 5625              		.loc 1 455 0
 5626 2230 01208202 		addeq	r2, r2, #1
 5627              	.L432:
 5628              	.LVL446:
 449:../reversi8_2019.c ****             if (tablero[i][j] == FICHA_BLANCA)
 5629              		.loc 1 449 0
 5630 2234 1810D4E5 		ldrb	r1, [r4, #24]	@ zero_extendqisi2
 5631 2238 010051E3 		cmp	r1, #1
 451:../reversi8_2019.c ****                 (*b)++;
 5632              		.loc 1 451 0
 5633 223c 01308302 		addeq	r3, r3, #1
 449:../reversi8_2019.c ****             if (tablero[i][j] == FICHA_BLANCA)
 5634              		.loc 1 449 0
 5635 2240 0100000A 		beq	.L434
 453:../reversi8_2019.c ****             else if (tablero[i][j] == FICHA_NEGRA)
 5636              		.loc 1 453 0
 5637 2244 020051E3 		cmp	r1, #2
 455:../reversi8_2019.c ****                 (*n)++;
 5638              		.loc 1 455 0
 5639 2248 01208202 		addeq	r2, r2, #1
 5640              	.L434:
 5641              	.LVL447:
 449:../reversi8_2019.c ****             if (tablero[i][j] == FICHA_BLANCA)
 5642              		.loc 1 449 0
 5643 224c 1910D4E5 		ldrb	r1, [r4, #25]	@ zero_extendqisi2
 5644 2250 010051E3 		cmp	r1, #1
 451:../reversi8_2019.c ****                 (*b)++;
 5645              		.loc 1 451 0
 5646 2254 01308302 		addeq	r3, r3, #1
 449:../reversi8_2019.c ****             if (tablero[i][j] == FICHA_BLANCA)
 5647              		.loc 1 449 0
 5648 2258 0100000A 		beq	.L436
 453:../reversi8_2019.c ****             else if (tablero[i][j] == FICHA_NEGRA)
 5649              		.loc 1 453 0
 5650 225c 020051E3 		cmp	r1, #2
 455:../reversi8_2019.c ****                 (*n)++;
 5651              		.loc 1 455 0
 5652 2260 01208202 		addeq	r2, r2, #1
 5653              	.L436:
 5654              	.LVL448:
 449:../reversi8_2019.c ****             if (tablero[i][j] == FICHA_BLANCA)
 5655              		.loc 1 449 0
 5656 2264 1A10D4E5 		ldrb	r1, [r4, #26]	@ zero_extendqisi2
 5657 2268 010051E3 		cmp	r1, #1
 451:../reversi8_2019.c ****                 (*b)++;
 5658              		.loc 1 451 0
 5659 226c 01308302 		addeq	r3, r3, #1
 449:../reversi8_2019.c ****             if (tablero[i][j] == FICHA_BLANCA)
 5660              		.loc 1 449 0
 5661 2270 0100000A 		beq	.L438
 453:../reversi8_2019.c ****             else if (tablero[i][j] == FICHA_NEGRA)
 5662              		.loc 1 453 0
 5663 2274 020051E3 		cmp	r1, #2
 455:../reversi8_2019.c ****                 (*n)++;
 5664              		.loc 1 455 0
 5665 2278 01208202 		addeq	r2, r2, #1
 5666              	.L438:
 5667              	.LVL449:
 449:../reversi8_2019.c ****             if (tablero[i][j] == FICHA_BLANCA)
 5668              		.loc 1 449 0
 5669 227c 1B10D4E5 		ldrb	r1, [r4, #27]	@ zero_extendqisi2
 5670 2280 010051E3 		cmp	r1, #1
 451:../reversi8_2019.c ****                 (*b)++;
 5671              		.loc 1 451 0
 5672 2284 01308302 		addeq	r3, r3, #1
 449:../reversi8_2019.c ****             if (tablero[i][j] == FICHA_BLANCA)
 5673              		.loc 1 449 0
 5674 2288 0100000A 		beq	.L440
 453:../reversi8_2019.c ****             else if (tablero[i][j] == FICHA_NEGRA)
 5675              		.loc 1 453 0
 5676 228c 020051E3 		cmp	r1, #2
 455:../reversi8_2019.c ****                 (*n)++;
 5677              		.loc 1 455 0
 5678 2290 01208202 		addeq	r2, r2, #1
 5679              	.L440:
 5680              	.LVL450:
 449:../reversi8_2019.c ****             if (tablero[i][j] == FICHA_BLANCA)
 5681              		.loc 1 449 0
 5682 2294 1C10D4E5 		ldrb	r1, [r4, #28]	@ zero_extendqisi2
 5683 2298 010051E3 		cmp	r1, #1
 451:../reversi8_2019.c ****                 (*b)++;
 5684              		.loc 1 451 0
 5685 229c 01308302 		addeq	r3, r3, #1
 449:../reversi8_2019.c ****             if (tablero[i][j] == FICHA_BLANCA)
 5686              		.loc 1 449 0
 5687 22a0 0100000A 		beq	.L442
 453:../reversi8_2019.c ****             else if (tablero[i][j] == FICHA_NEGRA)
 5688              		.loc 1 453 0
 5689 22a4 020051E3 		cmp	r1, #2
 455:../reversi8_2019.c ****                 (*n)++;
 5690              		.loc 1 455 0
 5691 22a8 01208202 		addeq	r2, r2, #1
 5692              	.L442:
 5693              	.LVL451:
 449:../reversi8_2019.c ****             if (tablero[i][j] == FICHA_BLANCA)
 5694              		.loc 1 449 0
 5695 22ac 1D10D4E5 		ldrb	r1, [r4, #29]	@ zero_extendqisi2
 5696 22b0 010051E3 		cmp	r1, #1
 451:../reversi8_2019.c ****                 (*b)++;
 5697              		.loc 1 451 0
 5698 22b4 01308302 		addeq	r3, r3, #1
 449:../reversi8_2019.c ****             if (tablero[i][j] == FICHA_BLANCA)
 5699              		.loc 1 449 0
 5700 22b8 0100000A 		beq	.L444
 453:../reversi8_2019.c ****             else if (tablero[i][j] == FICHA_NEGRA)
 5701              		.loc 1 453 0
 5702 22bc 020051E3 		cmp	r1, #2
 455:../reversi8_2019.c ****                 (*n)++;
 5703              		.loc 1 455 0
 5704 22c0 01208202 		addeq	r2, r2, #1
 5705              	.L444:
 5706              	.LVL452:
 449:../reversi8_2019.c ****             if (tablero[i][j] == FICHA_BLANCA)
 5707              		.loc 1 449 0
 5708 22c4 1E10D4E5 		ldrb	r1, [r4, #30]	@ zero_extendqisi2
 5709 22c8 010051E3 		cmp	r1, #1
 451:../reversi8_2019.c ****                 (*b)++;
 5710              		.loc 1 451 0
 5711 22cc 01308302 		addeq	r3, r3, #1
 449:../reversi8_2019.c ****             if (tablero[i][j] == FICHA_BLANCA)
 5712              		.loc 1 449 0
 5713 22d0 0100000A 		beq	.L446
 453:../reversi8_2019.c ****             else if (tablero[i][j] == FICHA_NEGRA)
 5714              		.loc 1 453 0
 5715 22d4 020051E3 		cmp	r1, #2
 455:../reversi8_2019.c ****                 (*n)++;
 5716              		.loc 1 455 0
 5717 22d8 01208202 		addeq	r2, r2, #1
 5718              	.L446:
 5719              	.LVL453:
 449:../reversi8_2019.c ****             if (tablero[i][j] == FICHA_BLANCA)
 5720              		.loc 1 449 0
 5721 22dc 1F10D4E5 		ldrb	r1, [r4, #31]	@ zero_extendqisi2
 5722 22e0 010051E3 		cmp	r1, #1
 451:../reversi8_2019.c ****                 (*b)++;
 5723              		.loc 1 451 0
 5724 22e4 01308302 		addeq	r3, r3, #1
 449:../reversi8_2019.c ****             if (tablero[i][j] == FICHA_BLANCA)
 5725              		.loc 1 449 0
 5726 22e8 0100000A 		beq	.L448
 453:../reversi8_2019.c ****             else if (tablero[i][j] == FICHA_NEGRA)
 5727              		.loc 1 453 0
 5728 22ec 020051E3 		cmp	r1, #2
 455:../reversi8_2019.c ****                 (*n)++;
 5729              		.loc 1 455 0
 5730 22f0 01208202 		addeq	r2, r2, #1
 5731              	.L448:
 5732              	.LVL454:
 449:../reversi8_2019.c ****             if (tablero[i][j] == FICHA_BLANCA)
 5733              		.loc 1 449 0
 5734 22f4 2010D4E5 		ldrb	r1, [r4, #32]	@ zero_extendqisi2
 5735 22f8 010051E3 		cmp	r1, #1
 451:../reversi8_2019.c ****                 (*b)++;
 5736              		.loc 1 451 0
 5737 22fc 01308302 		addeq	r3, r3, #1
 449:../reversi8_2019.c ****             if (tablero[i][j] == FICHA_BLANCA)
 5738              		.loc 1 449 0
 5739 2300 0100000A 		beq	.L450
 453:../reversi8_2019.c ****             else if (tablero[i][j] == FICHA_NEGRA)
 5740              		.loc 1 453 0
 5741 2304 020051E3 		cmp	r1, #2
 455:../reversi8_2019.c ****                 (*n)++;
 5742              		.loc 1 455 0
 5743 2308 01208202 		addeq	r2, r2, #1
 5744              	.L450:
 5745              	.LVL455:
 449:../reversi8_2019.c ****             if (tablero[i][j] == FICHA_BLANCA)
 5746              		.loc 1 449 0
 5747 230c 2110D4E5 		ldrb	r1, [r4, #33]	@ zero_extendqisi2
 5748 2310 010051E3 		cmp	r1, #1
 451:../reversi8_2019.c ****                 (*b)++;
 5749              		.loc 1 451 0
 5750 2314 01308302 		addeq	r3, r3, #1
 449:../reversi8_2019.c ****             if (tablero[i][j] == FICHA_BLANCA)
 5751              		.loc 1 449 0
 5752 2318 0100000A 		beq	.L452
 453:../reversi8_2019.c ****             else if (tablero[i][j] == FICHA_NEGRA)
 5753              		.loc 1 453 0
 5754 231c 020051E3 		cmp	r1, #2
 455:../reversi8_2019.c ****                 (*n)++;
 5755              		.loc 1 455 0
 5756 2320 01208202 		addeq	r2, r2, #1
 5757              	.L452:
 5758              	.LVL456:
 449:../reversi8_2019.c ****             if (tablero[i][j] == FICHA_BLANCA)
 5759              		.loc 1 449 0
 5760 2324 2210D4E5 		ldrb	r1, [r4, #34]	@ zero_extendqisi2
 5761 2328 010051E3 		cmp	r1, #1
 451:../reversi8_2019.c ****                 (*b)++;
 5762              		.loc 1 451 0
 5763 232c 01308302 		addeq	r3, r3, #1
 449:../reversi8_2019.c ****             if (tablero[i][j] == FICHA_BLANCA)
 5764              		.loc 1 449 0
 5765 2330 0100000A 		beq	.L454
 453:../reversi8_2019.c ****             else if (tablero[i][j] == FICHA_NEGRA)
 5766              		.loc 1 453 0
 5767 2334 020051E3 		cmp	r1, #2
 455:../reversi8_2019.c ****                 (*n)++;
 5768              		.loc 1 455 0
 5769 2338 01208202 		addeq	r2, r2, #1
 5770              	.L454:
 5771              	.LVL457:
 449:../reversi8_2019.c ****             if (tablero[i][j] == FICHA_BLANCA)
 5772              		.loc 1 449 0
 5773 233c 2310D4E5 		ldrb	r1, [r4, #35]	@ zero_extendqisi2
 5774 2340 010051E3 		cmp	r1, #1
 451:../reversi8_2019.c ****                 (*b)++;
 5775              		.loc 1 451 0
 5776 2344 01308302 		addeq	r3, r3, #1
 449:../reversi8_2019.c ****             if (tablero[i][j] == FICHA_BLANCA)
 5777              		.loc 1 449 0
 5778 2348 0100000A 		beq	.L456
 453:../reversi8_2019.c ****             else if (tablero[i][j] == FICHA_NEGRA)
 5779              		.loc 1 453 0
 5780 234c 020051E3 		cmp	r1, #2
 455:../reversi8_2019.c ****                 (*n)++;
 5781              		.loc 1 455 0
 5782 2350 01208202 		addeq	r2, r2, #1
 5783              	.L456:
 5784              	.LVL458:
 449:../reversi8_2019.c ****             if (tablero[i][j] == FICHA_BLANCA)
 5785              		.loc 1 449 0
 5786 2354 2410D4E5 		ldrb	r1, [r4, #36]	@ zero_extendqisi2
 5787 2358 010051E3 		cmp	r1, #1
 451:../reversi8_2019.c ****                 (*b)++;
 5788              		.loc 1 451 0
 5789 235c 01308302 		addeq	r3, r3, #1
 449:../reversi8_2019.c ****             if (tablero[i][j] == FICHA_BLANCA)
 5790              		.loc 1 449 0
 5791 2360 0100000A 		beq	.L458
 453:../reversi8_2019.c ****             else if (tablero[i][j] == FICHA_NEGRA)
 5792              		.loc 1 453 0
 5793 2364 020051E3 		cmp	r1, #2
 455:../reversi8_2019.c ****                 (*n)++;
 5794              		.loc 1 455 0
 5795 2368 01208202 		addeq	r2, r2, #1
 5796              	.L458:
 5797              	.LVL459:
 449:../reversi8_2019.c ****             if (tablero[i][j] == FICHA_BLANCA)
 5798              		.loc 1 449 0
 5799 236c 2510D4E5 		ldrb	r1, [r4, #37]	@ zero_extendqisi2
 5800 2370 010051E3 		cmp	r1, #1
 451:../reversi8_2019.c ****                 (*b)++;
 5801              		.loc 1 451 0
 5802 2374 01308302 		addeq	r3, r3, #1
 449:../reversi8_2019.c ****             if (tablero[i][j] == FICHA_BLANCA)
 5803              		.loc 1 449 0
 5804 2378 0100000A 		beq	.L460
 453:../reversi8_2019.c ****             else if (tablero[i][j] == FICHA_NEGRA)
 5805              		.loc 1 453 0
 5806 237c 020051E3 		cmp	r1, #2
 455:../reversi8_2019.c ****                 (*n)++;
 5807              		.loc 1 455 0
 5808 2380 01208202 		addeq	r2, r2, #1
 5809              	.L460:
 5810              	.LVL460:
 449:../reversi8_2019.c ****             if (tablero[i][j] == FICHA_BLANCA)
 5811              		.loc 1 449 0
 5812 2384 2610D4E5 		ldrb	r1, [r4, #38]	@ zero_extendqisi2
 5813 2388 010051E3 		cmp	r1, #1
 451:../reversi8_2019.c ****                 (*b)++;
 5814              		.loc 1 451 0
 5815 238c 01308302 		addeq	r3, r3, #1
 449:../reversi8_2019.c ****             if (tablero[i][j] == FICHA_BLANCA)
 5816              		.loc 1 449 0
 5817 2390 0100000A 		beq	.L462
 453:../reversi8_2019.c ****             else if (tablero[i][j] == FICHA_NEGRA)
 5818              		.loc 1 453 0
 5819 2394 020051E3 		cmp	r1, #2
 455:../reversi8_2019.c ****                 (*n)++;
 5820              		.loc 1 455 0
 5821 2398 01208202 		addeq	r2, r2, #1
 5822              	.L462:
 5823              	.LVL461:
 449:../reversi8_2019.c ****             if (tablero[i][j] == FICHA_BLANCA)
 5824              		.loc 1 449 0
 5825 239c 2710D4E5 		ldrb	r1, [r4, #39]	@ zero_extendqisi2
 5826 23a0 010051E3 		cmp	r1, #1
 451:../reversi8_2019.c ****                 (*b)++;
 5827              		.loc 1 451 0
 5828 23a4 01308302 		addeq	r3, r3, #1
 449:../reversi8_2019.c ****             if (tablero[i][j] == FICHA_BLANCA)
 5829              		.loc 1 449 0
 5830 23a8 0100000A 		beq	.L464
 453:../reversi8_2019.c ****             else if (tablero[i][j] == FICHA_NEGRA)
 5831              		.loc 1 453 0
 5832 23ac 020051E3 		cmp	r1, #2
 455:../reversi8_2019.c ****                 (*n)++;
 5833              		.loc 1 455 0
 5834 23b0 01208202 		addeq	r2, r2, #1
 5835              	.L464:
 5836              	.LVL462:
 449:../reversi8_2019.c ****             if (tablero[i][j] == FICHA_BLANCA)
 5837              		.loc 1 449 0
 5838 23b4 2810D4E5 		ldrb	r1, [r4, #40]	@ zero_extendqisi2
 5839 23b8 010051E3 		cmp	r1, #1
 451:../reversi8_2019.c ****                 (*b)++;
 5840              		.loc 1 451 0
 5841 23bc 01308302 		addeq	r3, r3, #1
 449:../reversi8_2019.c ****             if (tablero[i][j] == FICHA_BLANCA)
 5842              		.loc 1 449 0
 5843 23c0 0100000A 		beq	.L466
 453:../reversi8_2019.c ****             else if (tablero[i][j] == FICHA_NEGRA)
 5844              		.loc 1 453 0
 5845 23c4 020051E3 		cmp	r1, #2
 455:../reversi8_2019.c ****                 (*n)++;
 5846              		.loc 1 455 0
 5847 23c8 01208202 		addeq	r2, r2, #1
 5848              	.L466:
 5849              	.LVL463:
 449:../reversi8_2019.c ****             if (tablero[i][j] == FICHA_BLANCA)
 5850              		.loc 1 449 0
 5851 23cc 2910D4E5 		ldrb	r1, [r4, #41]	@ zero_extendqisi2
 5852 23d0 010051E3 		cmp	r1, #1
 451:../reversi8_2019.c ****                 (*b)++;
 5853              		.loc 1 451 0
 5854 23d4 01308302 		addeq	r3, r3, #1
 449:../reversi8_2019.c ****             if (tablero[i][j] == FICHA_BLANCA)
 5855              		.loc 1 449 0
 5856 23d8 0100000A 		beq	.L468
 453:../reversi8_2019.c ****             else if (tablero[i][j] == FICHA_NEGRA)
 5857              		.loc 1 453 0
 5858 23dc 020051E3 		cmp	r1, #2
 455:../reversi8_2019.c ****                 (*n)++;
 5859              		.loc 1 455 0
 5860 23e0 01208202 		addeq	r2, r2, #1
 5861              	.L468:
 5862              	.LVL464:
 449:../reversi8_2019.c ****             if (tablero[i][j] == FICHA_BLANCA)
 5863              		.loc 1 449 0
 5864 23e4 2A10D4E5 		ldrb	r1, [r4, #42]	@ zero_extendqisi2
 5865 23e8 010051E3 		cmp	r1, #1
 451:../reversi8_2019.c ****                 (*b)++;
 5866              		.loc 1 451 0
 5867 23ec 01308302 		addeq	r3, r3, #1
 449:../reversi8_2019.c ****             if (tablero[i][j] == FICHA_BLANCA)
 5868              		.loc 1 449 0
 5869 23f0 0100000A 		beq	.L470
 453:../reversi8_2019.c ****             else if (tablero[i][j] == FICHA_NEGRA)
 5870              		.loc 1 453 0
 5871 23f4 020051E3 		cmp	r1, #2
 455:../reversi8_2019.c ****                 (*n)++;
 5872              		.loc 1 455 0
 5873 23f8 01208202 		addeq	r2, r2, #1
 5874              	.L470:
 5875              	.LVL465:
 449:../reversi8_2019.c ****             if (tablero[i][j] == FICHA_BLANCA)
 5876              		.loc 1 449 0
 5877 23fc 2B10D4E5 		ldrb	r1, [r4, #43]	@ zero_extendqisi2
 5878 2400 010051E3 		cmp	r1, #1
 451:../reversi8_2019.c ****                 (*b)++;
 5879              		.loc 1 451 0
 5880 2404 01308302 		addeq	r3, r3, #1
 449:../reversi8_2019.c ****             if (tablero[i][j] == FICHA_BLANCA)
 5881              		.loc 1 449 0
 5882 2408 0100000A 		beq	.L472
 453:../reversi8_2019.c ****             else if (tablero[i][j] == FICHA_NEGRA)
 5883              		.loc 1 453 0
 5884 240c 020051E3 		cmp	r1, #2
 455:../reversi8_2019.c ****                 (*n)++;
 5885              		.loc 1 455 0
 5886 2410 01208202 		addeq	r2, r2, #1
 5887              	.L472:
 5888              	.LVL466:
 449:../reversi8_2019.c ****             if (tablero[i][j] == FICHA_BLANCA)
 5889              		.loc 1 449 0
 5890 2414 2C10D4E5 		ldrb	r1, [r4, #44]	@ zero_extendqisi2
 5891 2418 010051E3 		cmp	r1, #1
 451:../reversi8_2019.c ****                 (*b)++;
 5892              		.loc 1 451 0
 5893 241c 01308302 		addeq	r3, r3, #1
 449:../reversi8_2019.c ****             if (tablero[i][j] == FICHA_BLANCA)
 5894              		.loc 1 449 0
 5895 2420 0100000A 		beq	.L474
 453:../reversi8_2019.c ****             else if (tablero[i][j] == FICHA_NEGRA)
 5896              		.loc 1 453 0
 5897 2424 020051E3 		cmp	r1, #2
 455:../reversi8_2019.c ****                 (*n)++;
 5898              		.loc 1 455 0
 5899 2428 01208202 		addeq	r2, r2, #1
 5900              	.L474:
 5901              	.LVL467:
 449:../reversi8_2019.c ****             if (tablero[i][j] == FICHA_BLANCA)
 5902              		.loc 1 449 0
 5903 242c 2D10D4E5 		ldrb	r1, [r4, #45]	@ zero_extendqisi2
 5904 2430 010051E3 		cmp	r1, #1
 451:../reversi8_2019.c ****                 (*b)++;
 5905              		.loc 1 451 0
 5906 2434 01308302 		addeq	r3, r3, #1
 449:../reversi8_2019.c ****             if (tablero[i][j] == FICHA_BLANCA)
 5907              		.loc 1 449 0
 5908 2438 0100000A 		beq	.L476
 453:../reversi8_2019.c ****             else if (tablero[i][j] == FICHA_NEGRA)
 5909              		.loc 1 453 0
 5910 243c 020051E3 		cmp	r1, #2
 455:../reversi8_2019.c ****                 (*n)++;
 5911              		.loc 1 455 0
 5912 2440 01208202 		addeq	r2, r2, #1
 5913              	.L476:
 5914              	.LVL468:
 449:../reversi8_2019.c ****             if (tablero[i][j] == FICHA_BLANCA)
 5915              		.loc 1 449 0
 5916 2444 2E10D4E5 		ldrb	r1, [r4, #46]	@ zero_extendqisi2
 5917 2448 010051E3 		cmp	r1, #1
 451:../reversi8_2019.c ****                 (*b)++;
 5918              		.loc 1 451 0
 5919 244c 01308302 		addeq	r3, r3, #1
 449:../reversi8_2019.c ****             if (tablero[i][j] == FICHA_BLANCA)
 5920              		.loc 1 449 0
 5921 2450 0100000A 		beq	.L478
 453:../reversi8_2019.c ****             else if (tablero[i][j] == FICHA_NEGRA)
 5922              		.loc 1 453 0
 5923 2454 020051E3 		cmp	r1, #2
 455:../reversi8_2019.c ****                 (*n)++;
 5924              		.loc 1 455 0
 5925 2458 01208202 		addeq	r2, r2, #1
 5926              	.L478:
 5927              	.LVL469:
 449:../reversi8_2019.c ****             if (tablero[i][j] == FICHA_BLANCA)
 5928              		.loc 1 449 0
 5929 245c 2F10D4E5 		ldrb	r1, [r4, #47]	@ zero_extendqisi2
 5930 2460 010051E3 		cmp	r1, #1
 451:../reversi8_2019.c ****                 (*b)++;
 5931              		.loc 1 451 0
 5932 2464 01308302 		addeq	r3, r3, #1
 449:../reversi8_2019.c ****             if (tablero[i][j] == FICHA_BLANCA)
 5933              		.loc 1 449 0
 5934 2468 0100000A 		beq	.L480
 453:../reversi8_2019.c ****             else if (tablero[i][j] == FICHA_NEGRA)
 5935              		.loc 1 453 0
 5936 246c 020051E3 		cmp	r1, #2
 455:../reversi8_2019.c ****                 (*n)++;
 5937              		.loc 1 455 0
 5938 2470 01208202 		addeq	r2, r2, #1
 5939              	.L480:
 5940              	.LVL470:
 449:../reversi8_2019.c ****             if (tablero[i][j] == FICHA_BLANCA)
 5941              		.loc 1 449 0
 5942 2474 3010D4E5 		ldrb	r1, [r4, #48]	@ zero_extendqisi2
 5943 2478 010051E3 		cmp	r1, #1
 451:../reversi8_2019.c ****                 (*b)++;
 5944              		.loc 1 451 0
 5945 247c 01308302 		addeq	r3, r3, #1
 449:../reversi8_2019.c ****             if (tablero[i][j] == FICHA_BLANCA)
 5946              		.loc 1 449 0
 5947 2480 0100000A 		beq	.L482
 453:../reversi8_2019.c ****             else if (tablero[i][j] == FICHA_NEGRA)
 5948              		.loc 1 453 0
 5949 2484 020051E3 		cmp	r1, #2
 455:../reversi8_2019.c ****                 (*n)++;
 5950              		.loc 1 455 0
 5951 2488 01208202 		addeq	r2, r2, #1
 5952              	.L482:
 5953              	.LVL471:
 449:../reversi8_2019.c ****             if (tablero[i][j] == FICHA_BLANCA)
 5954              		.loc 1 449 0
 5955 248c 3110D4E5 		ldrb	r1, [r4, #49]	@ zero_extendqisi2
 5956 2490 010051E3 		cmp	r1, #1
 451:../reversi8_2019.c ****                 (*b)++;
 5957              		.loc 1 451 0
 5958 2494 01308302 		addeq	r3, r3, #1
 449:../reversi8_2019.c ****             if (tablero[i][j] == FICHA_BLANCA)
 5959              		.loc 1 449 0
 5960 2498 0100000A 		beq	.L484
 453:../reversi8_2019.c ****             else if (tablero[i][j] == FICHA_NEGRA)
 5961              		.loc 1 453 0
 5962 249c 020051E3 		cmp	r1, #2
 455:../reversi8_2019.c ****                 (*n)++;
 5963              		.loc 1 455 0
 5964 24a0 01208202 		addeq	r2, r2, #1
 5965              	.L484:
 5966              	.LVL472:
 449:../reversi8_2019.c ****             if (tablero[i][j] == FICHA_BLANCA)
 5967              		.loc 1 449 0
 5968 24a4 3210D4E5 		ldrb	r1, [r4, #50]	@ zero_extendqisi2
 5969 24a8 010051E3 		cmp	r1, #1
 451:../reversi8_2019.c ****                 (*b)++;
 5970              		.loc 1 451 0
 5971 24ac 01308302 		addeq	r3, r3, #1
 449:../reversi8_2019.c ****             if (tablero[i][j] == FICHA_BLANCA)
 5972              		.loc 1 449 0
 5973 24b0 0100000A 		beq	.L486
 453:../reversi8_2019.c ****             else if (tablero[i][j] == FICHA_NEGRA)
 5974              		.loc 1 453 0
 5975 24b4 020051E3 		cmp	r1, #2
 455:../reversi8_2019.c ****                 (*n)++;
 5976              		.loc 1 455 0
 5977 24b8 01208202 		addeq	r2, r2, #1
 5978              	.L486:
 5979              	.LVL473:
 449:../reversi8_2019.c ****             if (tablero[i][j] == FICHA_BLANCA)
 5980              		.loc 1 449 0
 5981 24bc 3310D4E5 		ldrb	r1, [r4, #51]	@ zero_extendqisi2
 5982 24c0 010051E3 		cmp	r1, #1
 451:../reversi8_2019.c ****                 (*b)++;
 5983              		.loc 1 451 0
 5984 24c4 01308302 		addeq	r3, r3, #1
 449:../reversi8_2019.c ****             if (tablero[i][j] == FICHA_BLANCA)
 5985              		.loc 1 449 0
 5986 24c8 0100000A 		beq	.L488
 453:../reversi8_2019.c ****             else if (tablero[i][j] == FICHA_NEGRA)
 5987              		.loc 1 453 0
 5988 24cc 020051E3 		cmp	r1, #2
 455:../reversi8_2019.c ****                 (*n)++;
 5989              		.loc 1 455 0
 5990 24d0 01208202 		addeq	r2, r2, #1
 5991              	.L488:
 5992              	.LVL474:
 449:../reversi8_2019.c ****             if (tablero[i][j] == FICHA_BLANCA)
 5993              		.loc 1 449 0
 5994 24d4 3410D4E5 		ldrb	r1, [r4, #52]	@ zero_extendqisi2
 5995 24d8 010051E3 		cmp	r1, #1
 451:../reversi8_2019.c ****                 (*b)++;
 5996              		.loc 1 451 0
 5997 24dc 01308302 		addeq	r3, r3, #1
 449:../reversi8_2019.c ****             if (tablero[i][j] == FICHA_BLANCA)
 5998              		.loc 1 449 0
 5999 24e0 0100000A 		beq	.L490
 453:../reversi8_2019.c ****             else if (tablero[i][j] == FICHA_NEGRA)
 6000              		.loc 1 453 0
 6001 24e4 020051E3 		cmp	r1, #2
 455:../reversi8_2019.c ****                 (*n)++;
 6002              		.loc 1 455 0
 6003 24e8 01208202 		addeq	r2, r2, #1
 6004              	.L490:
 6005              	.LVL475:
 449:../reversi8_2019.c ****             if (tablero[i][j] == FICHA_BLANCA)
 6006              		.loc 1 449 0
 6007 24ec 3510D4E5 		ldrb	r1, [r4, #53]	@ zero_extendqisi2
 6008 24f0 010051E3 		cmp	r1, #1
 451:../reversi8_2019.c ****                 (*b)++;
 6009              		.loc 1 451 0
 6010 24f4 01308302 		addeq	r3, r3, #1
 449:../reversi8_2019.c ****             if (tablero[i][j] == FICHA_BLANCA)
 6011              		.loc 1 449 0
 6012 24f8 0100000A 		beq	.L492
 453:../reversi8_2019.c ****             else if (tablero[i][j] == FICHA_NEGRA)
 6013              		.loc 1 453 0
 6014 24fc 020051E3 		cmp	r1, #2
 455:../reversi8_2019.c ****                 (*n)++;
 6015              		.loc 1 455 0
 6016 2500 01208202 		addeq	r2, r2, #1
 6017              	.L492:
 6018              	.LVL476:
 449:../reversi8_2019.c ****             if (tablero[i][j] == FICHA_BLANCA)
 6019              		.loc 1 449 0
 6020 2504 3610D4E5 		ldrb	r1, [r4, #54]	@ zero_extendqisi2
 6021 2508 010051E3 		cmp	r1, #1
 451:../reversi8_2019.c ****                 (*b)++;
 6022              		.loc 1 451 0
 6023 250c 01308302 		addeq	r3, r3, #1
 449:../reversi8_2019.c ****             if (tablero[i][j] == FICHA_BLANCA)
 6024              		.loc 1 449 0
 6025 2510 0100000A 		beq	.L494
 453:../reversi8_2019.c ****             else if (tablero[i][j] == FICHA_NEGRA)
 6026              		.loc 1 453 0
 6027 2514 020051E3 		cmp	r1, #2
 455:../reversi8_2019.c ****                 (*n)++;
 6028              		.loc 1 455 0
 6029 2518 01208202 		addeq	r2, r2, #1
 6030              	.L494:
 6031              	.LVL477:
 449:../reversi8_2019.c ****             if (tablero[i][j] == FICHA_BLANCA)
 6032              		.loc 1 449 0
 6033 251c 3710D4E5 		ldrb	r1, [r4, #55]	@ zero_extendqisi2
 6034 2520 010051E3 		cmp	r1, #1
 451:../reversi8_2019.c ****                 (*b)++;
 6035              		.loc 1 451 0
 6036 2524 01308302 		addeq	r3, r3, #1
 449:../reversi8_2019.c ****             if (tablero[i][j] == FICHA_BLANCA)
 6037              		.loc 1 449 0
 6038 2528 0100000A 		beq	.L496
 453:../reversi8_2019.c ****             else if (tablero[i][j] == FICHA_NEGRA)
 6039              		.loc 1 453 0
 6040 252c 020051E3 		cmp	r1, #2
 455:../reversi8_2019.c ****                 (*n)++;
 6041              		.loc 1 455 0
 6042 2530 01208202 		addeq	r2, r2, #1
 6043              	.L496:
 6044              	.LVL478:
 449:../reversi8_2019.c ****             if (tablero[i][j] == FICHA_BLANCA)
 6045              		.loc 1 449 0
 6046 2534 3810D4E5 		ldrb	r1, [r4, #56]	@ zero_extendqisi2
 6047 2538 010051E3 		cmp	r1, #1
 451:../reversi8_2019.c ****                 (*b)++;
 6048              		.loc 1 451 0
 6049 253c 01308302 		addeq	r3, r3, #1
 449:../reversi8_2019.c ****             if (tablero[i][j] == FICHA_BLANCA)
 6050              		.loc 1 449 0
 6051 2540 0100000A 		beq	.L498
 453:../reversi8_2019.c ****             else if (tablero[i][j] == FICHA_NEGRA)
 6052              		.loc 1 453 0
 6053 2544 020051E3 		cmp	r1, #2
 455:../reversi8_2019.c ****                 (*n)++;
 6054              		.loc 1 455 0
 6055 2548 01208202 		addeq	r2, r2, #1
 6056              	.L498:
 6057              	.LVL479:
 449:../reversi8_2019.c ****             if (tablero[i][j] == FICHA_BLANCA)
 6058              		.loc 1 449 0
 6059 254c 3910D4E5 		ldrb	r1, [r4, #57]	@ zero_extendqisi2
 6060 2550 010051E3 		cmp	r1, #1
 451:../reversi8_2019.c ****                 (*b)++;
 6061              		.loc 1 451 0
 6062 2554 01308302 		addeq	r3, r3, #1
 449:../reversi8_2019.c ****             if (tablero[i][j] == FICHA_BLANCA)
 6063              		.loc 1 449 0
 6064 2558 0100000A 		beq	.L500
 453:../reversi8_2019.c ****             else if (tablero[i][j] == FICHA_NEGRA)
 6065              		.loc 1 453 0
 6066 255c 020051E3 		cmp	r1, #2
 455:../reversi8_2019.c ****                 (*n)++;
 6067              		.loc 1 455 0
 6068 2560 01208202 		addeq	r2, r2, #1
 6069              	.L500:
 6070              	.LVL480:
 449:../reversi8_2019.c ****             if (tablero[i][j] == FICHA_BLANCA)
 6071              		.loc 1 449 0
 6072 2564 3A10D4E5 		ldrb	r1, [r4, #58]	@ zero_extendqisi2
 6073 2568 010051E3 		cmp	r1, #1
 451:../reversi8_2019.c ****                 (*b)++;
 6074              		.loc 1 451 0
 6075 256c 01308302 		addeq	r3, r3, #1
 449:../reversi8_2019.c ****             if (tablero[i][j] == FICHA_BLANCA)
 6076              		.loc 1 449 0
 6077 2570 0100000A 		beq	.L502
 453:../reversi8_2019.c ****             else if (tablero[i][j] == FICHA_NEGRA)
 6078              		.loc 1 453 0
 6079 2574 020051E3 		cmp	r1, #2
 455:../reversi8_2019.c ****                 (*n)++;
 6080              		.loc 1 455 0
 6081 2578 01208202 		addeq	r2, r2, #1
 6082              	.L502:
 6083              	.LVL481:
 449:../reversi8_2019.c ****             if (tablero[i][j] == FICHA_BLANCA)
 6084              		.loc 1 449 0
 6085 257c 3B10D4E5 		ldrb	r1, [r4, #59]	@ zero_extendqisi2
 6086 2580 010051E3 		cmp	r1, #1
 451:../reversi8_2019.c ****                 (*b)++;
 6087              		.loc 1 451 0
 6088 2584 01308302 		addeq	r3, r3, #1
 449:../reversi8_2019.c ****             if (tablero[i][j] == FICHA_BLANCA)
 6089              		.loc 1 449 0
 6090 2588 0100000A 		beq	.L504
 453:../reversi8_2019.c ****             else if (tablero[i][j] == FICHA_NEGRA)
 6091              		.loc 1 453 0
 6092 258c 020051E3 		cmp	r1, #2
 455:../reversi8_2019.c ****                 (*n)++;
 6093              		.loc 1 455 0
 6094 2590 01208202 		addeq	r2, r2, #1
 6095              	.L504:
 6096              	.LVL482:
 449:../reversi8_2019.c ****             if (tablero[i][j] == FICHA_BLANCA)
 6097              		.loc 1 449 0
 6098 2594 3C10D4E5 		ldrb	r1, [r4, #60]	@ zero_extendqisi2
 6099 2598 010051E3 		cmp	r1, #1
 451:../reversi8_2019.c ****                 (*b)++;
 6100              		.loc 1 451 0
 6101 259c 01308302 		addeq	r3, r3, #1
 449:../reversi8_2019.c ****             if (tablero[i][j] == FICHA_BLANCA)
 6102              		.loc 1 449 0
 6103 25a0 0100000A 		beq	.L506
 453:../reversi8_2019.c ****             else if (tablero[i][j] == FICHA_NEGRA)
 6104              		.loc 1 453 0
 6105 25a4 020051E3 		cmp	r1, #2
 455:../reversi8_2019.c ****                 (*n)++;
 6106              		.loc 1 455 0
 6107 25a8 01208202 		addeq	r2, r2, #1
 6108              	.L506:
 6109              	.LVL483:
 449:../reversi8_2019.c ****             if (tablero[i][j] == FICHA_BLANCA)
 6110              		.loc 1 449 0
 6111 25ac 3D10D4E5 		ldrb	r1, [r4, #61]	@ zero_extendqisi2
 6112 25b0 010051E3 		cmp	r1, #1
 451:../reversi8_2019.c ****                 (*b)++;
 6113              		.loc 1 451 0
 6114 25b4 01308302 		addeq	r3, r3, #1
 449:../reversi8_2019.c ****             if (tablero[i][j] == FICHA_BLANCA)
 6115              		.loc 1 449 0
 6116 25b8 0100000A 		beq	.L508
 453:../reversi8_2019.c ****             else if (tablero[i][j] == FICHA_NEGRA)
 6117              		.loc 1 453 0
 6118 25bc 020051E3 		cmp	r1, #2
 455:../reversi8_2019.c ****                 (*n)++;
 6119              		.loc 1 455 0
 6120 25c0 01208202 		addeq	r2, r2, #1
 6121              	.L508:
 6122              	.LVL484:
 449:../reversi8_2019.c ****             if (tablero[i][j] == FICHA_BLANCA)
 6123              		.loc 1 449 0
 6124 25c4 3E10D4E5 		ldrb	r1, [r4, #62]	@ zero_extendqisi2
 6125 25c8 010051E3 		cmp	r1, #1
 451:../reversi8_2019.c ****                 (*b)++;
 6126              		.loc 1 451 0
 6127 25cc 01308302 		addeq	r3, r3, #1
 449:../reversi8_2019.c ****             if (tablero[i][j] == FICHA_BLANCA)
 6128              		.loc 1 449 0
 6129 25d0 0100000A 		beq	.L510
 453:../reversi8_2019.c ****             else if (tablero[i][j] == FICHA_NEGRA)
 6130              		.loc 1 453 0
 6131 25d4 020051E3 		cmp	r1, #2
 455:../reversi8_2019.c ****                 (*n)++;
 6132              		.loc 1 455 0
 6133 25d8 01208202 		addeq	r2, r2, #1
 6134              	.L510:
 6135              	.LVL485:
 449:../reversi8_2019.c ****             if (tablero[i][j] == FICHA_BLANCA)
 6136              		.loc 1 449 0
 6137 25dc 3F10D4E5 		ldrb	r1, [r4, #63]	@ zero_extendqisi2
 6138 25e0 010051E3 		cmp	r1, #1
 451:../reversi8_2019.c ****                 (*b)++;
 6139              		.loc 1 451 0
 6140 25e4 01308302 		addeq	r3, r3, #1
 449:../reversi8_2019.c ****             if (tablero[i][j] == FICHA_BLANCA)
 6141              		.loc 1 449 0
 6142 25e8 0100000A 		beq	.L512
 453:../reversi8_2019.c ****             else if (tablero[i][j] == FICHA_NEGRA)
 6143              		.loc 1 453 0
 6144 25ec 020051E3 		cmp	r1, #2
 455:../reversi8_2019.c ****                 (*n)++;
 6145              		.loc 1 455 0
 6146 25f0 01208202 		addeq	r2, r2, #1
 6147              	.L512:
 6148              	.LVL486:
 451:../reversi8_2019.c ****                 (*b)++;
 6149              		.loc 1 451 0
 6150 25f4 942084E5 		str	r2, [r4, #148]
 6151 25f8 903084E5 		str	r3, [r4, #144]
 6152              	.LBE110:
 6153              	.LBE109:
 559:../reversi8_2019.c ****                 }
 560:../reversi8_2019.c ****                 else
 561:../reversi8_2019.c ****                 {
 562:../reversi8_2019.c ****                     actualizar_candidatas(candidatas, fila, columna);
 563:../reversi8_2019.c ****                     move = 1;
 564:../reversi8_2019.c ****                 }
 565:../reversi8_2019.c ****         	}
 566:../reversi8_2019.c ****         	if(jugada_valida == 1)
 567:../reversi8_2019.c ****         	{
 568:../reversi8_2019.c ****         		// escribe el movimiento en las variables globales fila columna
 569:../reversi8_2019.c ****         		done = elegir_mov(candidatas, tablero, &f, &c);
 570:../reversi8_2019.c ****         		if (done == -1)
 571:../reversi8_2019.c ****         		{
 572:../reversi8_2019.c ****         			if (move == 0)
 573:../reversi8_2019.c ****         			{
 574:../reversi8_2019.c ****         				fin = 1;
 575:../reversi8_2019.c ****         			}
 576:../reversi8_2019.c ****         		}
 577:../reversi8_2019.c ****         		else
 578:../reversi8_2019.c ****         		{
 579:../reversi8_2019.c ****         			tablero[f][c] = FICHA_BLANCA;
 580:../reversi8_2019.c ****         			actualizar_tablero(tablero, f, c, FICHA_BLANCA);
 581:../reversi8_2019.c ****         			actualizar_candidatas(candidatas, f, c);
 582:../reversi8_2019.c ****         		}
 583:../reversi8_2019.c ****         	}
 584:../reversi8_2019.c ****         }
 585:../reversi8_2019.c ****     }
 586:../reversi8_2019.c ****     contar(tablero, &blancas, &negras);
 587:../reversi8_2019.c **** }
 6154              		.loc 1 587 0
 6155 25fc 28D04BE2 		sub	sp, fp, #40
 6156 2600 F06F9DE8 		ldmfd	sp, {r4, r5, r6, r7, r8, r9, sl, fp, sp, lr}
 6157 2604 1EFF2FE1 		bx	lr
 6158              	.LVL487:
 6159              	.L373:
 562:../reversi8_2019.c ****                     actualizar_candidatas(candidatas, fila, columna);
 6160              		.loc 1 562 0
 6161 2608 9D00D5E5 		ldrb	r0, [r5, #157]	@ zero_extendqisi2
 563:../reversi8_2019.c ****                     move = 1;
 6162              		.loc 1 563 0
 6163 260c 00E0A0E3 		mov	lr, #0
 562:../reversi8_2019.c ****                     actualizar_candidatas(candidatas, fila, columna);
 6164              		.loc 1 562 0
 6165 2610 9E10D5E5 		ldrb	r1, [r5, #158]	@ zero_extendqisi2
 563:../reversi8_2019.c ****                     move = 1;
 6166              		.loc 1 563 0
 6167 2614 38E00BE5 		str	lr, [fp, #-56]
 562:../reversi8_2019.c ****                     actualizar_candidatas(candidatas, fila, columna);
 6168              		.loc 1 562 0
 6169 2618 53F7FFEB 		bl	actualizar_candidatas.clone.5
 563:../reversi8_2019.c ****                     move = 1;
 6170              		.loc 1 563 0
 6171 261c 08249FE5 		ldr	r2, .L552+8
 6172 2620 38701BE5 		ldr	r7, [fp, #-56]
 6173              	.LVL488:
 6174 2624 0080E0E3 		mvn	r8, #0
 6175 2628 3C200BE5 		str	r2, [fp, #-60]
 6176 262c 986085E5 		str	r6, [r5, #152]
 6177 2630 44700BE5 		str	r7, [fp, #-68]
 6178 2634 48800BE5 		str	r8, [fp, #-72]
 6179              	.LVL489:
 6180              	.L374:
 6181              	.LBB111:
 6182              	.LBB114:
 536:../reversi8_2019.c **** void reversi8()
 6183              		.loc 1 536 0
 6184 2638 38001BE5 		ldr	r0, [fp, #-56]
 6185 263c EC339FE5 		ldr	r3, .L552+12
 6186 2640 8051A0E1 		mov	r5, r0, asl #3
 6187 2644 018045E2 		sub	r8, r5, #1
 397:../reversi8_2019.c ****                 if (tablero[i][j] == CASILLA_VACIA)
 6188              		.loc 1 397 0
 6189 2648 FF7000E2 		and	r7, r0, #255
 536:../reversi8_2019.c **** void reversi8()
 6190              		.loc 1 536 0
 6191 264c 08A083E0 		add	sl, r3, r8
 397:../reversi8_2019.c ****                 if (tablero[i][j] == CASILLA_VACIA)
 6192              		.loc 1 397 0
 6193 2650 40700BE5 		str	r7, [fp, #-64]
 536:../reversi8_2019.c **** void reversi8()
 6194              		.loc 1 536 0
 6195 2654 058084E0 		add	r8, r4, r5
 6196              	.LBE114:
 6197              	.LBE111:
 6198              	.LBB117:
 6199              	.LBB108:
 6200              	.LBB107:
 6201              	.LBB106:
 6202 2658 0050A0E3 		mov	r5, #0
 6203 265c 030000EA 		b	.L378
 6204              	.LVL490:
 6205              	.L375:
 6206              	.LBE106:
 6207              	.LBE107:
 6208              	.LBE108:
 6209              	.LBE117:
 6210              	.LBB118:
 6211              	.LBB113:
 393:../reversi8_2019.c ****         for (j=0; j<DIM; j++)
 6212              		.loc 1 393 0
 6213 2660 015085E2 		add	r5, r5, #1
 6214              	.LVL491:
 6215 2664 080055E3 		cmp	r5, #8
 6216 2668 018088E2 		add	r8, r8, #1
 6217 266c 6300000A 		beq	.L550
 6218              	.LVL492:
 6219              	.L378:
 395:../reversi8_2019.c ****             if (candidatas[i][j] == SI)
 6220              		.loc 1 395 0
 6221 2670 0170FAE5 		ldrb	r7, [sl, #1]!	@ zero_extendqisi2
 6222 2674 010057E3 		cmp	r7, #1
 6223 2678 F8FFFF1A 		bne	.L375
 397:../reversi8_2019.c ****                 if (tablero[i][j] == CASILLA_VACIA)
 6224              		.loc 1 397 0
 6225 267c 0090D8E5 		ldrb	r9, [r8, #0]	@ zero_extendqisi2
 6226 2680 000059E3 		cmp	r9, #0
 6227 2684 F5FFFF1A 		bne	.L375
 6228 2688 FF6005E2 		and	r6, r5, #255
 6229              	.LVL493:
 411:../reversi8_2019.c ****                         patron = patron_volteo(tablero, &longitud, i, j, SF, SC, FICHA_BLANCA);
 6230              		.loc 1 411 0
 6231 268c 30004BE2 		sub	r0, fp, #48
 6232 2690 40101BE5 		ldr	r1, [fp, #-64]
 6233 2694 0620A0E1 		mov	r2, r6
 6234 2698 FF30A0E3 		mov	r3, #255
 410:../reversi8_2019.c ****                         longitud = 0;
 6235              		.loc 1 410 0
 6236 269c 30900BE5 		str	r9, [fp, #-48]
 411:../reversi8_2019.c ****                         patron = patron_volteo(tablero, &longitud, i, j, SF, SC, FICHA_BLANCA);
 6237              		.loc 1 411 0
 6238 26a0 00908DE5 		str	r9, [sp, #0]
 6239 26a4 04708DE5 		str	r7, [sp, #4]
 6240 26a8 D5F6FFEB 		bl	patron_volteo.clone.2
 6241              	.LVL494:
 412:../reversi8_2019.c ****                         if (patron == PATRON_ENCONTRADO)
 6242              		.loc 1 412 0
 6243 26ac 010050E3 		cmp	r0, #1
 6244 26b0 4600000A 		beq	.L376
 6245              	.LVL495:
 411:../reversi8_2019.c ****                         patron = patron_volteo(tablero, &longitud, i, j, SF, SC, FICHA_BLANCA);
 6246              		.loc 1 411 0
 6247 26b4 30004BE2 		sub	r0, fp, #48
 6248              	.LVL496:
 6249 26b8 40101BE5 		ldr	r1, [fp, #-64]
 6250 26bc 0620A0E1 		mov	r2, r6
 6251 26c0 FF30A0E3 		mov	r3, #255
 410:../reversi8_2019.c ****                         longitud = 0;
 6252              		.loc 1 410 0
 6253 26c4 30900BE5 		str	r9, [fp, #-48]
 411:../reversi8_2019.c ****                         patron = patron_volteo(tablero, &longitud, i, j, SF, SC, FICHA_BLANCA);
 6254              		.loc 1 411 0
 6255 26c8 00708DE5 		str	r7, [sp, #0]
 6256 26cc 04708DE5 		str	r7, [sp, #4]
 6257 26d0 CBF6FFEB 		bl	patron_volteo.clone.2
 6258              	.LVL497:
 412:../reversi8_2019.c ****                         if (patron == PATRON_ENCONTRADO)
 6259              		.loc 1 412 0
 6260 26d4 010050E3 		cmp	r0, #1
 6261 26d8 3C00000A 		beq	.L376
 6262              	.LVL498:
 411:../reversi8_2019.c ****                         patron = patron_volteo(tablero, &longitud, i, j, SF, SC, FICHA_BLANCA);
 6263              		.loc 1 411 0
 6264 26dc 30004BE2 		sub	r0, fp, #48
 6265              	.LVL499:
 6266 26e0 40101BE5 		ldr	r1, [fp, #-64]
 6267 26e4 0620A0E1 		mov	r2, r6
 6268 26e8 0930A0E1 		mov	r3, r9
 410:../reversi8_2019.c ****                         longitud = 0;
 6269              		.loc 1 410 0
 6270 26ec 30900BE5 		str	r9, [fp, #-48]
 411:../reversi8_2019.c ****                         patron = patron_volteo(tablero, &longitud, i, j, SF, SC, FICHA_BLANCA);
 6271              		.loc 1 411 0
 6272 26f0 00708DE5 		str	r7, [sp, #0]
 6273 26f4 04708DE5 		str	r7, [sp, #4]
 6274 26f8 C1F6FFEB 		bl	patron_volteo.clone.2
 6275              	.LVL500:
 412:../reversi8_2019.c ****                         if (patron == PATRON_ENCONTRADO)
 6276              		.loc 1 412 0
 6277 26fc 010050E3 		cmp	r0, #1
 6278 2700 3200000A 		beq	.L376
 6279              	.LVL501:
 411:../reversi8_2019.c ****                         patron = patron_volteo(tablero, &longitud, i, j, SF, SC, FICHA_BLANCA);
 6280              		.loc 1 411 0
 6281 2704 30004BE2 		sub	r0, fp, #48
 6282              	.LVL502:
 6283 2708 40101BE5 		ldr	r1, [fp, #-64]
 6284 270c 0620A0E1 		mov	r2, r6
 6285 2710 0730A0E1 		mov	r3, r7
 410:../reversi8_2019.c ****                         longitud = 0;
 6286              		.loc 1 410 0
 6287 2714 30900BE5 		str	r9, [fp, #-48]
 411:../reversi8_2019.c ****                         patron = patron_volteo(tablero, &longitud, i, j, SF, SC, FICHA_BLANCA);
 6288              		.loc 1 411 0
 6289 2718 00708DE5 		str	r7, [sp, #0]
 6290 271c 04708DE5 		str	r7, [sp, #4]
 6291 2720 B7F6FFEB 		bl	patron_volteo.clone.2
 6292              	.LVL503:
 412:../reversi8_2019.c ****                         if (patron == PATRON_ENCONTRADO)
 6293              		.loc 1 412 0
 6294 2724 010050E3 		cmp	r0, #1
 6295 2728 2800000A 		beq	.L376
 6296              	.LVL504:
 411:../reversi8_2019.c ****                         patron = patron_volteo(tablero, &longitud, i, j, SF, SC, FICHA_BLANCA);
 6297              		.loc 1 411 0
 6298 272c 30004BE2 		sub	r0, fp, #48
 6299              	.LVL505:
 6300 2730 40101BE5 		ldr	r1, [fp, #-64]
 6301 2734 0620A0E1 		mov	r2, r6
 6302 2738 0730A0E1 		mov	r3, r7
 410:../reversi8_2019.c ****                         longitud = 0;
 6303              		.loc 1 410 0
 6304 273c 30900BE5 		str	r9, [fp, #-48]
 411:../reversi8_2019.c ****                         patron = patron_volteo(tablero, &longitud, i, j, SF, SC, FICHA_BLANCA);
 6305              		.loc 1 411 0
 6306 2740 00908DE5 		str	r9, [sp, #0]
 6307 2744 04708DE5 		str	r7, [sp, #4]
 6308 2748 ADF6FFEB 		bl	patron_volteo.clone.2
 6309              	.LVL506:
 412:../reversi8_2019.c ****                         if (patron == PATRON_ENCONTRADO)
 6310              		.loc 1 412 0
 6311 274c 010050E3 		cmp	r0, #1
 6312 2750 1E00000A 		beq	.L376
 6313              	.LVL507:
 411:../reversi8_2019.c ****                         patron = patron_volteo(tablero, &longitud, i, j, SF, SC, FICHA_BLANCA);
 6314              		.loc 1 411 0
 6315 2754 FFC0A0E3 		mov	ip, #255
 6316 2758 30004BE2 		sub	r0, fp, #48
 6317              	.LVL508:
 6318 275c 40101BE5 		ldr	r1, [fp, #-64]
 6319 2760 0620A0E1 		mov	r2, r6
 6320 2764 0730A0E1 		mov	r3, r7
 410:../reversi8_2019.c ****                         longitud = 0;
 6321              		.loc 1 410 0
 6322 2768 30900BE5 		str	r9, [fp, #-48]
 411:../reversi8_2019.c ****                         patron = patron_volteo(tablero, &longitud, i, j, SF, SC, FICHA_BLANCA);
 6323              		.loc 1 411 0
 6324 276c 00C08DE5 		str	ip, [sp, #0]
 6325 2770 04708DE5 		str	r7, [sp, #4]
 6326 2774 A2F6FFEB 		bl	patron_volteo.clone.2
 6327              	.LVL509:
 412:../reversi8_2019.c ****                         if (patron == PATRON_ENCONTRADO)
 6328              		.loc 1 412 0
 6329 2778 010050E3 		cmp	r0, #1
 6330 277c 1300000A 		beq	.L376
 6331              	.LVL510:
 411:../reversi8_2019.c ****                         patron = patron_volteo(tablero, &longitud, i, j, SF, SC, FICHA_BLANCA);
 6332              		.loc 1 411 0
 6333 2780 FFE0A0E3 		mov	lr, #255
 6334 2784 30004BE2 		sub	r0, fp, #48
 6335              	.LVL511:
 6336 2788 40101BE5 		ldr	r1, [fp, #-64]
 6337 278c 0620A0E1 		mov	r2, r6
 6338 2790 0930A0E1 		mov	r3, r9
 410:../reversi8_2019.c ****                         longitud = 0;
 6339              		.loc 1 410 0
 6340 2794 30900BE5 		str	r9, [fp, #-48]
 411:../reversi8_2019.c ****                         patron = patron_volteo(tablero, &longitud, i, j, SF, SC, FICHA_BLANCA);
 6341              		.loc 1 411 0
 6342 2798 00E08DE5 		str	lr, [sp, #0]
 6343 279c 04708DE5 		str	r7, [sp, #4]
 6344 27a0 97F6FFEB 		bl	patron_volteo.clone.2
 6345              	.LVL512:
 412:../reversi8_2019.c ****                         if (patron == PATRON_ENCONTRADO)
 6346              		.loc 1 412 0
 6347 27a4 010050E3 		cmp	r0, #1
 6348 27a8 0800000A 		beq	.L376
 6349              	.LVL513:
 411:../reversi8_2019.c ****                         patron = patron_volteo(tablero, &longitud, i, j, SF, SC, FICHA_BLANCA);
 6350              		.loc 1 411 0
 6351 27ac FF30A0E3 		mov	r3, #255
 6352 27b0 30004BE2 		sub	r0, fp, #48
 6353              	.LVL514:
 6354 27b4 40101BE5 		ldr	r1, [fp, #-64]
 6355 27b8 0620A0E1 		mov	r2, r6
 410:../reversi8_2019.c ****                         longitud = 0;
 6356              		.loc 1 410 0
 6357 27bc 30900BE5 		str	r9, [fp, #-48]
 411:../reversi8_2019.c ****                         patron = patron_volteo(tablero, &longitud, i, j, SF, SC, FICHA_BLANCA);
 6358              		.loc 1 411 0
 6359 27c0 88008DE8 		stmia	sp, {r3, r7}	@ phole stm
 6360 27c4 8EF6FFEB 		bl	patron_volteo.clone.2
 6361              	.LVL515:
 412:../reversi8_2019.c ****                         if (patron == PATRON_ENCONTRADO)
 6362              		.loc 1 412 0
 6363 27c8 010050E3 		cmp	r0, #1
 6364 27cc A3FFFF1A 		bne	.L375
 6365              	.LVL516:
 6366              	.L376:
 415:../reversi8_2019.c ****                             if (tabla_valor[i][j] > mejor)
 6367              		.loc 1 415 0
 6368 27d0 3C101BE5 		ldr	r1, [fp, #-60]
 6369 27d4 44301BE5 		ldr	r3, [fp, #-68]
 6370 27d8 0500D1E7 		ldrb	r0, [r1, r5]	@ zero_extendqisi2
 6371              	.LVL517:
 6372 27dc 030050E1 		cmp	r0, r3
 6373 27e0 44000B85 		strhi	r0, [fp, #-68]
 6374 27e4 38001B85 		ldrhi	r0, [fp, #-56]
 6375 27e8 4C500B85 		strhi	r5, [fp, #-76]
 393:../reversi8_2019.c ****         for (j=0; j<DIM; j++)
 6376              		.loc 1 393 0
 6377 27ec 015085E2 		add	r5, r5, #1
 415:../reversi8_2019.c ****                             if (tabla_valor[i][j] > mejor)
 6378              		.loc 1 415 0
 6379 27f0 48000B85 		strhi	r0, [fp, #-72]
 6380              	.LVL518:
 393:../reversi8_2019.c ****         for (j=0; j<DIM; j++)
 6381              		.loc 1 393 0
 6382 27f4 080055E3 		cmp	r5, #8
 6383 27f8 018088E2 		add	r8, r8, #1
 6384 27fc 9BFFFF1A 		bne	.L378
 6385              	.LVL519:
 6386              	.L550:
 391:../reversi8_2019.c ****     for (i=0; i<DIM; i++)
 6387              		.loc 1 391 0
 6388 2800 3C204BE2 		sub	r2, fp, #60
 6389 2804 044092E8 		ldmia	r2, {r2, lr}	@ phole ldm
 6390 2808 01C08EE2 		add	ip, lr, #1
 6391 280c 08A082E2 		add	sl, r2, #8
 6392 2810 08005CE3 		cmp	ip, #8
 6393 2814 38C00BE5 		str	ip, [fp, #-56]
 6394              	.LVL520:
 6395 2818 3CA00BE5 		str	sl, [fp, #-60]
 6396 281c 85FFFF1A 		bne	.L374
 6397              	.LBE113:
 6398              	.LBE118:
 570:../reversi8_2019.c ****         		if (done == -1)
 6399              		.loc 1 570 0
 6400 2820 48101BE5 		ldr	r1, [fp, #-72]
 6401              	.LBB119:
 6402              	.LBB115:
 429:../reversi8_2019.c ****     *f = (char) mf;
 6403              		.loc 1 429 0
 6404 2824 4C304BE2 		sub	r3, fp, #76
 6405 2828 080493E8 		ldmia	r3, {r3, sl}	@ phole ldm
 6406 282c 00029FE5 		ldr	r0, .L552+16
 430:../reversi8_2019.c ****     *c = (char) mc;
 6407              		.loc 1 430 0
 6408 2830 00E29FE5 		ldr	lr, .L552+20
 6409              	.LBE115:
 6410              	.LBE119:
 569:../reversi8_2019.c ****         		done = elegir_mov(candidatas, tablero, &f, &c);
 6411              		.loc 1 569 0
 6412 2834 00229FE5 		ldr	r2, .L552+24
 6413              	.LBB120:
 6414              	.LBB112:
 429:../reversi8_2019.c ****     *f = (char) mf;
 6415              		.loc 1 429 0
 6416 2838 FFA00AE2 		and	sl, sl, #255
 430:../reversi8_2019.c ****     *c = (char) mc;
 6417              		.loc 1 430 0
 6418 283c FFC003E2 		and	ip, r3, #255
 6419              	.LVL521:
 6420              	.LBE112:
 6421              	.LBE120:
 570:../reversi8_2019.c ****         		if (done == -1)
 6422              		.loc 1 570 0
 6423 2840 010071E3 		cmn	r1, #1
 6424              	.LBB121:
 6425              	.LBB116:
 429:../reversi8_2019.c ****     *f = (char) mf;
 6426              		.loc 1 429 0
 6427 2844 38A00BE5 		str	sl, [fp, #-56]
 430:../reversi8_2019.c ****     *c = (char) mc;
 6428              		.loc 1 430 0
 6429 2848 3CC00BE5 		str	ip, [fp, #-60]
 429:../reversi8_2019.c ****     *f = (char) mf;
 6430              		.loc 1 429 0
 6431 284c 00A0C0E5 		strb	sl, [r0, #0]
 430:../reversi8_2019.c ****     *c = (char) mc;
 6432              		.loc 1 430 0
 6433 2850 00C0CEE5 		strb	ip, [lr, #0]
 6434              	.LBE116:
 6435              	.LBE121:
 569:../reversi8_2019.c ****         		done = elegir_mov(candidatas, tablero, &f, &c);
 6436              		.loc 1 569 0
 6437 2854 001082E5 		str	r1, [r2, #0]
 570:../reversi8_2019.c ****         		if (done == -1)
 6438              		.loc 1 570 0
 6439 2858 0500001A 		bne	.L380
 572:../reversi8_2019.c ****         			if (move == 0)
 6440              		.loc 1 572 0
 6441 285c 981094E5 		ldr	r1, [r4, #152]
 6442 2860 000051E3 		cmp	r1, #0
 574:../reversi8_2019.c ****         				fin = 1;
 6443              		.loc 1 574 0
 6444 2864 B8E19F05 		ldreq	lr, .L552
 6445 2868 0120A003 		moveq	r2, #1
 6446 286c 8C208E05 		streq	r2, [lr, #140]
 6447 2870 DCFDFFEA 		b	.L367
 6448              	.L380:
 579:../reversi8_2019.c ****         			tablero[f][c] = FICHA_BLANCA;
 6449              		.loc 1 579 0
 6450 2874 38501BE5 		ldr	r5, [fp, #-56]
 6451              	.LVL522:
 6452 2878 3C701BE5 		ldr	r7, [fp, #-60]
 6453 287c 0180A0E3 		mov	r8, #1
 6454 2880 856187E0 		add	r6, r7, r5, asl #3
 6455 2884 0680C4E7 		strb	r8, [r4, r6]
 6456              	.LVL523:
 354:../reversi8_2019.c ****     for (i = 0; i < DIM; i++) // 0 es Norte, 1 NE, 2 E ...
 6457              		.loc 1 354 0
 6458 2888 0050A0E3 		mov	r5, #0
 6459 288c 020000EA 		b	.L384
 6460              	.LVL524:
 6461              	.L381:
 6462              	.LBB122:
 6463              	.LBB123:
 6464 2890 015085E2 		add	r5, r5, #1
 6465              	.LVL525:
 6466 2894 080055E3 		cmp	r5, #8
 6467 2898 5B00000A 		beq	.L551
 6468              	.LVL526:
 6469              	.L384:
 356:../reversi8_2019.c ****         SF = vSF[i];
 6470              		.loc 1 356 0
 6471 289c 84019FE5 		ldr	r0, .L552+4
 6472 28a0 0560D0E7 		ldrb	r6, [r0, r5]	@ zero_extendqisi2
 6473              	.LVL527:
 357:../reversi8_2019.c ****         SC = vSC[i];
 6474              		.loc 1 357 0
 6475 28a4 08C080E2 		add	ip, r0, #8
 6476 28a8 0570DCE7 		ldrb	r7, [ip, r5]	@ zero_extendqisi2
 6477              	.LVL528:
 360:../reversi8_2019.c ****         patron = patron_volteo(tablero, &flip, f, c, SF, SC, color);
 6478              		.loc 1 360 0
 6479 28ac 30004BE2 		sub	r0, fp, #48
 6480 28b0 38101BE5 		ldr	r1, [fp, #-56]
 6481 28b4 3C201BE5 		ldr	r2, [fp, #-60]
 6482 28b8 0630A0E1 		mov	r3, r6
 359:../reversi8_2019.c ****         flip = 0;
 6483              		.loc 1 359 0
 6484 28bc 00A0A0E3 		mov	sl, #0
 6485 28c0 30A00BE5 		str	sl, [fp, #-48]
 360:../reversi8_2019.c ****         patron = patron_volteo(tablero, &flip, f, c, SF, SC, color);
 6486              		.loc 1 360 0
 6487 28c4 80018DE8 		stmia	sp, {r7, r8}	@ phole stm
 6488 28c8 4DF6FFEB 		bl	patron_volteo.clone.2
 6489              	.LVL529:
 361:../reversi8_2019.c ****         if (patron == PATRON_ENCONTRADO )
 6490              		.loc 1 361 0
 6491 28cc 010050E3 		cmp	r0, #1
 6492 28d0 EEFFFF1A 		bne	.L381
 363:../reversi8_2019.c ****             voltear(tablero, f, c, SF, SC, flip, color);
 6493              		.loc 1 363 0
 6494 28d4 30001BE5 		ldr	r0, [fp, #-48]
 6495              	.LVL530:
 6496              	.LBB124:
 6497              	.LBB125:
 336:../reversi8_2019.c ****     for (i = 0; i < n; i++)
 6498              		.loc 1 336 0
 6499 28d8 0A0050E1 		cmp	r0, sl
 6500 28dc 480000DA 		ble	.L382
 338:../reversi8_2019.c ****         FA = FA + SF;
 6501              		.loc 1 338 0
 6502 28e0 38101BE5 		ldr	r1, [fp, #-56]
 339:../reversi8_2019.c ****         CA = CA + SC;
 6503              		.loc 1 339 0
 6504 28e4 3CC01BE5 		ldr	ip, [fp, #-60]
 338:../reversi8_2019.c ****         FA = FA + SF;
 6505              		.loc 1 338 0
 6506 28e8 062081E0 		add	r2, r1, r6
 339:../reversi8_2019.c ****         CA = CA + SC;
 6507              		.loc 1 339 0
 6508 28ec 07308CE0 		add	r3, ip, r7
 338:../reversi8_2019.c ****         FA = FA + SF;
 6509              		.loc 1 338 0
 6510 28f0 FF2002E2 		and	r2, r2, #255
 6511              	.LVL531:
 339:../reversi8_2019.c ****         CA = CA + SC;
 6512              		.loc 1 339 0
 6513 28f4 FF3003E2 		and	r3, r3, #255
 6514              	.LVL532:
 340:../reversi8_2019.c ****         tablero[FA][CA] = color;
 6515              		.loc 1 340 0
 6516 28f8 821183E0 		add	r1, r3, r2, asl #3
 6517 28fc 01E040E2 		sub	lr, r0, #1
 336:../reversi8_2019.c ****     for (i = 0; i < n; i++)
 6518              		.loc 1 336 0
 6519 2900 000058E1 		cmp	r8, r0
 340:../reversi8_2019.c ****         tablero[FA][CA] = color;
 6520              		.loc 1 340 0
 6521 2904 0180C4E7 		strb	r8, [r4, r1]
 6522 2908 03C00EE2 		and	ip, lr, #3
 336:../reversi8_2019.c ****     for (i = 0; i < n; i++)
 6523              		.loc 1 336 0
 6524 290c 0810A0E1 		mov	r1, r8
 6525 2910 3B00000A 		beq	.L382
 6526 2914 00005CE3 		cmp	ip, #0
 6527 2918 1A00000A 		beq	.L546
 6528 291c 01005CE3 		cmp	ip, #1
 6529 2920 0F00000A 		beq	.L541
 6530 2924 02005CE3 		cmp	ip, #2
 6531 2928 0600000A 		beq	.L542
 338:../reversi8_2019.c ****         FA = FA + SF;
 6532              		.loc 1 338 0
 6533 292c 061082E0 		add	r1, r2, r6
 339:../reversi8_2019.c ****         CA = CA + SC;
 6534              		.loc 1 339 0
 6535 2930 07E083E0 		add	lr, r3, r7
 338:../reversi8_2019.c ****         FA = FA + SF;
 6536              		.loc 1 338 0
 6537 2934 FF2001E2 		and	r2, r1, #255
 6538              	.LVL533:
 339:../reversi8_2019.c ****         CA = CA + SC;
 6539              		.loc 1 339 0
 6540 2938 FF300EE2 		and	r3, lr, #255
 6541              	.LVL534:
 340:../reversi8_2019.c ****         tablero[FA][CA] = color;
 6542              		.loc 1 340 0
 6543 293c 82C183E0 		add	ip, r3, r2, asl #3
 6544 2940 0C80C4E7 		strb	r8, [r4, ip]
 336:../reversi8_2019.c ****     for (i = 0; i < n; i++)
 6545              		.loc 1 336 0
 6546 2944 0210A0E3 		mov	r1, #2
 6547              	.LVL535:
 6548              	.L542:
 338:../reversi8_2019.c ****         FA = FA + SF;
 6549              		.loc 1 338 0
 6550 2948 062082E0 		add	r2, r2, r6
 339:../reversi8_2019.c ****         CA = CA + SC;
 6551              		.loc 1 339 0
 6552 294c 073083E0 		add	r3, r3, r7
 338:../reversi8_2019.c ****         FA = FA + SF;
 6553              		.loc 1 338 0
 6554 2950 FF2002E2 		and	r2, r2, #255
 339:../reversi8_2019.c ****         CA = CA + SC;
 6555              		.loc 1 339 0
 6556 2954 FF3003E2 		and	r3, r3, #255
 340:../reversi8_2019.c ****         tablero[FA][CA] = color;
 6557              		.loc 1 340 0
 6558 2958 82C183E0 		add	ip, r3, r2, asl #3
 6559 295c 0C80C4E7 		strb	r8, [r4, ip]
 336:../reversi8_2019.c ****     for (i = 0; i < n; i++)
 6560              		.loc 1 336 0
 6561 2960 011081E2 		add	r1, r1, #1
 6562              	.L541:
 338:../reversi8_2019.c ****         FA = FA + SF;
 6563              		.loc 1 338 0
 6564 2964 062082E0 		add	r2, r2, r6
 339:../reversi8_2019.c ****         CA = CA + SC;
 6565              		.loc 1 339 0
 6566 2968 07C083E0 		add	ip, r3, r7
 338:../reversi8_2019.c ****         FA = FA + SF;
 6567              		.loc 1 338 0
 6568 296c FF2002E2 		and	r2, r2, #255
 339:../reversi8_2019.c ****         CA = CA + SC;
 6569              		.loc 1 339 0
 6570 2970 FF300CE2 		and	r3, ip, #255
 336:../reversi8_2019.c ****     for (i = 0; i < n; i++)
 6571              		.loc 1 336 0
 6572 2974 011081E2 		add	r1, r1, #1
 340:../reversi8_2019.c ****         tablero[FA][CA] = color;
 6573              		.loc 1 340 0
 6574 2978 82E183E0 		add	lr, r3, r2, asl #3
 336:../reversi8_2019.c ****     for (i = 0; i < n; i++)
 6575              		.loc 1 336 0
 6576 297c 000051E1 		cmp	r1, r0
 340:../reversi8_2019.c ****         tablero[FA][CA] = color;
 6577              		.loc 1 340 0
 6578 2980 0E80C4E7 		strb	r8, [r4, lr]
 336:../reversi8_2019.c ****     for (i = 0; i < n; i++)
 6579              		.loc 1 336 0
 6580 2984 1E00000A 		beq	.L382
 6581              	.L546:
 6582 2988 40000BE5 		str	r0, [fp, #-64]
 6583 298c 44500BE5 		str	r5, [fp, #-68]
 6584              	.L383:
 338:../reversi8_2019.c ****         FA = FA + SF;
 6585              		.loc 1 338 0
 6586 2990 069082E0 		add	r9, r2, r6
 339:../reversi8_2019.c ****         CA = CA + SC;
 6587              		.loc 1 339 0
 6588 2994 07A083E0 		add	sl, r3, r7
 338:../reversi8_2019.c ****         FA = FA + SF;
 6589              		.loc 1 338 0
 6590 2998 FF9009E2 		and	r9, r9, #255
 339:../reversi8_2019.c ****         CA = CA + SC;
 6591              		.loc 1 339 0
 6592 299c FFA00AE2 		and	sl, sl, #255
 6593 29a0 07E08AE0 		add	lr, sl, r7
 338:../reversi8_2019.c ****         FA = FA + SF;
 6594              		.loc 1 338 0
 6595 29a4 065089E0 		add	r5, r9, r6
 6596 29a8 FF5005E2 		and	r5, r5, #255
 339:../reversi8_2019.c ****         CA = CA + SC;
 6597              		.loc 1 339 0
 6598 29ac FFE00EE2 		and	lr, lr, #255
 338:../reversi8_2019.c ****         FA = FA + SF;
 6599              		.loc 1 338 0
 6600 29b0 06C085E0 		add	ip, r5, r6
 339:../reversi8_2019.c ****         CA = CA + SC;
 6601              		.loc 1 339 0
 6602 29b4 07008EE0 		add	r0, lr, r7
 338:../reversi8_2019.c ****         FA = FA + SF;
 6603              		.loc 1 338 0
 6604 29b8 FFC00CE2 		and	ip, ip, #255
 339:../reversi8_2019.c ****         CA = CA + SC;
 6605              		.loc 1 339 0
 6606 29bc FF0000E2 		and	r0, r0, #255
 338:../reversi8_2019.c ****         FA = FA + SF;
 6607              		.loc 1 338 0
 6608 29c0 06208CE0 		add	r2, ip, r6
 339:../reversi8_2019.c ****         CA = CA + SC;
 6609              		.loc 1 339 0
 6610 29c4 073080E0 		add	r3, r0, r7
 340:../reversi8_2019.c ****         tablero[FA][CA] = color;
 6611              		.loc 1 340 0
 6612 29c8 8C0180E0 		add	r0, r0, ip, asl #3
 336:../reversi8_2019.c ****     for (i = 0; i < n; i++)
 6613              		.loc 1 336 0
 6614 29cc 40C01BE5 		ldr	ip, [fp, #-64]
 338:../reversi8_2019.c ****         FA = FA + SF;
 6615              		.loc 1 338 0
 6616 29d0 FF2002E2 		and	r2, r2, #255
 339:../reversi8_2019.c ****         CA = CA + SC;
 6617              		.loc 1 339 0
 6618 29d4 FF3003E2 		and	r3, r3, #255
 336:../reversi8_2019.c ****     for (i = 0; i < n; i++)
 6619              		.loc 1 336 0
 6620 29d8 041081E2 		add	r1, r1, #4
 340:../reversi8_2019.c ****         tablero[FA][CA] = color;
 6621              		.loc 1 340 0
 6622 29dc 85E18EE0 		add	lr, lr, r5, asl #3
 6623 29e0 89A18AE0 		add	sl, sl, r9, asl #3
 6624 29e4 825183E0 		add	r5, r3, r2, asl #3
 336:../reversi8_2019.c ****     for (i = 0; i < n; i++)
 6625              		.loc 1 336 0
 6626 29e8 0C0051E1 		cmp	r1, ip
 340:../reversi8_2019.c ****         tablero[FA][CA] = color;
 6627              		.loc 1 340 0
 6628 29ec 0A80C4E7 		strb	r8, [r4, sl]
 6629 29f0 0E80C4E7 		strb	r8, [r4, lr]
 6630 29f4 0080C4E7 		strb	r8, [r4, r0]
 6631 29f8 0580C4E7 		strb	r8, [r4, r5]
 336:../reversi8_2019.c ****     for (i = 0; i < n; i++)
 6632              		.loc 1 336 0
 6633 29fc E3FFFF1A 		bne	.L383
 6634 2a00 44501BE5 		ldr	r5, [fp, #-68]
 6635              	.L382:
 6636              	.LBE125:
 6637              	.LBE124:
 364:../reversi8_2019.c ****             jugada_valida = 1;          //TODO explicar
 6638              		.loc 1 364 0
 6639 2a04 888084E5 		str	r8, [r4, #136]
 6640 2a08 A0FFFFEA 		b	.L381
 6641              	.LVL536:
 6642              	.L551:
 6643              	.LBE123:
 6644              	.LBE122:
 581:../reversi8_2019.c ****         			actualizar_candidatas(candidatas, f, c);
 6645              		.loc 1 581 0
 6646 2a0c 20309FE5 		ldr	r3, .L552+16
 6647 2a10 20109FE5 		ldr	r1, .L552+20
 6648 2a14 0000D3E5 		ldrb	r0, [r3, #0]	@ zero_extendqisi2
 6649 2a18 0010D1E5 		ldrb	r1, [r1, #0]	@ zero_extendqisi2
 6650 2a1c 52F6FFEB 		bl	actualizar_candidatas.clone.5
 6651 2a20 70FDFFEA 		b	.L367
 6652              	.L553:
 6653              		.align	2
 6654              	.L552:
 6655 2a24 00000000 		.word	.LANCHOR0
 6656 2a28 00000000 		.word	.LANCHOR1
 6657 2a2c 10000000 		.word	.LANCHOR1+16
 6658 2a30 48000000 		.word	.LANCHOR0+72
 6659 2a34 00000000 		.word	f
 6660 2a38 00000000 		.word	c
 6661 2a3c 00000000 		.word	done
 6662              		.cfi_endproc
 6663              	.LFE19:
 6665              		.align	2
 6666              		.global	reversi_procesar
 6668              	reversi_procesar:
 6669              	.LFB7:
 169:../reversi8_2019.c **** {
 6670              		.loc 1 169 0
 6671              		.cfi_startproc
 6672              		@ Function supports interworking.
 6673              		@ args = 0, pretend = 0, frame = 0
 6674              		@ frame_needed = 0, uses_anonymous_args = 0
 6675              		@ link register save eliminated.
 6676              	.LVL537:
 170:../reversi8_2019.c **** 	fila = f;
 6677              		.loc 1 170 0
 6678 2a40 10309FE5 		ldr	r3, .L555
 172:../reversi8_2019.c **** 	ready = 1;
 6679              		.loc 1 172 0
 6680 2a44 0120A0E3 		mov	r2, #1
 170:../reversi8_2019.c **** 	fila = f;
 6681              		.loc 1 170 0
 6682 2a48 9D00C3E5 		strb	r0, [r3, #157]
 171:../reversi8_2019.c **** 	columna = c;
 6683              		.loc 1 171 0
 6684 2a4c 9E10C3E5 		strb	r1, [r3, #158]
 172:../reversi8_2019.c **** 	ready = 1;
 6685              		.loc 1 172 0
 6686 2a50 9C20C3E5 		strb	r2, [r3, #156]
 174:../reversi8_2019.c **** }
 6687              		.loc 1 174 0
 173:../reversi8_2019.c **** 	reversi8();
 6688              		.loc 1 173 0
 6689 2a54 FEFFFFEA 		b	reversi8
 6690              	.LVL538:
 6691              	.L556:
 6692              		.align	2
 6693              	.L555:
 6694 2a58 00000000 		.word	.LANCHOR0
 6695              		.cfi_endproc
 6696              	.LFE7:
 6698              		.global	vSF
 6699              		.global	vSC
 6700              		.global	move
 6701              		.global	blancas
 6702              		.global	negras
 6703              		.global	fin
 6704              		.comm	done,4,4
 6705              		.comm	f,1,1
 6706              		.comm	c,1,1
 6707              		.section	.rodata
 6708              		.align	3
 6709              		.set	.LANCHOR1,. + 0
 6712              	vSF:
 6713 0000 FF       		.byte	-1
 6714 0001 FF       		.byte	-1
 6715 0002 00       		.byte	0
 6716 0003 01       		.byte	1
 6717 0004 01       		.byte	1
 6718 0005 01       		.byte	1
 6719 0006 00       		.byte	0
 6720 0007 FF       		.byte	-1
 6723              	vSC:
 6724 0008 00       		.byte	0
 6725 0009 01       		.byte	1
 6726 000a 01       		.byte	1
 6727 000b 01       		.byte	1
 6728 000c 00       		.byte	0
 6729 000d FF       		.byte	-1
 6730 000e FF       		.byte	-1
 6731 000f FF       		.byte	-1
 6734              	tabla_valor:
 6735 0010 08       		.byte	8
 6736 0011 02       		.byte	2
 6737 0012 07       		.byte	7
 6738 0013 03       		.byte	3
 6739 0014 03       		.byte	3
 6740 0015 07       		.byte	7
 6741 0016 02       		.byte	2
 6742 0017 08       		.byte	8
 6743 0018 02       		.byte	2
 6744 0019 01       		.byte	1
 6745 001a 04       		.byte	4
 6746 001b 04       		.byte	4
 6747 001c 04       		.byte	4
 6748 001d 04       		.byte	4
 6749 001e 01       		.byte	1
 6750 001f 02       		.byte	2
 6751 0020 07       		.byte	7
 6752 0021 04       		.byte	4
 6753 0022 06       		.byte	6
 6754 0023 05       		.byte	5
 6755 0024 05       		.byte	5
 6756 0025 06       		.byte	6
 6757 0026 04       		.byte	4
 6758 0027 07       		.byte	7
 6759 0028 03       		.byte	3
 6760 0029 04       		.byte	4
 6761 002a 05       		.byte	5
 6762 002b 00       		.byte	0
 6763 002c 00       		.byte	0
 6764 002d 05       		.byte	5
 6765 002e 04       		.byte	4
 6766 002f 03       		.byte	3
 6767 0030 03       		.byte	3
 6768 0031 04       		.byte	4
 6769 0032 05       		.byte	5
 6770 0033 00       		.byte	0
 6771 0034 00       		.byte	0
 6772 0035 05       		.byte	5
 6773 0036 04       		.byte	4
 6774 0037 03       		.byte	3
 6775 0038 07       		.byte	7
 6776 0039 04       		.byte	4
 6777 003a 06       		.byte	6
 6778 003b 05       		.byte	5
 6779 003c 05       		.byte	5
 6780 003d 06       		.byte	6
 6781 003e 04       		.byte	4
 6782 003f 07       		.byte	7
 6783 0040 02       		.byte	2
 6784 0041 01       		.byte	1
 6785 0042 04       		.byte	4
 6786 0043 04       		.byte	4
 6787 0044 04       		.byte	4
 6788 0045 04       		.byte	4
 6789 0046 01       		.byte	1
 6790 0047 02       		.byte	2
 6791 0048 08       		.byte	8
 6792 0049 02       		.byte	2
 6793 004a 07       		.byte	7
 6794 004b 03       		.byte	3
 6795 004c 03       		.byte	3
 6796 004d 07       		.byte	7
 6797 004e 02       		.byte	2
 6798 004f 08       		.byte	8
 6799              		.bss
 6800              		.align	3
 6801              		.set	.LANCHOR0,. + 0
 6804              	tablero:
 6805 0000 00000000 		.space	64
 6805      00000000 
 6805      00000000 
 6805      00000000 
 6805      00000000 
 6808              	t_pv:
 6809 0040 00000000 		.space	4
 6812              	veces_pv:
 6813 0044 00000000 		.space	4
 6816              	candidatas:
 6817 0048 00000000 		.space	64
 6817      00000000 
 6817      00000000 
 6817      00000000 
 6817      00000000 
 6820              	jugada_valida:
 6821 0088 00000000 		.space	4
 6824              	fin:
 6825 008c 00000000 		.space	4
 6828              	blancas:
 6829 0090 00000000 		.space	4
 6832              	negras:
 6833 0094 00000000 		.space	4
 6836              	move:
 6837 0098 00000000 		.space	4
 6840              	ready:
 6841 009c 00       		.space	1
 6844              	fila:
 6845 009d 00       		.space	1
 6848              	columna:
 6849 009e 00       		.space	1
 6850 009f 00       		.text
 6851              	.Letext0:
DEFINED SYMBOLS
                            *ABS*:00000000 reversi8_2019.c
C:\Users\guest\AppData\Local\Temp\ccrx1sCg.s:1097   .text:00000000 $a
C:\Users\guest\AppData\Local\Temp\ccrx1sCg.s:1100   .text:00000000 contar
C:\Users\guest\AppData\Local\Temp\ccrx1sCg.s:1344   .text:00000204 patron_volteo.clone.2
C:\Users\guest\AppData\Local\Temp\ccrx1sCg.s:1547   .text:00000368 $d
C:\Users\guest\AppData\Local\Temp\ccrx1sCg.s:1551   .text:0000036c $a
C:\Users\guest\AppData\Local\Temp\ccrx1sCg.s:1553   .text:0000036c actualizar_candidatas.clone.5
C:\Users\guest\AppData\Local\Temp\ccrx1sCg.s:1702   .text:000004c4 $d
C:\Users\guest\AppData\Local\Temp\ccrx1sCg.s:1706   .text:000004c8 $a
C:\Users\guest\AppData\Local\Temp\ccrx1sCg.s:1709   .text:000004c8 obtener_jugada_valida
C:\Users\guest\AppData\Local\Temp\ccrx1sCg.s:1725   .text:000004d4 $d
C:\Users\guest\AppData\Local\Temp\ccrx1sCg.s:1729   .text:000004d8 $a
C:\Users\guest\AppData\Local\Temp\ccrx1sCg.s:1732   .text:000004d8 obtener_fin
C:\Users\guest\AppData\Local\Temp\ccrx1sCg.s:1762   .text:00000508 $d
C:\Users\guest\AppData\Local\Temp\ccrx1sCg.s:1766   .text:0000050c $a
C:\Users\guest\AppData\Local\Temp\ccrx1sCg.s:1769   .text:0000050c obtener_tablero
C:\Users\guest\AppData\Local\Temp\ccrx1sCg.s:2042   .text:000007e0 $d
C:\Users\guest\AppData\Local\Temp\ccrx1sCg.s:2046   .text:000007e4 $a
C:\Users\guest\AppData\Local\Temp\ccrx1sCg.s:2049   .text:000007e4 contar_blancas
C:\Users\guest\AppData\Local\Temp\ccrx1sCg.s:2064   .text:000007f0 $d
C:\Users\guest\AppData\Local\Temp\ccrx1sCg.s:2068   .text:000007f4 $a
C:\Users\guest\AppData\Local\Temp\ccrx1sCg.s:2071   .text:000007f4 contar_negras
C:\Users\guest\AppData\Local\Temp\ccrx1sCg.s:2086   .text:00000800 $d
C:\Users\guest\AppData\Local\Temp\ccrx1sCg.s:2090   .text:00000804 $a
C:\Users\guest\AppData\Local\Temp\ccrx1sCg.s:2093   .text:00000804 reversi_t_pv
C:\Users\guest\AppData\Local\Temp\ccrx1sCg.s:2109   .text:00000810 $d
C:\Users\guest\AppData\Local\Temp\ccrx1sCg.s:2113   .text:00000814 $a
C:\Users\guest\AppData\Local\Temp\ccrx1sCg.s:2116   .text:00000814 reversi_veces_pv
C:\Users\guest\AppData\Local\Temp\ccrx1sCg.s:2132   .text:00000820 $d
C:\Users\guest\AppData\Local\Temp\ccrx1sCg.s:2136   .text:00000824 $a
C:\Users\guest\AppData\Local\Temp\ccrx1sCg.s:2139   .text:00000824 obtener_ficha_en
C:\Users\guest\AppData\Local\Temp\ccrx1sCg.s:2160   .text:00000834 $d
C:\Users\guest\AppData\Local\Temp\ccrx1sCg.s:2164   .text:00000838 $a
C:\Users\guest\AppData\Local\Temp\ccrx1sCg.s:2167   .text:00000838 init_table
C:\Users\guest\AppData\Local\Temp\ccrx1sCg.s:2428   .text:00000a54 $d
C:\Users\guest\AppData\Local\Temp\ccrx1sCg.s:2432   .text:00000a58 $a
C:\Users\guest\AppData\Local\Temp\ccrx1sCg.s:2435   .text:00000a58 ficha_valida
C:\Users\guest\AppData\Local\Temp\ccrx1sCg.s:2477   .text:00000a90 patron_volteo
C:\Users\guest\AppData\Local\Temp\ccrx1sCg.s:2678   .text:00000bdc $d
C:\Users\guest\AppData\Local\Temp\ccrx1sCg.s:2682   .text:00000be0 $a
C:\Users\guest\AppData\Local\Temp\ccrx1sCg.s:2685   .text:00000be0 voltear
C:\Users\guest\AppData\Local\Temp\ccrx1sCg.s:2853   .text:00000d38 actualizar_tablero
C:\Users\guest\AppData\Local\Temp\ccrx1sCg.s:3095   .text:00000f1c $d
C:\Users\guest\AppData\Local\Temp\ccrx1sCg.s:3100   .text:00000f24 $a
C:\Users\guest\AppData\Local\Temp\ccrx1sCg.s:3103   .text:00000f24 elegir_mov
C:\Users\guest\AppData\Local\Temp\ccrx1sCg.s:3368   .text:00001170 $d
C:\Users\guest\AppData\Local\Temp\ccrx1sCg.s:3372   .text:00001174 $a
C:\Users\guest\AppData\Local\Temp\ccrx1sCg.s:3375   .text:00001174 actualizar_candidatas
C:\Users\guest\AppData\Local\Temp\ccrx1sCg.s:3508   .text:00001280 reversi8_inicializar
C:\Users\guest\AppData\Local\Temp\ccrx1sCg.s:3634   .text:00001358 $d
C:\Users\guest\AppData\Local\Temp\ccrx1sCg.s:3638   .text:0000135c $a
C:\Users\guest\AppData\Local\Temp\ccrx1sCg.s:3641   .text:0000135c mover_IA
C:\Users\guest\AppData\Local\Temp\ccrx1sCg.s:5000   .text:00001d7c $d
                            *COM*:00000001 f
                            *COM*:00000004 done
                            *COM*:00000001 c
C:\Users\guest\AppData\Local\Temp\ccrx1sCg.s:5010   .text:00001d98 $a
C:\Users\guest\AppData\Local\Temp\ccrx1sCg.s:5013   .text:00001d98 reversi8
C:\Users\guest\AppData\Local\Temp\ccrx1sCg.s:6655   .text:00002a24 $d
C:\Users\guest\AppData\Local\Temp\ccrx1sCg.s:6665   .text:00002a40 $a
C:\Users\guest\AppData\Local\Temp\ccrx1sCg.s:6668   .text:00002a40 reversi_procesar
C:\Users\guest\AppData\Local\Temp\ccrx1sCg.s:6694   .text:00002a58 $d
C:\Users\guest\AppData\Local\Temp\ccrx1sCg.s:6712   .rodata:00000000 vSF
C:\Users\guest\AppData\Local\Temp\ccrx1sCg.s:6723   .rodata:00000008 vSC
C:\Users\guest\AppData\Local\Temp\ccrx1sCg.s:6836   .bss:00000098 move
C:\Users\guest\AppData\Local\Temp\ccrx1sCg.s:6828   .bss:00000090 blancas
C:\Users\guest\AppData\Local\Temp\ccrx1sCg.s:6832   .bss:00000094 negras
C:\Users\guest\AppData\Local\Temp\ccrx1sCg.s:6824   .bss:0000008c fin
C:\Users\guest\AppData\Local\Temp\ccrx1sCg.s:6708   .rodata:00000000 $d
C:\Users\guest\AppData\Local\Temp\ccrx1sCg.s:6734   .rodata:00000010 tabla_valor
C:\Users\guest\AppData\Local\Temp\ccrx1sCg.s:6800   .bss:00000000 $d
C:\Users\guest\AppData\Local\Temp\ccrx1sCg.s:6804   .bss:00000000 tablero
C:\Users\guest\AppData\Local\Temp\ccrx1sCg.s:6808   .bss:00000040 t_pv
C:\Users\guest\AppData\Local\Temp\ccrx1sCg.s:6812   .bss:00000044 veces_pv
C:\Users\guest\AppData\Local\Temp\ccrx1sCg.s:6816   .bss:00000048 candidatas
C:\Users\guest\AppData\Local\Temp\ccrx1sCg.s:6820   .bss:00000088 jugada_valida
C:\Users\guest\AppData\Local\Temp\ccrx1sCg.s:6840   .bss:0000009c ready
C:\Users\guest\AppData\Local\Temp\ccrx1sCg.s:6844   .bss:0000009d fila
C:\Users\guest\AppData\Local\Temp\ccrx1sCg.s:6848   .bss:0000009e columna
                     .debug_frame:00000010 $d

UNDEFINED SYMBOLS
timer2_leer
