   1              		.cpu arm7tdmi
   2              		.fpu softvfp
   3              		.eabi_attribute 20, 1
   4              		.eabi_attribute 21, 1
   5              		.eabi_attribute 23, 3
   6              		.eabi_attribute 24, 1
   7              		.eabi_attribute 25, 1
   8              		.eabi_attribute 26, 1
   9              		.eabi_attribute 30, 2
  10              		.eabi_attribute 18, 4
  11              		.file	"teclado_antirebotes.c"
  21              	.Ltext0:
  22              		.file 1 "../teclado_antirebotes.c"
 2181              		.align	2
 2182              		.global	tec_antirebotes_inicializar
 2184              	tec_antirebotes_inicializar:
 2185              	.LFB0:
   1:../teclado_antirebotes.c **** /*********************************************************************************************
   2:../teclado_antirebotes.c **** * Fichero:		teclado_antirebotes.h
   3:../teclado_antirebotes.c **** * Autor:		Pedro José Pérez García (756642) y Fernando Peña Bes (756012)
   4:../teclado_antirebotes.c **** * Descrip:		Máquina de estados que elimina los rebotes del teclado matricial.
   5:../teclado_antirebotes.c **** * Version:
   6:../teclado_antirebotes.c **** *********************************************************************************************/
   7:../teclado_antirebotes.c **** 
   8:../teclado_antirebotes.c **** /*--- ficheros de cabecera ---*/
   9:../teclado_antirebotes.c **** #include "led.h"
  10:../teclado_antirebotes.c **** #include "44b.h"
  11:../teclado_antirebotes.c **** #include "44blib.h"
  12:../teclado_antirebotes.c **** #include "teclado_antirebotes.h"
  13:../teclado_antirebotes.c **** #include "keyboard.h"
  14:../teclado_antirebotes.c **** #include "cola_depuracion.h"
  15:../teclado_antirebotes.c **** #include "codigos_eventos.h"
  16:../teclado_antirebotes.c **** #include "jugada_por_botones.h"
  17:../teclado_antirebotes.c **** 
  18:../teclado_antirebotes.c **** /*--- variables del módulo ---*/
  19:../teclado_antirebotes.c **** 
  20:../teclado_antirebotes.c **** static const int t_tec_espera_ticks_timer0 = 30;	//TODO para probarlo usa un valor exagerado
  21:../teclado_antirebotes.c **** static int cuenta_ticks_tec = 0;
  22:../teclado_antirebotes.c **** static int atendiendo_pulsacion_tec = 0;
  23:../teclado_antirebotes.c **** 
  24:../teclado_antirebotes.c **** /*
  25:../teclado_antirebotes.c ****    Los valores se pueden cambiar en función de la placa para controlar mejor los rebotes
  26:../teclado_antirebotes.c **** 	Desactivamos las interrupciones durante 30 ticks = 30 * 1/60 seg = 0.5 segundos.
  27:../teclado_antirebotes.c **** */
  28:../teclado_antirebotes.c **** static enum estados_tec_antirebotes{Inicio, deshabilitadas_int} maquina_estados_tec;
  29:../teclado_antirebotes.c **** //Estados de la máquina de estados
  30:../teclado_antirebotes.c **** 
  31:../teclado_antirebotes.c **** void tec_antirebotes_inicializar()
  32:../teclado_antirebotes.c **** {
 2186              		.loc 1 32 0
 2187              		.cfi_startproc
 2188              		@ Function supports interworking.
 2189              		@ args = 0, pretend = 0, frame = 0
 2190              		@ frame_needed = 0, uses_anonymous_args = 0
 2191              		@ link register save eliminated.
  33:../teclado_antirebotes.c **** 	maquina_estados_tec = Inicio;
 2192              		.loc 1 33 0
 2193 0000 10309FE5 		ldr	r3, .L2
 2194 0004 0020A0E3 		mov	r2, #0
 2195 0008 0020C3E5 		strb	r2, [r3, #0]
  34:../teclado_antirebotes.c **** 	cuenta_ticks_tec = 0;
 2196              		.loc 1 34 0
 2197 000c 042083E5 		str	r2, [r3, #4]
  35:../teclado_antirebotes.c **** 	atendiendo_pulsacion_tec = 0; 			//Inicialmente no se está atendiendo ninguna pulsación, por eso s
 2198              		.loc 1 35 0
 2199 0010 082083E5 		str	r2, [r3, #8]
  36:../teclado_antirebotes.c **** }
 2200              		.loc 1 36 0
 2201 0014 1EFF2FE1 		bx	lr
 2202              	.L3:
 2203              		.align	2
 2204              	.L2:
 2205 0018 00000000 		.word	.LANCHOR0
 2206              		.cfi_endproc
 2207              	.LFE0:
 2209              		.align	2
 2210              		.global	tec_antirebotes
 2212              	tec_antirebotes:
 2213              	.LFB1:
  37:../teclado_antirebotes.c **** 
  38:../teclado_antirebotes.c **** void tec_antirebotes(void)
  39:../teclado_antirebotes.c **** {
 2214              		.loc 1 39 0
 2215              		.cfi_startproc
 2216              		@ Function supports interworking.
 2217              		@ args = 0, pretend = 0, frame = 0
 2218              		@ frame_needed = 1, uses_anonymous_args = 0
 2219 001c 0DC0A0E1 		mov	ip, sp
 2220              	.LCFI0:
 2221              		.cfi_def_cfa_register 12
 2222 0020 18D82DE9 		stmfd	sp!, {r3, r4, fp, ip, lr, pc}
  40:../teclado_antirebotes.c **** 	switch(maquina_estados_tec)
 2223              		.loc 1 40 0
 2224 0024 48409FE5 		ldr	r4, .L10
 2225              		.cfi_offset 14, -8
 2226              		.cfi_offset 13, -12
 2227              		.cfi_offset 11, -16
 2228              		.cfi_offset 4, -20
 2229              		.cfi_offset 3, -24
 2230 0028 0030D4E5 		ldrb	r3, [r4, #0]	@ zero_extendqisi2
 2231 002c 000053E3 		cmp	r3, #0
  39:../teclado_antirebotes.c **** {
 2232              		.loc 1 39 0
 2233 0030 04B04CE2 		sub	fp, ip, #4
 2234              	.LCFI1:
 2235              		.cfi_def_cfa 11, 4
 2236              		.loc 1 40 0
 2237 0034 0500001A 		bne	.L8
  41:../teclado_antirebotes.c **** 	{
  42:../teclado_antirebotes.c **** 		case Inicio :
  43:../teclado_antirebotes.c **** 			if(atendiendo_pulsacion_tec == 1)
 2238              		.loc 1 43 0
 2239 0038 080094E5 		ldr	r0, [r4, #8]
 2240 003c 010050E3 		cmp	r0, #1
  44:../teclado_antirebotes.c **** 			{
  45:../teclado_antirebotes.c **** 				//Las interrupciones de tec se deshabilitan en el propio tec por si acaso
  46:../teclado_antirebotes.c **** 				maquina_estados_tec = deshabilitadas_int;
 2241              		.loc 1 46 0
 2242 0040 0000C405 		streqb	r0, [r4, #0]
 2243              	.L4:
  47:../teclado_antirebotes.c **** 			}
  48:../teclado_antirebotes.c **** 			break;
  49:../teclado_antirebotes.c **** 		default: //Si estamos en deshabilitadas_int
  50:../teclado_antirebotes.c **** 			if(cuenta_ticks_tec >= t_tec_espera_ticks_timer0)
  51:../teclado_antirebotes.c **** 			{	//Si ha pasado trd, rehabilitamos interrupciones tec y volvemos a admitir el procesado de otra
  52:../teclado_antirebotes.c **** 				tec_resetear();
  53:../teclado_antirebotes.c **** 				tec_antirebotes_inicializar();
  54:../teclado_antirebotes.c **** 			}
  55:../teclado_antirebotes.c **** 			break;
  56:../teclado_antirebotes.c **** 	}
  57:../teclado_antirebotes.c **** }
 2244              		.loc 1 57 0
 2245 0044 14D04BE2 		sub	sp, fp, #20
 2246 0048 18689DE8 		ldmfd	sp, {r3, r4, fp, sp, lr}
 2247 004c 1EFF2FE1 		bx	lr
 2248              	.L8:
  50:../teclado_antirebotes.c **** 			if(cuenta_ticks_tec >= t_tec_espera_ticks_timer0)
 2249              		.loc 1 50 0
 2250 0050 041094E5 		ldr	r1, [r4, #4]
 2251 0054 1D0051E3 		cmp	r1, #29
 2252 0058 F9FFFFDA 		ble	.L4
  52:../teclado_antirebotes.c **** 				tec_resetear();
 2253              		.loc 1 52 0
 2254 005c FEFFFFEB 		bl	tec_resetear
 2255              	.LBB8:
 2256              	.LBB9:
  33:../teclado_antirebotes.c **** 	maquina_estados_tec = Inicio;
 2257              		.loc 1 33 0
 2258 0060 0020A0E3 		mov	r2, #0
 2259 0064 0020C4E5 		strb	r2, [r4, #0]
  34:../teclado_antirebotes.c **** 	cuenta_ticks_tec = 0;
 2260              		.loc 1 34 0
 2261 0068 042084E5 		str	r2, [r4, #4]
  35:../teclado_antirebotes.c **** 	atendiendo_pulsacion_tec = 0; 			//Inicialmente no se está atendiendo ninguna pulsación, por eso s
 2262              		.loc 1 35 0
 2263 006c 082084E5 		str	r2, [r4, #8]
 2264 0070 F3FFFFEA 		b	.L4
 2265              	.L11:
 2266              		.align	2
 2267              	.L10:
 2268 0074 00000000 		.word	.LANCHOR0
 2269              	.LBE9:
 2270              	.LBE8:
 2271              		.cfi_endproc
 2272              	.LFE1:
 2274              		.align	2
 2275              		.global	tec_ev_pulsacion
 2277              	tec_ev_pulsacion:
 2278              	.LFB2:
  58:../teclado_antirebotes.c **** 
  59:../teclado_antirebotes.c **** void tec_ev_pulsacion()
  60:../teclado_antirebotes.c **** {
 2279              		.loc 1 60 0
 2280              		.cfi_startproc
 2281              		@ Function supports interworking.
 2282              		@ args = 0, pretend = 0, frame = 0
 2283              		@ frame_needed = 1, uses_anonymous_args = 0
 2284 0078 0DC0A0E1 		mov	ip, sp
 2285              	.LCFI2:
 2286              		.cfi_def_cfa_register 12
 2287 007c 30D82DE9 		stmfd	sp!, {r4, r5, fp, ip, lr, pc}
  61:../teclado_antirebotes.c **** 	if(atendiendo_pulsacion_tec == 0)
 2288              		.loc 1 61 0
 2289 0080 50409FE5 		ldr	r4, .L18
 2290              		.cfi_offset 14, -8
 2291              		.cfi_offset 13, -12
 2292              		.cfi_offset 11, -16
 2293              		.cfi_offset 5, -20
 2294              		.cfi_offset 4, -24
 2295 0084 085094E5 		ldr	r5, [r4, #8]
 2296 0088 000055E3 		cmp	r5, #0
  60:../teclado_antirebotes.c **** {
 2297              		.loc 1 60 0
 2298 008c 04B04CE2 		sub	fp, ip, #4
 2299              	.LCFI3:
 2300              		.cfi_def_cfa 11, 4
 2301              		.loc 1 61 0
 2302 0090 0200000A 		beq	.L17
 2303              	.L12:
  62:../teclado_antirebotes.c **** 	{
  63:../teclado_antirebotes.c **** 		atendiendo_pulsacion_tec = 1;
  64:../teclado_antirebotes.c **** 		tec_antirebotes();					//Se avisa a la máquina de estados para que inicie su ejecución
  65:../teclado_antirebotes.c **** 	}
  66:../teclado_antirebotes.c **** }
 2304              		.loc 1 66 0
 2305 0094 14D04BE2 		sub	sp, fp, #20
 2306 0098 30689DE8 		ldmfd	sp, {r4, r5, fp, sp, lr}
 2307 009c 1EFF2FE1 		bx	lr
 2308              	.L17:
 2309              	.LBB14:
 2310              	.LBB16:
  40:../teclado_antirebotes.c **** 	switch(maquina_estados_tec)
 2311              		.loc 1 40 0
 2312 00a0 0020D4E5 		ldrb	r2, [r4, #0]	@ zero_extendqisi2
 2313              	.LBE16:
 2314              	.LBE14:
  63:../teclado_antirebotes.c **** 		atendiendo_pulsacion_tec = 1;
 2315              		.loc 1 63 0
 2316 00a4 0130A0E3 		mov	r3, #1
 2317              	.LBB20:
 2318              	.LBB15:
  40:../teclado_antirebotes.c **** 	switch(maquina_estados_tec)
 2319              		.loc 1 40 0
 2320 00a8 000052E3 		cmp	r2, #0
 2321              	.LBE15:
 2322              	.LBE20:
  63:../teclado_antirebotes.c **** 		atendiendo_pulsacion_tec = 1;
 2323              		.loc 1 63 0
 2324 00ac 083084E5 		str	r3, [r4, #8]
 2325              	.LBB21:
 2326              	.LBB19:
  46:../teclado_antirebotes.c **** 				maquina_estados_tec = deshabilitadas_int;
 2327              		.loc 1 46 0
 2328 00b0 0030C405 		streqb	r3, [r4, #0]
  40:../teclado_antirebotes.c **** 	switch(maquina_estados_tec)
 2329              		.loc 1 40 0
 2330 00b4 F6FFFF0A 		beq	.L12
  50:../teclado_antirebotes.c **** 			if(cuenta_ticks_tec >= t_tec_espera_ticks_timer0)
 2331              		.loc 1 50 0
 2332 00b8 040094E5 		ldr	r0, [r4, #4]
 2333 00bc 1D0050E3 		cmp	r0, #29
 2334 00c0 F3FFFFDA 		ble	.L12
  52:../teclado_antirebotes.c **** 				tec_resetear();
 2335              		.loc 1 52 0
 2336 00c4 FEFFFFEB 		bl	tec_resetear
 2337              	.LBB17:
 2338              	.LBB18:
  33:../teclado_antirebotes.c **** 	maquina_estados_tec = Inicio;
 2339              		.loc 1 33 0
 2340 00c8 0050C4E5 		strb	r5, [r4, #0]
  34:../teclado_antirebotes.c **** 	cuenta_ticks_tec = 0;
 2341              		.loc 1 34 0
 2342 00cc 045084E5 		str	r5, [r4, #4]
  35:../teclado_antirebotes.c **** 	atendiendo_pulsacion_tec = 0; 			//Inicialmente no se está atendiendo ninguna pulsación, por eso s
 2343              		.loc 1 35 0
 2344 00d0 085084E5 		str	r5, [r4, #8]
 2345 00d4 EEFFFFEA 		b	.L12
 2346              	.L19:
 2347              		.align	2
 2348              	.L18:
 2349 00d8 00000000 		.word	.LANCHOR0
 2350              	.LBE18:
 2351              	.LBE17:
 2352              	.LBE19:
 2353              	.LBE21:
 2354              		.cfi_endproc
 2355              	.LFE2:
 2357              		.align	2
 2358              		.global	tec_ev_tick0
 2360              	tec_ev_tick0:
 2361              	.LFB3:
  67:../teclado_antirebotes.c **** 
  68:../teclado_antirebotes.c **** void tec_ev_tick0(void)
  69:../teclado_antirebotes.c **** {	//Solo se incrementa el contador si es útil para la máquina de estados
 2362              		.loc 1 69 0
 2363              		.cfi_startproc
 2364              		@ Function supports interworking.
 2365              		@ args = 0, pretend = 0, frame = 0
 2366              		@ frame_needed = 1, uses_anonymous_args = 0
 2367 00dc 0DC0A0E1 		mov	ip, sp
 2368              	.LCFI4:
 2369              		.cfi_def_cfa_register 12
 2370 00e0 18D82DE9 		stmfd	sp!, {r3, r4, fp, ip, lr, pc}
  70:../teclado_antirebotes.c **** 	//	por tanto, si no estamos atendiendo ningún evento de pulsación no
  71:../teclado_antirebotes.c **** 	//	nos molestamos en hacer nada
  72:../teclado_antirebotes.c **** 	if(atendiendo_pulsacion_tec == 1)
 2371              		.loc 1 72 0
 2372 00e4 54409FE5 		ldr	r4, .L26
 2373              		.cfi_offset 14, -8
 2374              		.cfi_offset 13, -12
 2375              		.cfi_offset 11, -16
 2376              		.cfi_offset 4, -20
 2377              		.cfi_offset 3, -24
 2378 00e8 083094E5 		ldr	r3, [r4, #8]
 2379 00ec 010053E3 		cmp	r3, #1
  69:../teclado_antirebotes.c **** {	//Solo se incrementa el contador si es útil para la máquina de estados
 2380              		.loc 1 69 0
 2381 00f0 04B04CE2 		sub	fp, ip, #4
 2382              	.LCFI5:
 2383              		.cfi_def_cfa 11, 4
 2384              		.loc 1 72 0
 2385 00f4 0200000A 		beq	.L25
 2386              	.L20:
  73:../teclado_antirebotes.c **** 	{
  74:../teclado_antirebotes.c **** 		cuenta_ticks_tec += 1;
  75:../teclado_antirebotes.c **** 		tec_antirebotes();
  76:../teclado_antirebotes.c **** 	}
  77:../teclado_antirebotes.c **** }
 2387              		.loc 1 77 0
 2388 00f8 14D04BE2 		sub	sp, fp, #20
 2389 00fc 18689DE8 		ldmfd	sp, {r3, r4, fp, sp, lr}
 2390 0100 1EFF2FE1 		bx	lr
 2391              	.L25:
  74:../teclado_antirebotes.c **** 		cuenta_ticks_tec += 1;
 2392              		.loc 1 74 0
 2393 0104 042094E5 		ldr	r2, [r4, #4]
 2394              	.LBB26:
 2395              	.LBB28:
  40:../teclado_antirebotes.c **** 	switch(maquina_estados_tec)
 2396              		.loc 1 40 0
 2397 0108 0010D4E5 		ldrb	r1, [r4, #0]	@ zero_extendqisi2
 2398              	.LBE28:
 2399              	.LBE26:
  74:../teclado_antirebotes.c **** 		cuenta_ticks_tec += 1;
 2400              		.loc 1 74 0
 2401 010c 012082E2 		add	r2, r2, #1
 2402              	.LBB32:
 2403              	.LBB27:
  40:../teclado_antirebotes.c **** 	switch(maquina_estados_tec)
 2404              		.loc 1 40 0
 2405 0110 000051E3 		cmp	r1, #0
 2406              	.LBE27:
 2407              	.LBE32:
  74:../teclado_antirebotes.c **** 		cuenta_ticks_tec += 1;
 2408              		.loc 1 74 0
 2409 0114 042084E5 		str	r2, [r4, #4]
 2410              	.LBB33:
 2411              	.LBB31:
  46:../teclado_antirebotes.c **** 				maquina_estados_tec = deshabilitadas_int;
 2412              		.loc 1 46 0
 2413 0118 0030C405 		streqb	r3, [r4, #0]
  40:../teclado_antirebotes.c **** 	switch(maquina_estados_tec)
 2414              		.loc 1 40 0
 2415 011c F5FFFF0A 		beq	.L20
  50:../teclado_antirebotes.c **** 			if(cuenta_ticks_tec >= t_tec_espera_ticks_timer0)
 2416              		.loc 1 50 0
 2417 0120 1D0052E3 		cmp	r2, #29
 2418 0124 F3FFFFDA 		ble	.L20
  52:../teclado_antirebotes.c **** 				tec_resetear();
 2419              		.loc 1 52 0
 2420 0128 FEFFFFEB 		bl	tec_resetear
 2421              	.LBB29:
 2422              	.LBB30:
  33:../teclado_antirebotes.c **** 	maquina_estados_tec = Inicio;
 2423              		.loc 1 33 0
 2424 012c 0030A0E3 		mov	r3, #0
 2425 0130 0030C4E5 		strb	r3, [r4, #0]
  34:../teclado_antirebotes.c **** 	cuenta_ticks_tec = 0;
 2426              		.loc 1 34 0
 2427 0134 043084E5 		str	r3, [r4, #4]
  35:../teclado_antirebotes.c **** 	atendiendo_pulsacion_tec = 0; 			//Inicialmente no se está atendiendo ninguna pulsación, por eso s
 2428              		.loc 1 35 0
 2429 0138 083084E5 		str	r3, [r4, #8]
 2430 013c EDFFFFEA 		b	.L20
 2431              	.L27:
 2432              		.align	2
 2433              	.L26:
 2434 0140 00000000 		.word	.LANCHOR0
 2435              	.LBE30:
 2436              	.LBE29:
 2437              	.LBE31:
 2438              	.LBE33:
 2439              		.cfi_endproc
 2440              	.LFE3:
 2442              		.bss
 2443              		.align	2
 2444              		.set	.LANCHOR0,. + 0
 2447              	maquina_estados_tec:
 2448 0000 00       		.space	1
 2449 0001 000000   		.space	3
 2452              	cuenta_ticks_tec:
 2453 0004 00000000 		.space	4
 2456              	atendiendo_pulsacion_tec:
 2457 0008 00000000 		.space	4
 2458              		.text
 2459              	.Letext0: