   1              		.cpu arm7tdmi
   2              		.fpu softvfp
   3              		.eabi_attribute 20, 1
   4              		.eabi_attribute 21, 1
   5              		.eabi_attribute 23, 3
   6              		.eabi_attribute 24, 1
   7              		.eabi_attribute 25, 1
   8              		.eabi_attribute 26, 1
   9              		.eabi_attribute 30, 2
  10              		.eabi_attribute 18, 4
  11              		.file	"tsp_antirebotes.c"
  21              	.Ltext0:
  22              		.file 1 "../tsp_antirebotes.c"
 2255              		.align	2
 2256              		.global	tsp_antirebotes_inicializar
 2258              	tsp_antirebotes_inicializar:
 2259              	.LFB0:
   1:../tsp_antirebotes.c **** /*********************************************************************************************
   2:../tsp_antirebotes.c **** * Fichero:		tsp_antirebotes.c
   3:../tsp_antirebotes.c **** * Autor:		Pedro José Pérez García (756642) y Fernando Peña Bes (756012)
   4:../tsp_antirebotes.c **** * Descrip:		Máquina de estados que elimina los rebotes de la pantalla táctil.
   5:../tsp_antirebotes.c **** * Version:		
   6:../tsp_antirebotes.c **** *********************************************************************************************/
   7:../tsp_antirebotes.c **** 
   8:../tsp_antirebotes.c **** /*--- ficheros de cabecera ---*/
   9:../tsp_antirebotes.c **** #include "led.h"
  10:../tsp_antirebotes.c **** #include "44b.h"
  11:../tsp_antirebotes.c **** #include "44blib.h"
  12:../tsp_antirebotes.c **** #include "tsp_antirebotes.h"
  13:../tsp_antirebotes.c **** #include "tp.h"
  14:../tsp_antirebotes.c **** #include "cola_depuracion.h"
  15:../tsp_antirebotes.c **** #include "codigos_eventos.h"
  16:../tsp_antirebotes.c **** #include "jugada_por_botones.h"
  17:../tsp_antirebotes.c **** 
  18:../tsp_antirebotes.c **** /*--- variables del módulo ---*/
  19:../tsp_antirebotes.c **** enum {t_espera_ticks_timer0 = 30};
  20:../tsp_antirebotes.c **** static int cuenta_ticks_tsp = 0;
  21:../tsp_antirebotes.c **** static int atendiendo_pulsacion_tsp = 0;
  22:../tsp_antirebotes.c **** /*
  23:../tsp_antirebotes.c ****    Los valores se pueden cambiar en función de la placa para controlar mejor los rebotes
  24:../tsp_antirebotes.c **** 	Desactivamos las interrupciones durante 30 ticks = 30 * 1/60 seg = 0.5 segundos.
  25:../tsp_antirebotes.c **** */
  26:../tsp_antirebotes.c **** static enum estados_tsp_antirebotes{Inicio, deshabilitadas_int} maquina_estados_tsp;
  27:../tsp_antirebotes.c **** //Estados de la máquina de estados
  28:../tsp_antirebotes.c **** 
  29:../tsp_antirebotes.c **** void tsp_antirebotes_inicializar()
  30:../tsp_antirebotes.c **** {
 2260              		.loc 1 30 0
 2261              		.cfi_startproc
 2262              		@ Function supports interworking.
 2263              		@ args = 0, pretend = 0, frame = 0
 2264              		@ frame_needed = 0, uses_anonymous_args = 0
 2265              		@ link register save eliminated.
  31:../tsp_antirebotes.c **** 	maquina_estados_tsp = Inicio;
 2266              		.loc 1 31 0
 2267 0000 10309FE5 		ldr	r3, .L2
 2268 0004 0020A0E3 		mov	r2, #0
 2269 0008 0020C3E5 		strb	r2, [r3, #0]
  32:../tsp_antirebotes.c **** 	cuenta_ticks_tsp = 0;
 2270              		.loc 1 32 0
 2271 000c 042083E5 		str	r2, [r3, #4]
  33:../tsp_antirebotes.c **** 	atendiendo_pulsacion_tsp = 0; 		//Inicialmente no se está atendiendo
 2272              		.loc 1 33 0
 2273 0010 082083E5 		str	r2, [r3, #8]
  34:../tsp_antirebotes.c **** 										//ninguna pulsación, por eso se inicializa a 0
  35:../tsp_antirebotes.c **** }
 2274              		.loc 1 35 0
 2275 0014 1EFF2FE1 		bx	lr
 2276              	.L3:
 2277              		.align	2
 2278              	.L2:
 2279 0018 00000000 		.word	.LANCHOR0
 2280              		.cfi_endproc
 2281              	.LFE0:
 2283              		.align	2
 2284              		.global	tsp_antirebotes
 2286              	tsp_antirebotes:
 2287              	.LFB1:
  36:../tsp_antirebotes.c **** 
  37:../tsp_antirebotes.c **** void tsp_antirebotes(void)
  38:../tsp_antirebotes.c **** {
 2288              		.loc 1 38 0
 2289              		.cfi_startproc
 2290              		@ Function supports interworking.
 2291              		@ args = 0, pretend = 0, frame = 0
 2292              		@ frame_needed = 1, uses_anonymous_args = 0
 2293 001c 0DC0A0E1 		mov	ip, sp
 2294              	.LCFI0:
 2295              		.cfi_def_cfa_register 12
 2296 0020 18D82DE9 		stmfd	sp!, {r3, r4, fp, ip, lr, pc}
  39:../tsp_antirebotes.c **** 	switch(maquina_estados_tsp)
 2297              		.loc 1 39 0
 2298 0024 4C409FE5 		ldr	r4, .L10
 2299              		.cfi_offset 14, -8
 2300              		.cfi_offset 13, -12
 2301              		.cfi_offset 11, -16
 2302              		.cfi_offset 4, -20
 2303              		.cfi_offset 3, -24
 2304 0028 0030D4E5 		ldrb	r3, [r4, #0]	@ zero_extendqisi2
 2305 002c 000053E3 		cmp	r3, #0
  38:../tsp_antirebotes.c **** {
 2306              		.loc 1 38 0
 2307 0030 04B04CE2 		sub	fp, ip, #4
 2308              	.LCFI1:
 2309              		.cfi_def_cfa 11, 4
 2310              		.loc 1 39 0
 2311 0034 0600001A 		bne	.L8
  40:../tsp_antirebotes.c **** 	{
  41:../tsp_antirebotes.c **** 		case Inicio :
  42:../tsp_antirebotes.c **** 			if(atendiendo_pulsacion_tsp)
 2312              		.loc 1 42 0
 2313 0038 080094E5 		ldr	r0, [r4, #8]
 2314 003c 000050E3 		cmp	r0, #0
  43:../tsp_antirebotes.c **** 			{
  44:../tsp_antirebotes.c **** 				//Las interrupciones de tsp se deshabilitan en el propio tsp por si acaso
  45:../tsp_antirebotes.c **** 				maquina_estados_tsp = deshabilitadas_int;
 2315              		.loc 1 45 0
 2316 0040 0100A013 		movne	r0, #1
 2317 0044 0000C415 		strneb	r0, [r4, #0]
 2318              	.L4:
  46:../tsp_antirebotes.c **** 			}
  47:../tsp_antirebotes.c **** 			break;
  48:../tsp_antirebotes.c **** 		default: //Si estamos en deshabilitadas_int
  49:../tsp_antirebotes.c **** 			if(cuenta_ticks_tsp == t_espera_ticks_timer0)
  50:../tsp_antirebotes.c **** 			{	//Si ha pasado trd, rehabilitamos interrupciones tsp
  51:../tsp_antirebotes.c **** 				// y volvemos a admitir el procesado de otras pulsaciones
  52:../tsp_antirebotes.c **** 				tsp_resetear();
  53:../tsp_antirebotes.c **** 				tsp_antirebotes_inicializar();
  54:../tsp_antirebotes.c **** 			}
  55:../tsp_antirebotes.c **** 			break;
  56:../tsp_antirebotes.c **** 	}
  57:../tsp_antirebotes.c **** }
 2319              		.loc 1 57 0
 2320 0048 14D04BE2 		sub	sp, fp, #20
 2321 004c 18689DE8 		ldmfd	sp, {r3, r4, fp, sp, lr}
 2322 0050 1EFF2FE1 		bx	lr
 2323              	.L8:
  49:../tsp_antirebotes.c **** 			if(cuenta_ticks_tsp == t_espera_ticks_timer0)
 2324              		.loc 1 49 0
 2325 0054 041094E5 		ldr	r1, [r4, #4]
 2326 0058 1E0051E3 		cmp	r1, #30
 2327 005c F9FFFF1A 		bne	.L4
  52:../tsp_antirebotes.c **** 				tsp_resetear();
 2328              		.loc 1 52 0
 2329 0060 FEFFFFEB 		bl	tsp_resetear
 2330              	.LBB8:
 2331              	.LBB9:
  31:../tsp_antirebotes.c **** 	maquina_estados_tsp = Inicio;
 2332              		.loc 1 31 0
 2333 0064 0020A0E3 		mov	r2, #0
 2334 0068 0020C4E5 		strb	r2, [r4, #0]
  32:../tsp_antirebotes.c **** 	cuenta_ticks_tsp = 0;
 2335              		.loc 1 32 0
 2336 006c 042084E5 		str	r2, [r4, #4]
  33:../tsp_antirebotes.c **** 	atendiendo_pulsacion_tsp = 0; 		//Inicialmente no se está atendiendo
 2337              		.loc 1 33 0
 2338 0070 082084E5 		str	r2, [r4, #8]
 2339 0074 F3FFFFEA 		b	.L4
 2340              	.L11:
 2341              		.align	2
 2342              	.L10:
 2343 0078 00000000 		.word	.LANCHOR0
 2344              	.LBE9:
 2345              	.LBE8:
 2346              		.cfi_endproc
 2347              	.LFE1:
 2349              		.align	2
 2350              		.global	tsp_ev_pulsacion
 2352              	tsp_ev_pulsacion:
 2353              	.LFB2:
  58:../tsp_antirebotes.c **** 
  59:../tsp_antirebotes.c **** void tsp_ev_pulsacion()
  60:../tsp_antirebotes.c **** {
 2354              		.loc 1 60 0
 2355              		.cfi_startproc
 2356              		@ Function supports interworking.
 2357              		@ args = 0, pretend = 0, frame = 0
 2358              		@ frame_needed = 1, uses_anonymous_args = 0
 2359 007c 0DC0A0E1 		mov	ip, sp
 2360              	.LCFI2:
 2361              		.cfi_def_cfa_register 12
 2362 0080 30D82DE9 		stmfd	sp!, {r4, r5, fp, ip, lr, pc}
  61:../tsp_antirebotes.c **** 	if(!atendiendo_pulsacion_tsp)
 2363              		.loc 1 61 0
 2364 0084 50409FE5 		ldr	r4, .L18
 2365              		.cfi_offset 14, -8
 2366              		.cfi_offset 13, -12
 2367              		.cfi_offset 11, -16
 2368              		.cfi_offset 5, -20
 2369              		.cfi_offset 4, -24
 2370 0088 085094E5 		ldr	r5, [r4, #8]
 2371 008c 000055E3 		cmp	r5, #0
  60:../tsp_antirebotes.c **** {
 2372              		.loc 1 60 0
 2373 0090 04B04CE2 		sub	fp, ip, #4
 2374              	.LCFI3:
 2375              		.cfi_def_cfa 11, 4
 2376              		.loc 1 61 0
 2377 0094 0200000A 		beq	.L17
 2378              	.L12:
  62:../tsp_antirebotes.c **** 	{
  63:../tsp_antirebotes.c **** 		atendiendo_pulsacion_tsp = 1;
  64:../tsp_antirebotes.c **** 		tsp_antirebotes();					//Se avisa a la máquina de estados para que inicie su ejecución
  65:../tsp_antirebotes.c **** 	}
  66:../tsp_antirebotes.c **** }
 2379              		.loc 1 66 0
 2380 0098 14D04BE2 		sub	sp, fp, #20
 2381 009c 30689DE8 		ldmfd	sp, {r4, r5, fp, sp, lr}
 2382 00a0 1EFF2FE1 		bx	lr
 2383              	.L17:
 2384              	.LBB14:
 2385              	.LBB16:
  39:../tsp_antirebotes.c **** 	switch(maquina_estados_tsp)
 2386              		.loc 1 39 0
 2387 00a4 0020D4E5 		ldrb	r2, [r4, #0]	@ zero_extendqisi2
 2388              	.LBE16:
 2389              	.LBE14:
  63:../tsp_antirebotes.c **** 		atendiendo_pulsacion_tsp = 1;
 2390              		.loc 1 63 0
 2391 00a8 0130A0E3 		mov	r3, #1
 2392              	.LBB20:
 2393              	.LBB15:
  39:../tsp_antirebotes.c **** 	switch(maquina_estados_tsp)
 2394              		.loc 1 39 0
 2395 00ac 000052E3 		cmp	r2, #0
 2396              	.LBE15:
 2397              	.LBE20:
  63:../tsp_antirebotes.c **** 		atendiendo_pulsacion_tsp = 1;
 2398              		.loc 1 63 0
 2399 00b0 083084E5 		str	r3, [r4, #8]
 2400              	.LBB21:
 2401              	.LBB19:
  45:../tsp_antirebotes.c **** 				maquina_estados_tsp = deshabilitadas_int;
 2402              		.loc 1 45 0
 2403 00b4 0030C405 		streqb	r3, [r4, #0]
  39:../tsp_antirebotes.c **** 	switch(maquina_estados_tsp)
 2404              		.loc 1 39 0
 2405 00b8 F6FFFF0A 		beq	.L12
  49:../tsp_antirebotes.c **** 			if(cuenta_ticks_tsp == t_espera_ticks_timer0)
 2406              		.loc 1 49 0
 2407 00bc 040094E5 		ldr	r0, [r4, #4]
 2408 00c0 1E0050E3 		cmp	r0, #30
 2409 00c4 F3FFFF1A 		bne	.L12
  52:../tsp_antirebotes.c **** 				tsp_resetear();
 2410              		.loc 1 52 0
 2411 00c8 FEFFFFEB 		bl	tsp_resetear
 2412              	.LBB17:
 2413              	.LBB18:
  31:../tsp_antirebotes.c **** 	maquina_estados_tsp = Inicio;
 2414              		.loc 1 31 0
 2415 00cc 0050C4E5 		strb	r5, [r4, #0]
  32:../tsp_antirebotes.c **** 	cuenta_ticks_tsp = 0;
 2416              		.loc 1 32 0
 2417 00d0 045084E5 		str	r5, [r4, #4]
  33:../tsp_antirebotes.c **** 	atendiendo_pulsacion_tsp = 0; 		//Inicialmente no se está atendiendo
 2418              		.loc 1 33 0
 2419 00d4 085084E5 		str	r5, [r4, #8]
 2420 00d8 EEFFFFEA 		b	.L12
 2421              	.L19:
 2422              		.align	2
 2423              	.L18:
 2424 00dc 00000000 		.word	.LANCHOR0
 2425              	.LBE18:
 2426              	.LBE17:
 2427              	.LBE19:
 2428              	.LBE21:
 2429              		.cfi_endproc
 2430              	.LFE2:
 2432              		.align	2
 2433              		.global	tsp_ev_tick0
 2435              	tsp_ev_tick0:
 2436              	.LFB3:
  67:../tsp_antirebotes.c **** 
  68:../tsp_antirebotes.c **** void tsp_ev_tick0(void)
  69:../tsp_antirebotes.c **** {	//Solo se incrementa el contador si es útil para la máquina de estados
 2437              		.loc 1 69 0
 2438              		.cfi_startproc
 2439              		@ Function supports interworking.
 2440              		@ args = 0, pretend = 0, frame = 0
 2441              		@ frame_needed = 1, uses_anonymous_args = 0
 2442 00e0 0DC0A0E1 		mov	ip, sp
 2443              	.LCFI4:
 2444              		.cfi_def_cfa_register 12
 2445 00e4 18D82DE9 		stmfd	sp!, {r3, r4, fp, ip, lr, pc}
  70:../tsp_antirebotes.c **** 	//	por tanto, si no estamos atendiendo ningún evento de pulsación no
  71:../tsp_antirebotes.c **** 	//	nos molestamos en hacer nada
  72:../tsp_antirebotes.c **** 	if(atendiendo_pulsacion_tsp)
 2446              		.loc 1 72 0
 2447 00e8 58409FE5 		ldr	r4, .L26
 2448              		.cfi_offset 14, -8
 2449              		.cfi_offset 13, -12
 2450              		.cfi_offset 11, -16
 2451              		.cfi_offset 4, -20
 2452              		.cfi_offset 3, -24
 2453 00ec 083094E5 		ldr	r3, [r4, #8]
 2454 00f0 000053E3 		cmp	r3, #0
  69:../tsp_antirebotes.c **** {	//Solo se incrementa el contador si es útil para la máquina de estados
 2455              		.loc 1 69 0
 2456 00f4 04B04CE2 		sub	fp, ip, #4
 2457              	.LCFI5:
 2458              		.cfi_def_cfa 11, 4
 2459              		.loc 1 72 0
 2460 00f8 0200001A 		bne	.L25
 2461              	.L20:
  73:../tsp_antirebotes.c **** 	{
  74:../tsp_antirebotes.c **** 		cuenta_ticks_tsp += 1;
  75:../tsp_antirebotes.c **** 		tsp_antirebotes();
  76:../tsp_antirebotes.c **** 	}
  77:../tsp_antirebotes.c **** }
 2462              		.loc 1 77 0
 2463 00fc 14D04BE2 		sub	sp, fp, #20
 2464 0100 18689DE8 		ldmfd	sp, {r3, r4, fp, sp, lr}
 2465 0104 1EFF2FE1 		bx	lr
 2466              	.L25:
  74:../tsp_antirebotes.c **** 		cuenta_ticks_tsp += 1;
 2467              		.loc 1 74 0
 2468 0108 040094E5 		ldr	r0, [r4, #4]
 2469              	.LBB26:
 2470              	.LBB28:
  39:../tsp_antirebotes.c **** 	switch(maquina_estados_tsp)
 2471              		.loc 1 39 0
 2472 010c 0020D4E5 		ldrb	r2, [r4, #0]	@ zero_extendqisi2
 2473              	.LBE28:
 2474              	.LBE26:
  74:../tsp_antirebotes.c **** 		cuenta_ticks_tsp += 1;
 2475              		.loc 1 74 0
 2476 0110 013080E2 		add	r3, r0, #1
 2477              	.LBB32:
 2478              	.LBB27:
  39:../tsp_antirebotes.c **** 	switch(maquina_estados_tsp)
 2479              		.loc 1 39 0
 2480 0114 000052E3 		cmp	r2, #0
 2481              	.LBE27:
 2482              	.LBE32:
  74:../tsp_antirebotes.c **** 		cuenta_ticks_tsp += 1;
 2483              		.loc 1 74 0
 2484 0118 043084E5 		str	r3, [r4, #4]
 2485              	.LBB33:
 2486              	.LBB31:
  45:../tsp_antirebotes.c **** 				maquina_estados_tsp = deshabilitadas_int;
 2487              		.loc 1 45 0
 2488 011c 0130A003 		moveq	r3, #1
 2489 0120 0030C405 		streqb	r3, [r4, #0]
  39:../tsp_antirebotes.c **** 	switch(maquina_estados_tsp)
 2490              		.loc 1 39 0
 2491 0124 F4FFFF0A 		beq	.L20
  49:../tsp_antirebotes.c **** 			if(cuenta_ticks_tsp == t_espera_ticks_timer0)
 2492              		.loc 1 49 0
 2493 0128 1E0053E3 		cmp	r3, #30
 2494 012c F2FFFF1A 		bne	.L20
  52:../tsp_antirebotes.c **** 				tsp_resetear();
 2495              		.loc 1 52 0
 2496 0130 FEFFFFEB 		bl	tsp_resetear
 2497              	.LBB29:
 2498              	.LBB30:
  31:../tsp_antirebotes.c **** 	maquina_estados_tsp = Inicio;
 2499              		.loc 1 31 0
 2500 0134 0010A0E3 		mov	r1, #0
 2501 0138 0010C4E5 		strb	r1, [r4, #0]
  32:../tsp_antirebotes.c **** 	cuenta_ticks_tsp = 0;
 2502              		.loc 1 32 0
 2503 013c 041084E5 		str	r1, [r4, #4]
  33:../tsp_antirebotes.c **** 	atendiendo_pulsacion_tsp = 0; 		//Inicialmente no se está atendiendo
 2504              		.loc 1 33 0
 2505 0140 081084E5 		str	r1, [r4, #8]
 2506 0144 ECFFFFEA 		b	.L20
 2507              	.L27:
 2508              		.align	2
 2509              	.L26:
 2510 0148 00000000 		.word	.LANCHOR0
 2511              	.LBE30:
 2512              	.LBE29:
 2513              	.LBE31:
 2514              	.LBE33:
 2515              		.cfi_endproc
 2516              	.LFE3:
 2518              		.comm	CheckTSP,4,4
 2519              		.comm	oneTouch,4,4
 2520              		.comm	Vx,4,4
 2521              		.comm	Vy,4,4
 2522              		.comm	Xmax,4,4
 2523              		.comm	Ymax,4,4
 2524              		.comm	Xmin,4,4
 2525              		.comm	Ymin,4,4
 2526              		.bss
 2527              		.align	2
 2528              		.set	.LANCHOR0,. + 0
 2531              	maquina_estados_tsp:
 2532 0000 00       		.space	1
 2533 0001 000000   		.space	3
 2536              	cuenta_ticks_tsp:
 2537 0004 00000000 		.space	4
 2540              	atendiendo_pulsacion_tsp:
 2541 0008 00000000 		.space	4
 2542              		.text
 2543              	.Letext0: