   1              		.cpu arm7tdmi
   2              		.fpu softvfp
   3              		.eabi_attribute 20, 1
   4              		.eabi_attribute 21, 1
   5              		.eabi_attribute 23, 3
   6              		.eabi_attribute 24, 1
   7              		.eabi_attribute 25, 1
   8              		.eabi_attribute 26, 1
   9              		.eabi_attribute 30, 2
  10              		.eabi_attribute 18, 4
  11              		.file	"main.c"
  21              	.Ltext0:
  22              		.file 1 "../main.c"
 2199              		.align	2
 2200              		.global	Main
 2202              	Main:
 2203              	.LFB0:
   1:../main.c     **** /*********************************************************************************************
   2:../main.c     **** * Fichero:	main.c
   3:../main.c     **** * Autor:	Profesores de la asignatura
   4:../main.c     **** *			Fernando Peña Bes (NIA: 756012)
   5:../main.c     **** *			Pedro José Pérez García (NIA: 756642)
   6:../main.c     **** * Descrip:	punto de entrada de C
   7:../main.c     **** * Version:  <P4-ARM.timer-leds>
   8:../main.c     **** *********************************************************************************************/
   9:../main.c     **** 
  10:../main.c     **** /*--- ficheros de cabecera ---*/
  11:../main.c     **** #include "8led.h"
  12:../main.c     **** #include "button.h"
  13:../main.c     **** #include "led.h"
  14:../main.c     **** #include "timer.h"
  15:../main.c     **** #include "44blib.h"
  16:../main.c     **** #include "44b.h"
  17:../main.c     **** #include "reversi8_2019.h"
  18:../main.c     **** #include "pruebas_timer2.h"
  19:../main.c     **** #include "rutinas_excepciones.h"
  20:../main.c     **** #include "cola_depuracion.h"
  21:../main.c     **** #include "reversi_main.h"
  22:../main.c     **** #include <stdint.h>
  23:../main.c     **** 
  24:../main.c     **** /*--- codigo de funciones ---*/
  25:../main.c     **** void Main(void)
  26:../main.c     **** {
 2204              		.loc 1 26 0
 2205              		.cfi_startproc
 2206              		@ Function supports interworking.
 2207              		@ args = 0, pretend = 0, frame = 0
 2208              		@ frame_needed = 1, uses_anonymous_args = 0
 2209 0000 0DC0A0E1 		mov	ip, sp
 2210              	.LCFI0:
 2211              		.cfi_def_cfa_register 12
 2212 0004 00D82DE9 		stmfd	sp!, {fp, ip, lr, pc}
 2213 0008 04B04CE2 		sub	fp, ip, #4
 2214              		.cfi_offset 14, -8
 2215              		.cfi_offset 13, -12
 2216              		.cfi_offset 11, -16
 2217              	.LCFI1:
 2218              		.cfi_def_cfa 11, 4
  27:../main.c     **** 	/* Inicializa controladores */
  28:../main.c     **** 	sys_init();         				// Inicializacion de la placa, interrupciones y puertos
 2219              		.loc 1 28 0
 2220 000c FEFFFFEB 		bl	sys_init
  29:../main.c     **** 	timer_init();	    				// Inicializacion del temporizador
 2221              		.loc 1 29 0
 2222 0010 FEFFFFEB 		bl	timer_init
  30:../main.c     **** 	button_iniciar();					// inicializamos los pulsadores. Cada vez que se pulse se verá reflejado en 
 2223              		.loc 1 30 0
 2224 0014 FEFFFFEB 		bl	button_iniciar
  31:../main.c     **** 	D8Led_init();      					// inicializamos el 8led
 2225              		.loc 1 31 0
 2226 0018 FEFFFFEB 		bl	D8Led_init
  32:../main.c     **** 	cola_depuracion_inicializar(32);	// Debe darse un tamaño suficiente para almacenar todos los event
 2227              		.loc 1 32 0
 2228 001c 2000A0E3 		mov	r0, #32
 2229 0020 FEFFFFEB 		bl	cola_depuracion_inicializar
  33:../main.c     **** 	Gestion_excepciones_init();			// Inicializa la gestión de excepciones SWI, UNDEF y DABORT
 2230              		.loc 1 33 0
 2231 0024 FEFFFFEB 		bl	Gestion_excepciones_init
  34:../main.c     **** 
  35:../main.c     **** 
  36:../main.c     **** 	/// Pruebas de excepciones ///
  37:../main.c     **** 	//asm volatile ("SWI 0x55");			//lanzar SWI
  38:../main.c     **** 	//asm volatile ("mov r3, #3");
  39:../main.c     **** 	//asm volatile ("ldr r2,[r3]");			//Forzar DABORT
  40:../main.c     **** 	//asm volatile (".word 0xe7f000f0\n");	//Forzar UNDEF
  41:../main.c     **** 	reversi_main();
 2232              		.loc 1 41 0
 2233 0028 FEFFFFEB 		bl	reversi_main
  42:../main.c     **** 
  43:../main.c     **** 
  44:../main.c     **** 
  45:../main.c     **** 	//// pruebas automáticas de timer2 ////
  46:../main.c     **** 	//pruebas_timer2();
  47:../main.c     **** 
  48:../main.c     **** 	//// pruebas automáticas de patron_volteo ////
  49:../main.c     **** 	//patron_volteo_prueba_resultado_igual();
  50:../main.c     **** 	//patron_volteo_prueba_resultado_correcto();
  51:../main.c     **** 
  52:../main.c     **** 
  53:../main.c     **** 	/* Valor inicial de los leds */
  54:../main.c     **** 	//leds_off();
  55:../main.c     **** 	//led1_on();
  56:../main.c     **** }
 2234              		.loc 1 56 0
 2235 002c 0CD04BE2 		sub	sp, fp, #12
 2236 0030 00689DE8 		ldmfd	sp, {fp, sp, lr}
 2237 0034 1EFF2FE1 		bx	lr
 2238              		.cfi_endproc
 2239              	.LFE0:
 2241              	.Letext0: