Archive member included because of file (symbol)

c:/programas-practicas-isa/eclipsearm/sourcery-g++-lite-arm-2011.03/bin/../lib/gcc/arm-none-eabi/4.5.2\libgcc.a(_divsi3.o)
                              ./common/44blib.o (__aeabi_idiv)
c:/programas-practicas-isa/eclipsearm/sourcery-g++-lite-arm-2011.03/bin/../lib/gcc/arm-none-eabi/4.5.2\libgcc.a(_dvmd_tls.o)
                              c:/programas-practicas-isa/eclipsearm/sourcery-g++-lite-arm-2011.03/bin/../lib/gcc/arm-none-eabi/4.5.2\libgcc.a(_divsi3.o) (__aeabi_idiv0)

Allocating common symbols
Common symbol       size              file

blancas             0x4               ./reversi8_2019.o
f                   0x1               ./reversi8_2019.o
fileSize            0x4               ./common/44blib.o
done                0x4               ./reversi8_2019.o
c                   0x1               ./reversi8_2019.o
negras              0x4               ./reversi8_2019.o
causa_fallo         0x4               ./rutinas_excepciones.o
downPt              0x4               ./common/44blib.o

Memory Configuration

Name             Origin             Length             Attributes
*default*        0x00000000         0xffffffff

Linker script and memory map

LOAD ./common/44binit.o
LOAD ./common/44blib.o
LOAD ./8led.o
LOAD ./botones_antirebotes.o
LOAD ./button.o
LOAD ./cola_depuracion.o
LOAD ./jugada_por_botones.o
LOAD ./led.o
LOAD ./main.o
LOAD ./main_medidas_optimizaciones.o
LOAD ./patron_volteo_arm_arm.o
LOAD ./patron_volteo_arm_arm_opt.o
LOAD ./patron_volteo_arm_c.o
LOAD ./pruebas_patron_volteo.o
LOAD ./pruebas_timer2.o
LOAD ./reversi8_2019.o
LOAD ./reversi_main.o
LOAD ./rutinas_excepciones.o
LOAD ./timer.o
LOAD ./timer2.o
START GROUP
LOAD c:/programas-practicas-isa/eclipsearm/sourcery-g++-lite-arm-2011.03/bin/../lib/gcc/arm-none-eabi/4.5.2\libgcc.a
LOAD c:/programas-practicas-isa/eclipsearm/sourcery-g++-lite-arm-2011.03/bin/../lib/gcc/arm-none-eabi/4.5.2/../../../../arm-none-eabi/lib\libc.a
END GROUP
                0x0c000000                . = 0xc000000
                0x0c000000                Image_RO_Base = .

.text           0x0c000000     0x35a4
 *(.text)
 .text          0x0c000000      0x70c ./common/44binit.o
 .text          0x0c00070c      0x46c ./common/44blib.o
                0x0c00070c                Delay
                0x0c000844                DelayMs
                0x0c0008a8                Port_Init
                0x0c000a38                malloc
                0x0c000ad8                free
                0x0c000b08                sys_init
 .text          0x0c000b78       0x78 ./8led.o
                0x0c000b78                D8Led_init
                0x0c000b9c                D8Led_symbol
 .text          0x0c000bf0      0x310 ./botones_antirebotes.o
                0x0c000bf0                botones_antirebotes_inicializar
                0x0c000c48                antirebotes
                0x0c000e48                button_ev_pulsacion
                0x0c000ea0                button_ev_tick0
 .text          0x0c000f00      0x2c8 ./button.o
                0x0c000f00                button_ISR
                0x0c000fb0                button_iniciar
                0x0c0010c4                button_resetear
                0x0c00111c                button_estado
 .text          0x0c0011c8      0x378 ./cola_depuracion.o
                0x0c0011c8                cola_depuracion_inicializar
                0x0c001274                push_debug
                0x0c001428                pop_debug
                0x0c00150c                esVacia
 .text          0x0c001540      0x344 ./jugada_por_botones.o
                0x0c001540                inicializar_jugada_botones
                0x0c0015b0                jugada_por_botones
                0x0c00182c                jugada_ev_der
                0x0c001858                jugada_ev_incrementar
 .text          0x0c001884      0x23c ./led.o
                0x0c001884                leds_on
                0x0c0018a4                leds_off
                0x0c0018c4                led1_on
                0x0c001904                led1_off
                0x0c001944                led2_on
                0x0c001984                led2_off
                0x0c0019c4                leds_switch
                0x0c001a04                Led_Display
 .text          0x0c001ac0       0x30 ./main.o
                0x0c001ac0                Main
 .text          0x0c001af0        0x0 ./main_medidas_optimizaciones.o
 .text          0x0c001af0       0xa0 ./patron_volteo_arm_arm.o
                0x0c001af0                patron_volteo_arm_arm
 .text          0x0c001b90       0x80 ./patron_volteo_arm_arm_opt.o
                0x0c001b90                patron_volteo_arm_arm_opt
 .text          0x0c001c10       0x8c ./patron_volteo_arm_c.o
                0x0c001c10                patron_volteo_arm_c
 .text          0x0c001c9c        0x0 ./pruebas_patron_volteo.o
 .text          0x0c001c9c      0x2dc ./pruebas_timer2.o
                0x0c001c9c                pruebas_timer2
 .text          0x0c001f78      0xdac ./reversi8_2019.o
                0x0c001f78                reversi_procesar
                0x0c001fd8                init_table
                0x0c0021a4                ficha_valida
                0x0c002258                patron_volteo
                0x0c00236c                voltear
                0x0c0023fc                actualizar_tablero
                0x0c0024f4                elegir_mov
                0x0c002700                contar
                0x0c0027fc                actualizar_candidatas
                0x0c002ae8                reversi8_inicializar
                0x0c002b14                reversi8
 .text          0x0c002d24      0x19c ./reversi_main.o
                0x0c002d24                reversi_main_inicializar
                0x0c002d70                dormir_procesador
                0x0c002d88                Latido_ev_new_tick
                0x0c002e28                reversi_main
 .text          0x0c002ec0      0x1a0 ./rutinas_excepciones.o
                0x0c002ec0                __get_CPSR
                0x0c002ee4                parpadear_error
                0x0c002f24                Gestion_excepciones
                0x0c003004                Gestion_excepciones_init
 .text          0x0c003060      0x18c ./timer.o
                0x0c003060                timer_ISR
                0x0c0030a8                timer_init
 .text          0x0c0031ec      0x26c ./timer2.o
                0x0c0031ec                timer2_ISR
                0x0c00323c                timer2_inicializar
                0x0c0032dc                timer2_empezar
                0x0c00337c                timer2_leer
                0x0c00341c                timer2_parar
 .text          0x0c003458      0x148 c:/programas-practicas-isa/eclipsearm/sourcery-g++-lite-arm-2011.03/bin/../lib/gcc/arm-none-eabi/4.5.2\libgcc.a(_divsi3.o)
                0x0c003458                __divsi3
                0x0c003458                __aeabi_idiv
                0x0c003580                __aeabi_idivmod
 .text          0x0c0035a0        0x4 c:/programas-practicas-isa/eclipsearm/sourcery-g++-lite-arm-2011.03/bin/../lib/gcc/arm-none-eabi/4.5.2\libgcc.a(_dvmd_tls.o)
                0x0c0035a0                __aeabi_idiv0
                0x0c0035a0                __aeabi_ldiv0

.glue_7         0x0c0035a4        0x0
 .glue_7        0x00000000        0x0 linker stubs

.glue_7t        0x0c0035a4        0x0
 .glue_7t       0x00000000        0x0 linker stubs

.vfp11_veneer   0x0c0035a4        0x0
 .vfp11_veneer  0x00000000        0x0 linker stubs

.v4_bx          0x0c0035a4        0x0
 .v4_bx         0x00000000        0x0 linker stubs
                0x0c0035a4                . = ALIGN (0x4)
                0x0c0035a4                Image_RO_Limit = .
                0x0c0035a4                Image_RW_Base = .

.data           0x0c0035a4       0x58
 *(.data)
 .data          0x0c0035a4        0x6 ./common/44binit.o
                0x0c0035a4                BDRAMTYPE
 *fill*         0x0c0035aa        0x2 00
 .data          0x0c0035ac        0xc ./common/44blib.o
                0x0c0035ac                mallocPt
                0x0c0035b0                run
 .data          0x0c0035b8       0x44 ./8led.o
 .data          0x0c0035fc        0x0 ./botones_antirebotes.o
 .data          0x0c0035fc        0x0 ./button.o
 .data          0x0c0035fc        0x0 ./cola_depuracion.o
 .data          0x0c0035fc        0x0 ./jugada_por_botones.o
 .data          0x0c0035fc        0x0 ./led.o
 .data          0x0c0035fc        0x0 ./main.o
 .data          0x0c0035fc        0x0 ./main_medidas_optimizaciones.o
 .data          0x0c0035fc        0x0 ./patron_volteo_arm_arm.o
 .data          0x0c0035fc        0x0 ./patron_volteo_arm_arm_opt.o
 .data          0x0c0035fc        0x0 ./patron_volteo_arm_c.o
 .data          0x0c0035fc        0x0 ./pruebas_patron_volteo.o
 .data          0x0c0035fc        0x0 ./pruebas_timer2.o
 .data          0x0c0035fc        0x0 ./reversi8_2019.o
 .data          0x0c0035fc        0x0 ./reversi_main.o
 .data          0x0c0035fc        0x0 ./rutinas_excepciones.o
 .data          0x0c0035fc        0x0 ./timer.o
 .data          0x0c0035fc        0x0 ./timer2.o
 .data          0x0c0035fc        0x0 c:/programas-practicas-isa/eclipsearm/sourcery-g++-lite-arm-2011.03/bin/../lib/gcc/arm-none-eabi/4.5.2\libgcc.a(_divsi3.o)
 .data          0x0c0035fc        0x0 c:/programas-practicas-isa/eclipsearm/sourcery-g++-lite-arm-2011.03/bin/../lib/gcc/arm-none-eabi/4.5.2\libgcc.a(_dvmd_tls.o)

.rodata         0x0c003600       0x60
 *(.rodata)
 .rodata        0x0c003600        0xc ./botones_antirebotes.o
                0x0c003600                TICKS_PARA_30MS
                0x0c003604                trp_en_ticks_timer0
                0x0c003608                trd_en_ticks_timer0
 .rodata        0x0c00360c        0x4 ./cola_depuracion.o
                0x0c00360c                _COLA_DEP_STARTADDRESS
 .rodata        0x0c003610       0x50 ./reversi8_2019.o
                0x0c003650                vSF
                0x0c003658                vSC
                0x0c003660                Image_RW_Limit = .
                0x0c003660                . = ALIGN (0x4)
                0x0c003660                Image_ZI_Base = .

.bss            0x0c003660      0x130
 *(.bss)
 .bss           0x0c003660        0x0 ./common/44binit.o
 .bss           0x0c003660        0x4 ./common/44blib.o
                0x0c003660                restart
 .bss           0x0c003664        0x0 ./8led.o
 .bss           0x0c003664       0x1c ./botones_antirebotes.o
 .bss           0x0c003680        0x4 ./button.o
 .bss           0x0c003684       0x18 ./cola_depuracion.o
 .bss           0x0c00369c       0x14 ./jugada_por_botones.o
 .bss           0x0c0036b0        0x4 ./led.o
 .bss           0x0c0036b4        0x4 ./main.o
 .bss           0x0c0036b8        0x0 ./main_medidas_optimizaciones.o
 .bss           0x0c0036b8        0x0 ./patron_volteo_arm_arm.o
 .bss           0x0c0036b8        0x0 ./patron_volteo_arm_arm_opt.o
 .bss           0x0c0036b8        0x0 ./patron_volteo_arm_c.o
 .bss           0x0c0036b8        0x0 ./pruebas_patron_volteo.o
 .bss           0x0c0036b8        0x4 ./pruebas_timer2.o
 *fill*         0x0c0036bc        0x4 00
 .bss           0x0c0036c0       0x98 ./reversi8_2019.o
                0x0c003748                move
                0x0c00374c                fin
 .bss           0x0c003758        0xc ./reversi_main.o
 .bss           0x0c003764        0x4 ./rutinas_excepciones.o
 .bss           0x0c003768        0x4 ./timer.o
 .bss           0x0c00376c        0x4 ./timer2.o
 .bss           0x0c003770        0x0 c:/programas-practicas-isa/eclipsearm/sourcery-g++-lite-arm-2011.03/bin/../lib/gcc/arm-none-eabi/4.5.2\libgcc.a(_divsi3.o)
 .bss           0x0c003770        0x0 c:/programas-practicas-isa/eclipsearm/sourcery-g++-lite-arm-2011.03/bin/../lib/gcc/arm-none-eabi/4.5.2\libgcc.a(_dvmd_tls.o)
 COMMON         0x0c003770        0x8 ./common/44blib.o
                0x0c003770                fileSize
                0x0c003774                downPt
 COMMON         0x0c003778       0x14 ./reversi8_2019.o
                0x0c003778                blancas
                0x0c00377c                f
                0x0c003780                done
                0x0c003784                c
                0x0c003788                negras
 COMMON         0x0c00378c        0x4 ./rutinas_excepciones.o
                0x0c00378c                causa_fallo
                0x0c003790                Image_ZI_Limit = .
                0x0c003790                __bss_start__ = .
                0x0c003790                __bss_end__ = .
                0x0c003790                __EH_FRAME_BEGIN__ = .
                0x0c003790                __EH_FRAME_END__ = .
                0x0c003790                PROVIDE (__stack, .)
                0x0c003790                end = .
                0x0c003790                _end = .

.ARM.attributes
                0x00000000       0x2e
 .ARM.attributes
                0x00000000       0x22 ./common/44binit.o
 .ARM.attributes
                0x00000022       0x32 ./common/44blib.o
 .ARM.attributes
                0x00000054       0x32 ./8led.o
 .ARM.attributes
                0x00000086       0x32 ./botones_antirebotes.o
 .ARM.attributes
                0x000000b8       0x32 ./button.o
 .ARM.attributes
                0x000000ea       0x32 ./cola_depuracion.o
 .ARM.attributes
                0x0000011c       0x32 ./jugada_por_botones.o
 .ARM.attributes
                0x0000014e       0x32 ./led.o
 .ARM.attributes
                0x00000180       0x32 ./main.o
 .ARM.attributes
                0x000001b2       0x32 ./main_medidas_optimizaciones.o
 .ARM.attributes
                0x000001e4       0x22 ./patron_volteo_arm_arm.o
 .ARM.attributes
                0x00000206       0x22 ./patron_volteo_arm_arm_opt.o
 .ARM.attributes
                0x00000228       0x22 ./patron_volteo_arm_c.o
 .ARM.attributes
                0x0000024a       0x32 ./pruebas_patron_volteo.o
 .ARM.attributes
                0x0000027c       0x32 ./pruebas_timer2.o
 .ARM.attributes
                0x000002ae       0x32 ./reversi8_2019.o
 .ARM.attributes
                0x000002e0       0x32 ./reversi_main.o
 .ARM.attributes
                0x00000312       0x32 ./rutinas_excepciones.o
 .ARM.attributes
                0x00000344       0x32 ./timer.o
 .ARM.attributes
                0x00000376       0x32 ./timer2.o
 .ARM.attributes
                0x000003a8       0x1a c:/programas-practicas-isa/eclipsearm/sourcery-g++-lite-arm-2011.03/bin/../lib/gcc/arm-none-eabi/4.5.2\libgcc.a(_divsi3.o)
 .ARM.attributes
                0x000003c2       0x18 c:/programas-practicas-isa/eclipsearm/sourcery-g++-lite-arm-2011.03/bin/../lib/gcc/arm-none-eabi/4.5.2\libgcc.a(_dvmd_tls.o)

.comment        0x00000000       0x2a
 .comment       0x00000000       0x2a ./common/44blib.o
                                 0x2b (size before relaxing)
 .comment       0x00000000       0x2b ./8led.o
 .comment       0x00000000       0x2b ./botones_antirebotes.o
 .comment       0x00000000       0x2b ./button.o
 .comment       0x00000000       0x2b ./cola_depuracion.o
 .comment       0x00000000       0x2b ./jugada_por_botones.o
 .comment       0x00000000       0x2b ./led.o
 .comment       0x00000000       0x2b ./main.o
 .comment       0x00000000       0x2b ./main_medidas_optimizaciones.o
 .comment       0x00000000       0x2b ./pruebas_patron_volteo.o
 .comment       0x00000000       0x2b ./pruebas_timer2.o
 .comment       0x00000000       0x2b ./reversi8_2019.o
 .comment       0x00000000       0x2b ./reversi_main.o
 .comment       0x00000000       0x2b ./rutinas_excepciones.o
 .comment       0x00000000       0x2b ./timer.o
 .comment       0x00000000       0x2b ./timer2.o

.debug_info     0x00000000     0x1a6d
 *(.debug_info)
 .debug_info    0x00000000       0x58 ./common/44binit.o
 .debug_info    0x00000058      0x229 ./common/44blib.o
 .debug_info    0x00000281      0x10d ./8led.o
 .debug_info    0x0000038e      0x1f5 ./botones_antirebotes.o
 .debug_info    0x00000583      0x150 ./button.o
 .debug_info    0x000006d3      0x212 ./cola_depuracion.o
 .debug_info    0x000008e5      0x11b ./jugada_por_botones.o
 .debug_info    0x00000a00       0xf6 ./led.o
 .debug_info    0x00000af6       0x9b ./main.o
 .debug_info    0x00000b91       0x29 ./main_medidas_optimizaciones.o
 .debug_info    0x00000bba       0x5f ./patron_volteo_arm_arm.o
 .debug_info    0x00000c19       0x63 ./patron_volteo_arm_arm_opt.o
 .debug_info    0x00000c7c       0x5d ./patron_volteo_arm_c.o
 .debug_info    0x00000cd9       0x29 ./pruebas_patron_volteo.o
 .debug_info    0x00000d02      0x1d9 ./pruebas_timer2.o
 .debug_info    0x00000edb      0x6df ./reversi8_2019.o
 .debug_info    0x000015ba      0x190 ./reversi_main.o
 .debug_info    0x0000174a      0x149 ./rutinas_excepciones.o
 .debug_info    0x00001893       0xdd ./timer.o
 .debug_info    0x00001970       0xfd ./timer2.o

.debug_line     0x00000000     0x1c66
 *(.debug_line)
 .debug_line    0x00000000      0x10f ./common/44binit.o
 .debug_line    0x0000010f      0x3cf ./common/44blib.o
 .debug_line    0x000004de       0x8e ./8led.o
 .debug_line    0x0000056c      0x273 ./botones_antirebotes.o
 .debug_line    0x000007df      0x219 ./button.o
 .debug_line    0x000009f8      0x1d0 ./cola_depuracion.o
 .debug_line    0x00000bc8      0x146 ./jugada_por_botones.o
 .debug_line    0x00000d0e       0xa1 ./led.o
 .debug_line    0x00000daf      0x247 ./main.o
 .debug_line    0x00000ff6       0x41 ./main_medidas_optimizaciones.o
 .debug_line    0x00001037       0x73 ./patron_volteo_arm_arm.o
 .debug_line    0x000010aa       0x6f ./patron_volteo_arm_arm_opt.o
 .debug_line    0x00001119       0x6c ./patron_volteo_arm_c.o
 .debug_line    0x00001185       0x3b ./pruebas_patron_volteo.o
 .debug_line    0x000011c0      0x15d ./pruebas_timer2.o
 .debug_line    0x0000131d      0x1e2 ./reversi8_2019.o
 .debug_line    0x000014ff      0x2ca ./reversi_main.o
 .debug_line    0x000017c9      0x211 ./rutinas_excepciones.o
 .debug_line    0x000019da      0x1e5 ./timer.o
 .debug_line    0x00001bbf       0xa7 ./timer2.o

.debug_abbrev   0x00000000      0xa7f
 *(.debug_abbrev)
 .debug_abbrev  0x00000000       0x14 ./common/44binit.o
 .debug_abbrev  0x00000014      0x11f ./common/44blib.o
 .debug_abbrev  0x00000133       0xa7 ./8led.o
 .debug_abbrev  0x000001da       0xc7 ./botones_antirebotes.o
 .debug_abbrev  0x000002a1       0xac ./button.o
 .debug_abbrev  0x0000034d       0xd6 ./cola_depuracion.o
 .debug_abbrev  0x00000423       0x6d ./jugada_por_botones.o
 .debug_abbrev  0x00000490       0x69 ./led.o
 .debug_abbrev  0x000004f9       0x57 ./main.o
 .debug_abbrev  0x00000550       0x16 ./main_medidas_optimizaciones.o
 .debug_abbrev  0x00000566       0x14 ./patron_volteo_arm_arm.o
 .debug_abbrev  0x0000057a       0x14 ./patron_volteo_arm_arm_opt.o
 .debug_abbrev  0x0000058e       0x14 ./patron_volteo_arm_c.o
 .debug_abbrev  0x000005a2       0x16 ./pruebas_patron_volteo.o
 .debug_abbrev  0x000005b8       0x8e ./pruebas_timer2.o
 .debug_abbrev  0x00000646      0x1b8 ./reversi8_2019.o
 .debug_abbrev  0x000007fe       0xa9 ./reversi_main.o
 .debug_abbrev  0x000008a7       0xd9 ./rutinas_excepciones.o
 .debug_abbrev  0x00000980       0x6d ./timer.o
 .debug_abbrev  0x000009ed       0x92 ./timer2.o

.debug_frame    0x00000000      0x8b0
 *(.debug_frame)
 .debug_frame   0x00000000       0xd0 ./common/44blib.o
 .debug_frame   0x000000d0       0x50 ./8led.o
 .debug_frame   0x00000120       0x90 ./botones_antirebotes.o
 .debug_frame   0x000001b0       0x9c ./button.o
 .debug_frame   0x0000024c       0x94 ./cola_depuracion.o
 .debug_frame   0x000002e0       0x90 ./jugada_por_botones.o
 .debug_frame   0x00000370      0x110 ./led.o
 .debug_frame   0x00000480       0x30 ./main.o
 .debug_frame   0x000004b0       0x30 ./pruebas_timer2.o
 .debug_frame   0x000004e0      0x170 ./reversi8_2019.o
 .debug_frame   0x00000650       0x90 ./reversi_main.o
 .debug_frame   0x000006e0       0x9c ./rutinas_excepciones.o
 .debug_frame   0x0000077c       0x5c ./timer.o
 .debug_frame   0x000007d8       0xb8 ./timer2.o
 .debug_frame   0x00000890       0x20 c:/programas-practicas-isa/eclipsearm/sourcery-g++-lite-arm-2011.03/bin/../lib/gcc/arm-none-eabi/4.5.2\libgcc.a(_divsi3.o)
OUTPUT(P2_PH.elf elf32-littlearm)

.debug_aranges  0x00000000      0x240
 .debug_aranges
                0x00000000       0x20 ./common/44binit.o
 .debug_aranges
                0x00000020       0x20 ./common/44blib.o
 .debug_aranges
                0x00000040       0x20 ./8led.o
 .debug_aranges
                0x00000060       0x20 ./botones_antirebotes.o
 .debug_aranges
                0x00000080       0x20 ./button.o
 .debug_aranges
                0x000000a0       0x20 ./cola_depuracion.o
 .debug_aranges
                0x000000c0       0x20 ./jugada_por_botones.o
 .debug_aranges
                0x000000e0       0x20 ./led.o
 .debug_aranges
                0x00000100       0x20 ./main.o
 .debug_aranges
                0x00000120       0x20 ./patron_volteo_arm_arm.o
 .debug_aranges
                0x00000140       0x20 ./patron_volteo_arm_arm_opt.o
 .debug_aranges
                0x00000160       0x20 ./patron_volteo_arm_c.o
 .debug_aranges
                0x00000180       0x20 ./pruebas_timer2.o
 .debug_aranges
                0x000001a0       0x20 ./reversi8_2019.o
 .debug_aranges
                0x000001c0       0x20 ./reversi_main.o
 .debug_aranges
                0x000001e0       0x20 ./rutinas_excepciones.o
 .debug_aranges
                0x00000200       0x20 ./timer.o
 .debug_aranges
                0x00000220       0x20 ./timer2.o

.debug_macinfo  0x00000000    0x49757
 .debug_macinfo
                0x00000000     0x8301 ./common/44blib.o
 .debug_macinfo
                0x00008301     0x50b0 ./8led.o
 .debug_macinfo
                0x0000d3b1     0x5a30 ./botones_antirebotes.o
 .debug_macinfo
                0x00012de1     0x5b68 ./button.o
 .debug_macinfo
                0x00018949     0x2ba6 ./cola_depuracion.o
 .debug_macinfo
                0x0001b4ef     0x5136 ./jugada_por_botones.o
 .debug_macinfo
                0x00020625     0x50af ./led.o
 .debug_macinfo
                0x000256d4     0x5a53 ./main.o
 .debug_macinfo
                0x0002b127     0x20fc ./main_medidas_optimizaciones.o
 .debug_macinfo
                0x0002d223     0x20fc ./pruebas_patron_volteo.o
 .debug_macinfo
                0x0002f31f     0x227f ./pruebas_timer2.o
 .debug_macinfo
                0x0003159e     0x2127 ./reversi8_2019.o
 .debug_macinfo
                0x000336c5     0x5aab ./reversi_main.o
 .debug_macinfo
                0x00039170     0x5b62 ./rutinas_excepciones.o
 .debug_macinfo
                0x0003ecd2     0x59d3 ./timer.o
 .debug_macinfo
                0x000446a5     0x50b2 ./timer2.o

.debug_loc      0x00000000      0xa50
 .debug_loc     0x00000000      0x108 ./common/44blib.o
 .debug_loc     0x00000108       0x58 ./8led.o
 .debug_loc     0x00000160       0xb0 ./botones_antirebotes.o
 .debug_loc     0x00000210       0xb0 ./button.o
 .debug_loc     0x000002c0       0xb0 ./cola_depuracion.o
 .debug_loc     0x00000370       0xb0 ./jugada_por_botones.o
 .debug_loc     0x00000420      0x160 ./led.o
 .debug_loc     0x00000580       0x2c ./main.o
 .debug_loc     0x000005ac       0x2c ./pruebas_timer2.o
 .debug_loc     0x000005d8      0x1e4 ./reversi8_2019.o
 .debug_loc     0x000007bc       0xb0 ./reversi_main.o
 .debug_loc     0x0000086c       0xb0 ./rutinas_excepciones.o
 .debug_loc     0x0000091c       0x58 ./timer.o
 .debug_loc     0x00000974       0xdc ./timer2.o

.debug_pubnames
                0x00000000      0x61e
 .debug_pubnames
                0x00000000       0x90 ./common/44blib.o
 .debug_pubnames
                0x00000090       0x32 ./8led.o
 .debug_pubnames
                0x000000c2       0xb6 ./botones_antirebotes.o
 .debug_pubnames
                0x00000178       0x5a ./button.o
 .debug_pubnames
                0x000001d2       0x76 ./cola_depuracion.o
 .debug_pubnames
                0x00000248       0x74 ./jugada_por_botones.o
 .debug_pubnames
                0x000002bc       0x7d ./led.o
 .debug_pubnames
                0x00000339       0x1b ./main.o
 .debug_pubnames
                0x00000354       0x25 ./pruebas_timer2.o
 .debug_pubnames
                0x00000379      0x123 ./reversi8_2019.o
 .debug_pubnames
                0x0000049c       0x6d ./reversi_main.o
 .debug_pubnames
                0x00000509       0x7a ./rutinas_excepciones.o
 .debug_pubnames
                0x00000583       0x2f ./timer.o
 .debug_pubnames
                0x000005b2       0x6c ./timer2.o

.debug_pubtypes
                0x00000000      0x12f
 .debug_pubtypes
                0x00000000       0x12 ./common/44blib.o
 .debug_pubtypes
                0x00000012       0x30 ./botones_antirebotes.o
 .debug_pubtypes
                0x00000042       0x24 ./button.o
 .debug_pubtypes
                0x00000066       0x2b ./cola_depuracion.o
 .debug_pubtypes
                0x00000091       0x1e ./jugada_por_botones.o
 .debug_pubtypes
                0x000000af       0x12 ./main.o
 .debug_pubtypes
                0x000000c1       0x3d ./reversi_main.o
 .debug_pubtypes
                0x000000fe       0x1f ./rutinas_excepciones.o
 .debug_pubtypes
                0x0000011d       0x12 ./timer.o

.debug_str      0x00000000      0x944
 .debug_str     0x00000000      0x112 ./common/44blib.o
                                0x150 (size before relaxing)
 .debug_str     0x00000112       0x6c ./8led.o
                                 0x9e (size before relaxing)
 .debug_str     0x0000017e      0x149 ./botones_antirebotes.o
                                0x1fa (size before relaxing)
 .debug_str     0x000002c7       0x95 ./button.o
                                0x17b (size before relaxing)
 .debug_str     0x0000035c       0xbe ./cola_depuracion.o
                                0x176 (size before relaxing)
 .debug_str     0x0000041a       0x90 ./jugada_por_botones.o
                                 0xed (size before relaxing)
 .debug_str     0x000004aa       0x68 ./led.o
                                 0x8d (size before relaxing)
 .debug_str     0x00000512        0xf ./main.o
                                 0xc7 (size before relaxing)
 .debug_str     0x00000521       0x21 ./main_medidas_optimizaciones.o
                                 0x46 (size before relaxing)
 .debug_str     0x00000542       0x1b ./pruebas_patron_volteo.o
                                 0x40 (size before relaxing)
 .debug_str     0x0000055d       0x9f ./pruebas_timer2.o
                                 0xe0 (size before relaxing)
 .debug_str     0x000005fc      0x172 ./reversi8_2019.o
                                0x1d8 (size before relaxing)
 .debug_str     0x0000076e       0x7b ./reversi_main.o
                                0x1be (size before relaxing)
 .debug_str     0x000007e9       0xa0 ./rutinas_excepciones.o
                                0x152 (size before relaxing)
 .debug_str     0x00000889       0x20 ./timer.o
                                0x113 (size before relaxing)
 .debug_str     0x000008a9       0x9b ./timer2.o
                                 0xdc (size before relaxing)
