Archive member included because of file (symbol)

c:/programas-practicas-isa/eclipsearm/sourcery-g++-lite-arm-2011.03/bin/../lib/gcc/arm-none-eabi/4.5.2\libgcc.a(_divsi3.o)
                              ./common/44blib.o (__aeabi_idiv)
c:/programas-practicas-isa/eclipsearm/sourcery-g++-lite-arm-2011.03/bin/../lib/gcc/arm-none-eabi/4.5.2\libgcc.a(_dvmd_tls.o)
                              c:/programas-practicas-isa/eclipsearm/sourcery-g++-lite-arm-2011.03/bin/../lib/gcc/arm-none-eabi/4.5.2\libgcc.a(_divsi3.o) (__aeabi_idiv0)

Allocating common symbols
Common symbol       size              file

fileSize            0x4               ./common/44blib.o
causa_fallo         0x4               ./rutinas_excepciones.o
downPt              0x4               ./common/44blib.o

Memory Configuration

Name             Origin             Length             Attributes
*default*        0x00000000         0xffffffff

Linker script and memory map

LOAD ./common/44binit.o
LOAD ./common/44blib.o
LOAD ./8led.o
LOAD ./button.o
LOAD ./cola_depuracion.o
LOAD ./led.o
LOAD ./main.o
LOAD ./main_medidas_optimizaciones.o
LOAD ./patron_volteo_arm_arm.o
LOAD ./patron_volteo_arm_arm_opt.o
LOAD ./patron_volteo_arm_c.o
LOAD ./pruebas_patron_volteo.o
LOAD ./pruebas_timer2.o
LOAD ./reversi8_2019.o
LOAD ./reversi8_2019_arm_c.o
LOAD ./reversi8_2019_c.o
LOAD ./reversi_main.o
LOAD ./rutinas_excepciones.o
LOAD ./timer.o
LOAD ./timer2.o
START GROUP
LOAD c:/programas-practicas-isa/eclipsearm/sourcery-g++-lite-arm-2011.03/bin/../lib/gcc/arm-none-eabi/4.5.2\libgcc.a
LOAD c:/programas-practicas-isa/eclipsearm/sourcery-g++-lite-arm-2011.03/bin/../lib/gcc/arm-none-eabi/4.5.2/../../../../arm-none-eabi/lib\libc.a
END GROUP
                0x0c000000                . = 0xc000000
                0x0c000000                Image_RO_Base = .

.text           0x0c000000     0x45c4
 *(.text)
 .text          0x0c000000      0x70c ./common/44binit.o
 .text          0x0c00070c      0x46c ./common/44blib.o
                0x0c00070c                Delay
                0x0c000844                DelayMs
                0x0c0008a8                Port_Init
                0x0c000a38                malloc
                0x0c000ad8                free
                0x0c000b08                sys_init
 .text          0x0c000b78       0x78 ./8led.o
                0x0c000b78                D8Led_init
                0x0c000b9c                D8Led_symbol
 .text          0x0c000bf0      0x2ec ./button.o
                0x0c000bf0                button_ISR
                0x0c000c88                button_iniciar
                0x0c000d9c                button_resetear
                0x0c000df4                button_estado
                0x0c000ea0                button_ev_pulsacion
                0x0c000ec4                button_ev_tick0
 .text          0x0c000edc      0x378 ./cola_depuracion.o
                0x0c000edc                cola_depuracion_inicializar
                0x0c000f88                push_debug
                0x0c00113c                pop_debug
                0x0c001220                esVacia
 .text          0x0c001254      0x23c ./led.o
                0x0c001254                leds_on
                0x0c001274                leds_off
                0x0c001294                led1_on
                0x0c0012d4                led1_off
                0x0c001314                led2_on
                0x0c001354                led2_off
                0x0c001394                leds_switch
                0x0c0013d4                Led_Display
 .text          0x0c001490       0x30 ./main.o
                0x0c001490                Main
 .text          0x0c0014c0        0x0 ./main_medidas_optimizaciones.o
 .text          0x0c0014c0       0xa0 ./patron_volteo_arm_arm.o
                0x0c0014c0                patron_volteo_arm_arm
 .text          0x0c001560       0x80 ./patron_volteo_arm_arm_opt.o
                0x0c001560                patron_volteo_arm_arm_opt
 .text          0x0c0015e0       0x8c ./patron_volteo_arm_c.o
                0x0c0015e0                patron_volteo_arm_c
 .text          0x0c00166c        0x0 ./pruebas_patron_volteo.o
 .text          0x0c00166c      0x2dc ./pruebas_timer2.o
                0x0c00166c                pruebas_timer2
 .text          0x0c001948     0x2420 ./reversi8_2019.o
                0x0c001948                init_table
                0x0c001b5c                esperar_mov
                0x0c001ba0                ficha_valida
                0x0c001c54                patron_volteo
                0x0c001d68                patron_volteo_test_tiempos
                0x0c001f44                patron_volteo_test
                0x0c00208c                voltear
                0x0c00211c                actualizar_tablero
                0x0c002214                elegir_mov
                0x0c00242c                contar
                0x0c002528                actualizar_candidatas
                0x0c002880                reversi8
                0x0c003004                comprobarFicha
                0x0c0030f8                patron_volteo_prueba_resultado_igual
                0x0c00336c                evaluar_patron_volteo
                0x0c003458                patron_volteo_prueba_resultado_correcto
 .text          0x0c003d68        0x0 ./reversi8_2019_arm_c.o
 .text          0x0c003d68        0x0 ./reversi8_2019_c.o
 .text          0x0c003d68      0x188 ./reversi_main.o
                0x0c003d68                reversi_inicializar
                0x0c003da8                dormir_procesador
                0x0c003dc0                Latido_ev_new_tick
                0x0c003e60                reversi_main
 .text          0x0c003ef0      0x1a0 ./rutinas_excepciones.o
                0x0c003ef0                __get_CPSR
                0x0c003f14                parpadear_error
                0x0c003f54                Gestion_excepciones
                0x0c004034                Gestion_excepciones_init
 .text          0x0c004090      0x17c ./timer.o
                0x0c004090                timer_ISR
                0x0c0040c8                timer_init
 .text          0x0c00420c      0x26c ./timer2.o
                0x0c00420c                timer2_ISR
                0x0c00425c                timer2_inicializar
                0x0c0042fc                timer2_empezar
                0x0c00439c                timer2_leer
                0x0c00443c                timer2_parar
 .text          0x0c004478      0x148 c:/programas-practicas-isa/eclipsearm/sourcery-g++-lite-arm-2011.03/bin/../lib/gcc/arm-none-eabi/4.5.2\libgcc.a(_divsi3.o)
                0x0c004478                __divsi3
                0x0c004478                __aeabi_idiv
                0x0c0045a0                __aeabi_idivmod
 .text          0x0c0045c0        0x4 c:/programas-practicas-isa/eclipsearm/sourcery-g++-lite-arm-2011.03/bin/../lib/gcc/arm-none-eabi/4.5.2\libgcc.a(_dvmd_tls.o)
                0x0c0045c0                __aeabi_idiv0
                0x0c0045c0                __aeabi_ldiv0

.glue_7         0x0c0045c4        0x0
 .glue_7        0x00000000        0x0 linker stubs

.glue_7t        0x0c0045c4        0x0
 .glue_7t       0x00000000        0x0 linker stubs

.vfp11_veneer   0x0c0045c4        0x0
 .vfp11_veneer  0x00000000        0x0 linker stubs

.v4_bx          0x0c0045c4        0x0
 .v4_bx         0x00000000        0x0 linker stubs
                0x0c0045c4                . = ALIGN (0x4)
                0x0c0045c4                Image_RO_Limit = .
                0x0c0045c4                Image_RW_Base = .

.data           0x0c0045c8      0x518
 *(.data)
 .data          0x0c0045c8        0x6 ./common/44binit.o
                0x0c0045c8                BDRAMTYPE
 *fill*         0x0c0045ce        0x2 00
 .data          0x0c0045d0        0xc ./common/44blib.o
                0x0c0045d0                mallocPt
                0x0c0045d4                run
 .data          0x0c0045dc       0x44 ./8led.o
 .data          0x0c004620        0x0 ./button.o
 .data          0x0c004620        0x0 ./cola_depuracion.o
 .data          0x0c004620        0x0 ./led.o
 .data          0x0c004620        0x0 ./main.o
 .data          0x0c004620        0x0 ./main_medidas_optimizaciones.o
 .data          0x0c004620        0x0 ./patron_volteo_arm_arm.o
 .data          0x0c004620        0x0 ./patron_volteo_arm_arm_opt.o
 .data          0x0c004620        0x0 ./patron_volteo_arm_c.o
 .data          0x0c004620        0x0 ./pruebas_patron_volteo.o
 .data          0x0c004620        0x0 ./pruebas_timer2.o
 .data          0x0c004620      0x4c0 ./reversi8_2019.o
 .data          0x0c004ae0        0x0 ./reversi8_2019_arm_c.o
 .data          0x0c004ae0        0x0 ./reversi8_2019_c.o
 .data          0x0c004ae0        0x0 ./reversi_main.o
 .data          0x0c004ae0        0x0 ./rutinas_excepciones.o
 .data          0x0c004ae0        0x0 ./timer.o
 .data          0x0c004ae0        0x0 ./timer2.o
 .data          0x0c004ae0        0x0 c:/programas-practicas-isa/eclipsearm/sourcery-g++-lite-arm-2011.03/bin/../lib/gcc/arm-none-eabi/4.5.2\libgcc.a(_divsi3.o)
 .data          0x0c004ae0        0x0 c:/programas-practicas-isa/eclipsearm/sourcery-g++-lite-arm-2011.03/bin/../lib/gcc/arm-none-eabi/4.5.2\libgcc.a(_dvmd_tls.o)

.rodata         0x0c004ae0      0x2e0
 *(.rodata)
 .rodata        0x0c004ae0        0x4 ./cola_depuracion.o
                0x0c004ae0                _COLA_DEP_STARTADDRESS
 *fill*         0x0c004ae4        0x4 00
 .rodata        0x0c004ae8      0x2d8 ./reversi8_2019.o
                0x0c004ae8                NO
                0x0c004ae9                SI
                0x0c004aea                CASILLA_OCUPADA
                0x0c004b30                vSF
                0x0c004b38                vSC
                0x0c004dc0                Image_RW_Limit = .
                0x0c004dc0                . = ALIGN (0x4)
                0x0c004dc0                Image_ZI_Base = .

.bss            0x0c004dc0      0x124
 *(.bss)
 .bss           0x0c004dc0        0x0 ./common/44binit.o
 .bss           0x0c004dc0        0x4 ./common/44blib.o
                0x0c004dc0                restart
 .bss           0x0c004dc4        0x0 ./8led.o
 .bss           0x0c004dc4        0x4 ./button.o
 .bss           0x0c004dc8       0x18 ./cola_depuracion.o
 .bss           0x0c004de0        0x4 ./led.o
 .bss           0x0c004de4        0x4 ./main.o
 .bss           0x0c004de8        0x0 ./main_medidas_optimizaciones.o
 .bss           0x0c004de8        0x0 ./patron_volteo_arm_arm.o
 .bss           0x0c004de8        0x0 ./patron_volteo_arm_arm_opt.o
 .bss           0x0c004de8        0x0 ./patron_volteo_arm_c.o
 .bss           0x0c004de8        0x0 ./pruebas_patron_volteo.o
 .bss           0x0c004de8        0x4 ./pruebas_timer2.o
 *fill*         0x0c004dec        0x4 00
 .bss           0x0c004df0       0xd0 ./reversi8_2019.o
                0x0c004e38                fila
                0x0c004e39                columna
                0x0c004e3a                ready
 .bss           0x0c004ec0        0x0 ./reversi8_2019_arm_c.o
 .bss           0x0c004ec0        0x0 ./reversi8_2019_c.o
 .bss           0x0c004ec0        0xc ./reversi_main.o
 .bss           0x0c004ecc        0x4 ./rutinas_excepciones.o
 .bss           0x0c004ed0        0x4 ./timer.o
 .bss           0x0c004ed4        0x4 ./timer2.o
 .bss           0x0c004ed8        0x0 c:/programas-practicas-isa/eclipsearm/sourcery-g++-lite-arm-2011.03/bin/../lib/gcc/arm-none-eabi/4.5.2\libgcc.a(_divsi3.o)
 .bss           0x0c004ed8        0x0 c:/programas-practicas-isa/eclipsearm/sourcery-g++-lite-arm-2011.03/bin/../lib/gcc/arm-none-eabi/4.5.2\libgcc.a(_dvmd_tls.o)
 COMMON         0x0c004ed8        0x8 ./common/44blib.o
                0x0c004ed8                fileSize
                0x0c004edc                downPt
 COMMON         0x0c004ee0        0x4 ./rutinas_excepciones.o
                0x0c004ee0                causa_fallo
                0x0c004ee4                Image_ZI_Limit = .
                0x0c004ee4                __bss_start__ = .
                0x0c004ee4                __bss_end__ = .
                0x0c004ee4                __EH_FRAME_BEGIN__ = .
                0x0c004ee4                __EH_FRAME_END__ = .
                0x0c004ee4                PROVIDE (__stack, .)
                0x0c004ee4                end = .
                0x0c004ee4                _end = .

.ARM.attributes
                0x00000000       0x2e
 .ARM.attributes
                0x00000000       0x22 ./common/44binit.o
 .ARM.attributes
                0x00000022       0x32 ./common/44blib.o
 .ARM.attributes
                0x00000054       0x32 ./8led.o
 .ARM.attributes
                0x00000086       0x32 ./button.o
 .ARM.attributes
                0x000000b8       0x32 ./cola_depuracion.o
 .ARM.attributes
                0x000000ea       0x32 ./led.o
 .ARM.attributes
                0x0000011c       0x32 ./main.o
 .ARM.attributes
                0x0000014e       0x32 ./main_medidas_optimizaciones.o
 .ARM.attributes
                0x00000180       0x22 ./patron_volteo_arm_arm.o
 .ARM.attributes
                0x000001a2       0x22 ./patron_volteo_arm_arm_opt.o
 .ARM.attributes
                0x000001c4       0x22 ./patron_volteo_arm_c.o
 .ARM.attributes
                0x000001e6       0x32 ./pruebas_patron_volteo.o
 .ARM.attributes
                0x00000218       0x32 ./pruebas_timer2.o
 .ARM.attributes
                0x0000024a       0x32 ./reversi8_2019.o
 .ARM.attributes
                0x0000027c       0x32 ./reversi8_2019_arm_c.o
 .ARM.attributes
                0x000002ae       0x32 ./reversi8_2019_c.o
 .ARM.attributes
                0x000002e0       0x32 ./reversi_main.o
 .ARM.attributes
                0x00000312       0x32 ./rutinas_excepciones.o
 .ARM.attributes
                0x00000344       0x32 ./timer.o
 .ARM.attributes
                0x00000376       0x32 ./timer2.o
 .ARM.attributes
                0x000003a8       0x1a c:/programas-practicas-isa/eclipsearm/sourcery-g++-lite-arm-2011.03/bin/../lib/gcc/arm-none-eabi/4.5.2\libgcc.a(_divsi3.o)
 .ARM.attributes
                0x000003c2       0x18 c:/programas-practicas-isa/eclipsearm/sourcery-g++-lite-arm-2011.03/bin/../lib/gcc/arm-none-eabi/4.5.2\libgcc.a(_dvmd_tls.o)

.comment        0x00000000       0x2a
 .comment       0x00000000       0x2a ./common/44blib.o
                                 0x2b (size before relaxing)
 .comment       0x00000000       0x2b ./8led.o
 .comment       0x00000000       0x2b ./button.o
 .comment       0x00000000       0x2b ./cola_depuracion.o
 .comment       0x00000000       0x2b ./led.o
 .comment       0x00000000       0x2b ./main.o
 .comment       0x00000000       0x2b ./main_medidas_optimizaciones.o
 .comment       0x00000000       0x2b ./pruebas_patron_volteo.o
 .comment       0x00000000       0x2b ./pruebas_timer2.o
 .comment       0x00000000       0x2b ./reversi8_2019.o
 .comment       0x00000000       0x2b ./reversi8_2019_arm_c.o
 .comment       0x00000000       0x2b ./reversi8_2019_c.o
 .comment       0x00000000       0x2b ./reversi_main.o
 .comment       0x00000000       0x2b ./rutinas_excepciones.o
 .comment       0x00000000       0x2b ./timer.o
 .comment       0x00000000       0x2b ./timer2.o

.debug_info     0x00000000     0x1e7f
 *(.debug_info)
 .debug_info    0x00000000       0x58 ./common/44binit.o
 .debug_info    0x00000058      0x229 ./common/44blib.o
 .debug_info    0x00000281      0x10d ./8led.o
 .debug_info    0x0000038e      0x18d ./button.o
 .debug_info    0x0000051b      0x212 ./cola_depuracion.o
 .debug_info    0x0000072d       0xf6 ./led.o
 .debug_info    0x00000823       0x9b ./main.o
 .debug_info    0x000008be       0x29 ./main_medidas_optimizaciones.o
 .debug_info    0x000008e7       0x5f ./patron_volteo_arm_arm.o
 .debug_info    0x00000946       0x63 ./patron_volteo_arm_arm_opt.o
 .debug_info    0x000009a9       0x5d ./patron_volteo_arm_c.o
 .debug_info    0x00000a06       0x29 ./pruebas_patron_volteo.o
 .debug_info    0x00000a2f      0x1d9 ./pruebas_timer2.o
 .debug_info    0x00000c08      0xd9f ./reversi8_2019.o
 .debug_info    0x000019a7       0x29 ./reversi8_2019_arm_c.o
 .debug_info    0x000019d0       0x29 ./reversi8_2019_c.o
 .debug_info    0x000019f9      0x190 ./reversi_main.o
 .debug_info    0x00001b89      0x149 ./rutinas_excepciones.o
 .debug_info    0x00001cd2       0xb0 ./timer.o
 .debug_info    0x00001d82       0xfd ./timer2.o

.debug_line     0x00000000     0x1b16
 *(.debug_line)
 .debug_line    0x00000000      0x10f ./common/44binit.o
 .debug_line    0x0000010f      0x3cf ./common/44blib.o
 .debug_line    0x000004de       0x8e ./8led.o
 .debug_line    0x0000056c      0x21c ./button.o
 .debug_line    0x00000788      0x1d0 ./cola_depuracion.o
 .debug_line    0x00000958       0xa1 ./led.o
 .debug_line    0x000009f9      0x247 ./main.o
 .debug_line    0x00000c40       0x41 ./main_medidas_optimizaciones.o
 .debug_line    0x00000c81       0x73 ./patron_volteo_arm_arm.o
 .debug_line    0x00000cf4       0x6f ./patron_volteo_arm_arm_opt.o
 .debug_line    0x00000d63       0x6c ./patron_volteo_arm_c.o
 .debug_line    0x00000dcf       0x3b ./pruebas_patron_volteo.o
 .debug_line    0x00000e0a      0x15d ./pruebas_timer2.o
 .debug_line    0x00000f67      0x417 ./reversi8_2019.o
 .debug_line    0x0000137e       0x39 ./reversi8_2019_arm_c.o
 .debug_line    0x000013b7       0x35 ./reversi8_2019_c.o
 .debug_line    0x000013ec      0x28e ./reversi_main.o
 .debug_line    0x0000167a      0x211 ./rutinas_excepciones.o
 .debug_line    0x0000188b      0x1e4 ./timer.o
 .debug_line    0x00001a6f       0xa7 ./timer2.o

.debug_abbrev   0x00000000      0x966
 *(.debug_abbrev)
 .debug_abbrev  0x00000000       0x14 ./common/44binit.o
 .debug_abbrev  0x00000014      0x11f ./common/44blib.o
 .debug_abbrev  0x00000133       0xa7 ./8led.o
 .debug_abbrev  0x000001da       0xbb ./button.o
 .debug_abbrev  0x00000295       0xd6 ./cola_depuracion.o
 .debug_abbrev  0x0000036b       0x69 ./led.o
 .debug_abbrev  0x000003d4       0x57 ./main.o
 .debug_abbrev  0x0000042b       0x16 ./main_medidas_optimizaciones.o
 .debug_abbrev  0x00000441       0x14 ./patron_volteo_arm_arm.o
 .debug_abbrev  0x00000455       0x14 ./patron_volteo_arm_arm_opt.o
 .debug_abbrev  0x00000469       0x14 ./patron_volteo_arm_c.o
 .debug_abbrev  0x0000047d       0x16 ./pruebas_patron_volteo.o
 .debug_abbrev  0x00000493       0x8e ./pruebas_timer2.o
 .debug_abbrev  0x00000521      0x1ae ./reversi8_2019.o
 .debug_abbrev  0x000006cf       0x16 ./reversi8_2019_arm_c.o
 .debug_abbrev  0x000006e5       0x16 ./reversi8_2019_c.o
 .debug_abbrev  0x000006fb       0xa9 ./reversi_main.o
 .debug_abbrev  0x000007a4       0xd9 ./rutinas_excepciones.o
 .debug_abbrev  0x0000087d       0x57 ./timer.o
 .debug_abbrev  0x000008d4       0x92 ./timer2.o

.debug_frame    0x00000000      0x884
 *(.debug_frame)
 .debug_frame   0x00000000       0xd0 ./common/44blib.o
 .debug_frame   0x000000d0       0x50 ./8led.o
 .debug_frame   0x00000120       0xdc ./button.o
 .debug_frame   0x000001fc       0x94 ./cola_depuracion.o
 .debug_frame   0x00000290      0x110 ./led.o
 .debug_frame   0x000003a0       0x30 ./main.o
 .debug_frame   0x000003d0       0x30 ./pruebas_timer2.o
 .debug_frame   0x00000400      0x228 ./reversi8_2019.o
 .debug_frame   0x00000628       0x90 ./reversi_main.o
 .debug_frame   0x000006b8       0x9c ./rutinas_excepciones.o
 .debug_frame   0x00000754       0x58 ./timer.o
 .debug_frame   0x000007ac       0xb8 ./timer2.o
 .debug_frame   0x00000864       0x20 c:/programas-practicas-isa/eclipsearm/sourcery-g++-lite-arm-2011.03/bin/../lib/gcc/arm-none-eabi/4.5.2\libgcc.a(_divsi3.o)
OUTPUT(P2_PH.elf elf32-littlearm)

.debug_aranges  0x00000000      0x200
 .debug_aranges
                0x00000000       0x20 ./common/44binit.o
 .debug_aranges
                0x00000020       0x20 ./common/44blib.o
 .debug_aranges
                0x00000040       0x20 ./8led.o
 .debug_aranges
                0x00000060       0x20 ./button.o
 .debug_aranges
                0x00000080       0x20 ./cola_depuracion.o
 .debug_aranges
                0x000000a0       0x20 ./led.o
 .debug_aranges
                0x000000c0       0x20 ./main.o
 .debug_aranges
                0x000000e0       0x20 ./patron_volteo_arm_arm.o
 .debug_aranges
                0x00000100       0x20 ./patron_volteo_arm_arm_opt.o
 .debug_aranges
                0x00000120       0x20 ./patron_volteo_arm_c.o
 .debug_aranges
                0x00000140       0x20 ./pruebas_timer2.o
 .debug_aranges
                0x00000160       0x20 ./reversi8_2019.o
 .debug_aranges
                0x00000180       0x20 ./reversi_main.o
 .debug_aranges
                0x000001a0       0x20 ./rutinas_excepciones.o
 .debug_aranges
                0x000001c0       0x20 ./timer.o
 .debug_aranges
                0x000001e0       0x20 ./timer2.o

.debug_macinfo  0x00000000    0x42dac
 .debug_macinfo
                0x00000000     0x8301 ./common/44blib.o
 .debug_macinfo
                0x00008301     0x50b0 ./8led.o
 .debug_macinfo
                0x0000d3b1     0x5b68 ./button.o
 .debug_macinfo
                0x00012f19     0x2ba6 ./cola_depuracion.o
 .debug_macinfo
                0x00015abf     0x50af ./led.o
 .debug_macinfo
                0x0001ab6e     0x5a53 ./main.o
 .debug_macinfo
                0x000205c1     0x20fc ./main_medidas_optimizaciones.o
 .debug_macinfo
                0x000226bd     0x20fc ./pruebas_patron_volteo.o
 .debug_macinfo
                0x000247b9     0x227f ./pruebas_timer2.o
 .debug_macinfo
                0x00026a38     0x2127 ./reversi8_2019.o
 .debug_macinfo
                0x00028b5f     0x20fc ./reversi8_2019_arm_c.o
 .debug_macinfo
                0x0002ac5b     0x20fc ./reversi8_2019_c.o
 .debug_macinfo
                0x0002cd57     0x5a6e ./reversi_main.o
 .debug_macinfo
                0x000327c5     0x5b62 ./rutinas_excepciones.o
 .debug_macinfo
                0x00038327     0x59d3 ./timer.o
 .debug_macinfo
                0x0003dcfa     0x50b2 ./timer2.o

.debug_loc      0x00000000      0xa24
 .debug_loc     0x00000000      0x108 ./common/44blib.o
 .debug_loc     0x00000108       0x58 ./8led.o
 .debug_loc     0x00000160      0x108 ./button.o
 .debug_loc     0x00000268       0xb0 ./cola_depuracion.o
 .debug_loc     0x00000318      0x160 ./led.o
 .debug_loc     0x00000478       0x2c ./main.o
 .debug_loc     0x000004a4       0x2c ./pruebas_timer2.o
 .debug_loc     0x000004d0      0x2c0 ./reversi8_2019.o
 .debug_loc     0x00000790       0xb0 ./reversi_main.o
 .debug_loc     0x00000840       0xb0 ./rutinas_excepciones.o
 .debug_loc     0x000008f0       0x58 ./timer.o
 .debug_loc     0x00000948       0xdc ./timer2.o

.debug_pubnames
                0x00000000      0x5b9
 .debug_pubnames
                0x00000000       0x90 ./common/44blib.o
 .debug_pubnames
                0x00000090       0x32 ./8led.o
 .debug_pubnames
                0x000000c2       0x86 ./button.o
 .debug_pubnames
                0x00000148       0x76 ./cola_depuracion.o
 .debug_pubnames
                0x000001be       0x7d ./led.o
 .debug_pubnames
                0x0000023b       0x1b ./main.o
 .debug_pubnames
                0x00000256       0x25 ./pruebas_timer2.o
 .debug_pubnames
                0x0000027b      0x1c1 ./reversi8_2019.o
 .debug_pubnames
                0x0000043c       0x68 ./reversi_main.o
 .debug_pubnames
                0x000004a4       0x7a ./rutinas_excepciones.o
 .debug_pubnames
                0x0000051e       0x2f ./timer.o
 .debug_pubnames
                0x0000054d       0x6c ./timer2.o

.debug_pubtypes
                0x00000000       0xe1
 .debug_pubtypes
                0x00000000       0x12 ./common/44blib.o
 .debug_pubtypes
                0x00000012       0x24 ./button.o
 .debug_pubtypes
                0x00000036       0x2b ./cola_depuracion.o
 .debug_pubtypes
                0x00000061       0x12 ./main.o
 .debug_pubtypes
                0x00000073       0x3d ./reversi_main.o
 .debug_pubtypes
                0x000000b0       0x1f ./rutinas_excepciones.o
 .debug_pubtypes
                0x000000cf       0x12 ./timer.o

.debug_str      0x00000000      0xc29
 .debug_str     0x00000000      0x112 ./common/44blib.o
                                0x150 (size before relaxing)
 .debug_str     0x00000112       0x6c ./8led.o
                                 0x9e (size before relaxing)
 .debug_str     0x0000017e       0xfc ./button.o
                                0x1a5 (size before relaxing)
 .debug_str     0x0000027a       0xbe ./cola_depuracion.o
                                0x176 (size before relaxing)
 .debug_str     0x00000338       0x68 ./led.o
                                 0x8d (size before relaxing)
 .debug_str     0x000003a0        0xf ./main.o
                                 0xc7 (size before relaxing)
 .debug_str     0x000003af       0x21 ./main_medidas_optimizaciones.o
                                 0x46 (size before relaxing)
 .debug_str     0x000003d0       0x1b ./pruebas_patron_volteo.o
                                 0x40 (size before relaxing)
 .debug_str     0x000003eb       0x9f ./pruebas_timer2.o
                                 0xe0 (size before relaxing)
 .debug_str     0x0000048a      0x5a0 ./reversi8_2019.o
                                0x607 (size before relaxing)
 .debug_str     0x00000a2a       0x19 ./reversi8_2019_arm_c.o
                                 0x3e (size before relaxing)
 .debug_str     0x00000a43       0x15 ./reversi8_2019_c.o
                                 0x3a (size before relaxing)
 .debug_str     0x00000a58       0x76 ./reversi_main.o
                                0x1b9 (size before relaxing)
 .debug_str     0x00000ace       0xa0 ./rutinas_excepciones.o
                                0x152 (size before relaxing)
 .debug_str     0x00000b6e       0x20 ./timer.o
                                 0xd8 (size before relaxing)
 .debug_str     0x00000b8e       0x9b ./timer2.o
                                 0xdc (size before relaxing)
