   1              		.cpu arm7tdmi
   2              		.fpu softvfp
   3              		.eabi_attribute 20, 1
   4              		.eabi_attribute 21, 1
   5              		.eabi_attribute 23, 3
   6              		.eabi_attribute 24, 1
   7              		.eabi_attribute 25, 1
   8              		.eabi_attribute 26, 1
   9              		.eabi_attribute 30, 6
  10              		.eabi_attribute 18, 4
  11              		.file	"reversi8_2019.c"
  21              	.Ltext0:
  22              		.file 1 "../reversi8_2019.c"
 981              		.align	2
 982              	timer2_num_int:
 983 0000 00000000 		.space	4
 984              		.global	NO
 985              		.section	.rodata
 988              	NO:
 989 0000 00       		.space	1
 990              		.global	SI
 993              	SI:
 994 0001 01       		.byte	1
 995              		.global	CASILLA_OCUPADA
 998              	CASILLA_OCUPADA:
 999 0002 02       		.byte	2
 1000 0003 00000000 		.align	3
 1000      00
 1003              	tabla_valor:
 1004 0008 08       		.byte	8
 1005 0009 02       		.byte	2
 1006 000a 07       		.byte	7
 1007 000b 03       		.byte	3
 1008 000c 03       		.byte	3
 1009 000d 07       		.byte	7
 1010 000e 02       		.byte	2
 1011 000f 08       		.byte	8
 1012 0010 02       		.byte	2
 1013 0011 01       		.byte	1
 1014 0012 04       		.byte	4
 1015 0013 04       		.byte	4
 1016 0014 04       		.byte	4
 1017 0015 04       		.byte	4
 1018 0016 01       		.byte	1
 1019 0017 02       		.byte	2
 1020 0018 07       		.byte	7
 1021 0019 04       		.byte	4
 1022 001a 06       		.byte	6
 1023 001b 05       		.byte	5
 1024 001c 05       		.byte	5
 1025 001d 06       		.byte	6
 1026 001e 04       		.byte	4
 1027 001f 07       		.byte	7
 1028 0020 03       		.byte	3
 1029 0021 04       		.byte	4
 1030 0022 05       		.byte	5
 1031 0023 00       		.byte	0
 1032 0024 00       		.byte	0
 1033 0025 05       		.byte	5
 1034 0026 04       		.byte	4
 1035 0027 03       		.byte	3
 1036 0028 03       		.byte	3
 1037 0029 04       		.byte	4
 1038 002a 05       		.byte	5
 1039 002b 00       		.byte	0
 1040 002c 00       		.byte	0
 1041 002d 05       		.byte	5
 1042 002e 04       		.byte	4
 1043 002f 03       		.byte	3
 1044 0030 07       		.byte	7
 1045 0031 04       		.byte	4
 1046 0032 06       		.byte	6
 1047 0033 05       		.byte	5
 1048 0034 05       		.byte	5
 1049 0035 06       		.byte	6
 1050 0036 04       		.byte	4
 1051 0037 07       		.byte	7
 1052 0038 02       		.byte	2
 1053 0039 01       		.byte	1
 1054 003a 04       		.byte	4
 1055 003b 04       		.byte	4
 1056 003c 04       		.byte	4
 1057 003d 04       		.byte	4
 1058 003e 01       		.byte	1
 1059 003f 02       		.byte	2
 1060 0040 08       		.byte	8
 1061 0041 02       		.byte	2
 1062 0042 07       		.byte	7
 1063 0043 03       		.byte	3
 1064 0044 03       		.byte	3
 1065 0045 07       		.byte	7
 1066 0046 02       		.byte	2
 1067 0047 08       		.byte	8
 1068              		.global	vSF
 1069              		.align	2
 1072              	vSF:
 1073 0048 FF       		.byte	-1
 1074 0049 FF       		.byte	-1
 1075 004a 00       		.byte	0
 1076 004b 01       		.byte	1
 1077 004c 01       		.byte	1
 1078 004d 01       		.byte	1
 1079 004e 00       		.byte	0
 1080 004f FF       		.byte	-1
 1081              		.global	vSC
 1082              		.align	2
 1085              	vSC:
 1086 0050 00       		.byte	0
 1087 0051 01       		.byte	1
 1088 0052 01       		.byte	1
 1089 0053 01       		.byte	1
 1090 0054 00       		.byte	0
 1091 0055 FF       		.byte	-1
 1092 0056 FF       		.byte	-1
 1093 0057 FF       		.byte	-1
 1094              		.bss
 1095 0004 00000000 		.align	3
 1096              	tablero:
 1097 0008 00000000 		.space	64
 1097      00000000 
 1097      00000000 
 1097      00000000 
 1097      00000000 
 1098              		.global	fila
 1101              	fila:
 1102 0048 00       		.space	1
 1103              		.global	columna
 1106              	columna:
 1107 0049 00       		.space	1
 1108              		.global	ready
 1111              	ready:
 1112 004a 00       		.space	1
 1113              		.text
 1114              		.align	2
 1115              		.global	init_table
 1117              	init_table:
 1118              	.LFB0:
   1:../reversi8_2019.c **** /*********************************************************************************************
   2:../reversi8_2019.c **** * Fichero:	reversi8_2019.c
   3:../reversi8_2019.c **** * Autor:	Profesores de la asignatura
   4:../reversi8_2019.c **** 			Fernando Peña Bes (NIA: 756012)
   5:../reversi8_2019.c **** 			Pedro José Pérez García (NIA: 756642)
   6:../reversi8_2019.c **** * Descrip:	Implementación del juego reversi8.
   7:../reversi8_2019.c **** * 			Incluye funciones para probar patron_volteo()
   8:../reversi8_2019.c **** * Version:
   9:../reversi8_2019.c **** *********************************************************************************************/
  10:../reversi8_2019.c **** #include "reversi8_2019.h"
  11:../reversi8_2019.c **** 
  12:../reversi8_2019.c **** // Tamaño del tablero
  13:../reversi8_2019.c **** enum { DIM=8 };
  14:../reversi8_2019.c **** 
  15:../reversi8_2019.c **** // Valores que puede devolver la función patron_volteo())
  16:../reversi8_2019.c **** enum {
  17:../reversi8_2019.c **** 	NO_HAY_PATRON = 0,
  18:../reversi8_2019.c ****   PATRON_ENCONTRADO = 1
  19:../reversi8_2019.c **** };
  20:../reversi8_2019.c **** 
  21:../reversi8_2019.c **** // Estados de las casillas del tablero
  22:../reversi8_2019.c **** // deberia ser enum, lo dejamos como const para usar char...
  23:../reversi8_2019.c **** //const char CASILLA_VACIA = 0;
  24:../reversi8_2019.c **** //const char FICHA_BLANCA  = 1;
  25:../reversi8_2019.c **** //const char FICHA_NEGRA   = 2;
  26:../reversi8_2019.c **** 
  27:../reversi8_2019.c **** enum {
  28:../reversi8_2019.c **** 	CASILLA_VACIA = 0,
  29:../reversi8_2019.c **** 	FICHA_BLANCA = 1,
  30:../reversi8_2019.c **** 	FICHA_NEGRA = 2
  31:../reversi8_2019.c **** };
  32:../reversi8_2019.c **** 
  33:../reversi8_2019.c **** 
  34:../reversi8_2019.c **** // candidatas: indica las posiciones a explorar
  35:../reversi8_2019.c **** // Se usa para no explorar todo el tablero innecesariamente
  36:../reversi8_2019.c **** // Sus posibles valores son NO, SI, CASILLA_OCUPADA
  37:../reversi8_2019.c **** const char  NO              = 0;
  38:../reversi8_2019.c **** const char  SI              = 1;
  39:../reversi8_2019.c **** const char  CASILLA_OCUPADA = 2;
  40:../reversi8_2019.c **** 
  41:../reversi8_2019.c **** /////////////////////////////////////////////////////////////////////////////
  42:../reversi8_2019.c **** // TABLAS AUXILIARES
  43:../reversi8_2019.c **** // declaramos las siguientes tablas como globales para que sean más fáciles visualizarlas en el sim
  44:../reversi8_2019.c **** // __attribute__ ((aligned (8))): specifies a minimum alignment for the variable or structure field
  45:../reversi8_2019.c **** 
  46:../reversi8_2019.c **** static const char __attribute__ ((aligned (8))) tabla_valor[DIM][DIM] =
  47:../reversi8_2019.c **** {
  48:../reversi8_2019.c ****     {8,2,7,3,3,7,2,8},
  49:../reversi8_2019.c ****     {2,1,4,4,4,4,1,2},
  50:../reversi8_2019.c ****     {7,4,6,5,5,6,4,7},
  51:../reversi8_2019.c ****     {3,4,5,0,0,5,4,3},
  52:../reversi8_2019.c ****     {3,4,5,0,0,5,4,3},
  53:../reversi8_2019.c ****     {7,4,6,5,5,6,4,7},
  54:../reversi8_2019.c ****     {2,1,4,4,4,4,1,2},
  55:../reversi8_2019.c ****     {8,2,7,3,3,7,2,8}
  56:../reversi8_2019.c **** };
  57:../reversi8_2019.c **** 
  58:../reversi8_2019.c **** 
  59:../reversi8_2019.c **** // Tabla de direcciones. Contiene los desplazamientos de las 8 direcciones posibles
  60:../reversi8_2019.c **** const char vSF[DIM] = {-1,-1, 0, 1, 1, 1, 0,-1};
  61:../reversi8_2019.c **** const char vSC[DIM] = { 0, 1, 1, 1, 0,-1,-1,-1};
  62:../reversi8_2019.c **** 
  63:../reversi8_2019.c **** //////////////////////////////////////////////////////////////////////////////////////
  64:../reversi8_2019.c **** // Variables globales que no deberían serlo
  65:../reversi8_2019.c **** // tablero, fila, columna y ready son varibles que se deberían definir como locales dentro de rever
  66:../reversi8_2019.c **** // Sin embargo, las hemos definido como globales para que sea más fácil visualizar el tablero y las
  67:../reversi8_2019.c **** //////////////////////////////////////////////////////////////////////////////////////
  68:../reversi8_2019.c **** 
  69:../reversi8_2019.c **** ////////////////////////////////////////////////////////////////////
  70:../reversi8_2019.c **** // Tablero sin inicializar
  71:../reversi8_2019.c **** ////////////////////////////////////////////////////////////////////
  72:../reversi8_2019.c **** static char __attribute__ ((aligned (8))) tablero[DIM][DIM] = {
  73:../reversi8_2019.c **** 	        {CASILLA_VACIA,CASILLA_VACIA,CASILLA_VACIA,CASILLA_VACIA,CASILLA_VACIA,CASILLA_VACIA,CASIL
  74:../reversi8_2019.c **** 	        {CASILLA_VACIA,CASILLA_VACIA,CASILLA_VACIA,CASILLA_VACIA,CASILLA_VACIA,CASILLA_VACIA,CASIL
  75:../reversi8_2019.c **** 	        {CASILLA_VACIA,CASILLA_VACIA,CASILLA_VACIA,CASILLA_VACIA,CASILLA_VACIA,CASILLA_VACIA,CASIL
  76:../reversi8_2019.c **** 	        {CASILLA_VACIA,CASILLA_VACIA,CASILLA_VACIA,CASILLA_VACIA,CASILLA_VACIA,CASILLA_VACIA,CASIL
  77:../reversi8_2019.c **** 	        {CASILLA_VACIA,CASILLA_VACIA,CASILLA_VACIA,CASILLA_VACIA,CASILLA_VACIA,CASILLA_VACIA,CASIL
  78:../reversi8_2019.c **** 	        {CASILLA_VACIA,CASILLA_VACIA,CASILLA_VACIA,CASILLA_VACIA,CASILLA_VACIA,CASILLA_VACIA,CASIL
  79:../reversi8_2019.c **** 	        {CASILLA_VACIA,CASILLA_VACIA,CASILLA_VACIA,CASILLA_VACIA,CASILLA_VACIA,CASILLA_VACIA,CASIL
  80:../reversi8_2019.c **** 	        {CASILLA_VACIA,CASILLA_VACIA,CASILLA_VACIA,CASILLA_VACIA,CASILLA_VACIA,CASILLA_VACIA,CASIL
  81:../reversi8_2019.c **** 	    };
  82:../reversi8_2019.c **** 
  83:../reversi8_2019.c **** 
  84:../reversi8_2019.c ****   ////////////////////////////////////////////////////////////////////
  85:../reversi8_2019.c ****      // VARIABLES PARA INTERACCIONAR CON LA ENTRADA SALIDA
  86:../reversi8_2019.c ****      // Pregunta: ¿hay que hacer algo con ellas para que esto funcione bien?
  87:../reversi8_2019.c ****      // (por ejemplo añadir alguna palabra clave para garantizar que la sincronización a través de 
  88:../reversi8_2019.c **** volatile char fila=0, columna=0, ready = 0;
  89:../reversi8_2019.c **** 
  90:../reversi8_2019.c **** 
  91:../reversi8_2019.c **** extern int patron_volteo_arm_c(char tablero[][DIM], int *longitud,char FA, char CA, char SF, char S
  92:../reversi8_2019.c **** extern int patron_volteo_arm_arm(char tablero[][DIM], int *longitud,char FA, char CA, char SF, char
  93:../reversi8_2019.c **** extern int patron_volteo_arm_arm_opt(char tablero[][DIM], int *longitud,char FA, char CA, char SF, 
  94:../reversi8_2019.c **** 
  95:../reversi8_2019.c **** ///////////////////////////////////////////////////////////////////////////////////////////////////
  96:../reversi8_2019.c **** // 0 indica CASILLA_VACIA, 1 indica FICHA_BLANCA y 2 indica FICHA_NEGRA
  97:../reversi8_2019.c **** // pone el tablero a cero y luego coloca las fichas centrales.
  98:../reversi8_2019.c **** void init_table(char tablero[][DIM], char candidatas[][DIM])
  99:../reversi8_2019.c **** {
 1119              		.loc 1 99 0
 1120              		.cfi_startproc
 1121              		@ Function supports interworking.
 1122              		@ args = 0, pretend = 0, frame = 16
 1123              		@ frame_needed = 1, uses_anonymous_args = 0
 1124 0000 0DC0A0E1 		mov	ip, sp
 1125              	.LCFI0:
 1126              		.cfi_def_cfa_register 12
 1127 0004 00D82DE9 		stmfd	sp!, {fp, ip, lr, pc}
 1128 0008 04B04CE2 		sub	fp, ip, #4
 1129              		.cfi_offset 14, -8
 1130              		.cfi_offset 13, -12
 1131              		.cfi_offset 11, -16
 1132              	.LCFI1:
 1133              		.cfi_def_cfa 11, 4
 1134 000c 10D04DE2 		sub	sp, sp, #16
 1135 0010 18000BE5 		str	r0, [fp, #-24]
 1136 0014 1C100BE5 		str	r1, [fp, #-28]
 100:../reversi8_2019.c ****     int i, j;
 101:../reversi8_2019.c **** 
 102:../reversi8_2019.c ****     for (i = 0; i < DIM; i++)
 1137              		.loc 1 102 0
 1138 0018 0030A0E3 		mov	r3, #0
 1139 001c 10300BE5 		str	r3, [fp, #-16]
 1140 0020 130000EA 		b	.L2
 1141              	.L5:
 103:../reversi8_2019.c ****     {
 104:../reversi8_2019.c ****         for (j = 0; j < DIM; j++)
 1142              		.loc 1 104 0
 1143 0024 0030A0E3 		mov	r3, #0
 1144 0028 14300BE5 		str	r3, [fp, #-20]
 1145 002c 0A0000EA 		b	.L3
 1146              	.L4:
 105:../reversi8_2019.c ****             tablero[i][j] = CASILLA_VACIA;
 1147              		.loc 1 105 0 discriminator 2
 1148 0030 10301BE5 		ldr	r3, [fp, #-16]
 1149 0034 8331A0E1 		mov	r3, r3, asl #3
 1150 0038 18201BE5 		ldr	r2, [fp, #-24]
 1151 003c 032082E0 		add	r2, r2, r3
 1152 0040 14301BE5 		ldr	r3, [fp, #-20]
 1153 0044 033082E0 		add	r3, r2, r3
 1154 0048 0020A0E3 		mov	r2, #0
 1155 004c 0020C3E5 		strb	r2, [r3, #0]
 104:../reversi8_2019.c ****         for (j = 0; j < DIM; j++)
 1156              		.loc 1 104 0 discriminator 2
 1157 0050 14301BE5 		ldr	r3, [fp, #-20]
 1158 0054 013083E2 		add	r3, r3, #1
 1159 0058 14300BE5 		str	r3, [fp, #-20]
 1160              	.L3:
 104:../reversi8_2019.c ****         for (j = 0; j < DIM; j++)
 1161              		.loc 1 104 0 is_stmt 0 discriminator 1
 1162 005c 14301BE5 		ldr	r3, [fp, #-20]
 1163 0060 070053E3 		cmp	r3, #7
 1164 0064 F1FFFFDA 		ble	.L4
 102:../reversi8_2019.c ****     for (i = 0; i < DIM; i++)
 1165              		.loc 1 102 0 is_stmt 1
 1166 0068 10301BE5 		ldr	r3, [fp, #-16]
 1167 006c 013083E2 		add	r3, r3, #1
 1168 0070 10300BE5 		str	r3, [fp, #-16]
 1169              	.L2:
 102:../reversi8_2019.c ****     for (i = 0; i < DIM; i++)
 1170              		.loc 1 102 0 is_stmt 0 discriminator 1
 1171 0074 10301BE5 		ldr	r3, [fp, #-16]
 1172 0078 070053E3 		cmp	r3, #7
 1173 007c E8FFFFDA 		ble	.L5
 106:../reversi8_2019.c ****     }
 107:../reversi8_2019.c **** #if 0
 108:../reversi8_2019.c ****     for (i = 3; i < 5; ++i) {
 109:../reversi8_2019.c **** 	for(j = 3; j < 5; ++j) {
 110:../reversi8_2019.c **** 	    tablero[i][j] = i == j ? FICHA_BLANCA : FICHA_NEGRA;
 111:../reversi8_2019.c **** 	}
 112:../reversi8_2019.c ****     }
 113:../reversi8_2019.c **** 
 114:../reversi8_2019.c ****     for (i = 2; i < 6; ++i) {
 115:../reversi8_2019.c **** 	for (j = 2; j < 6; ++j) {
 116:../reversi8_2019.c **** 	    if((i>=3) && (i < 5) && (j>=3) && (j<5)) {
 117:../reversi8_2019.c **** 		candidatas[i][j] = CASILLA_OCUPADA;
 118:../reversi8_2019.c **** 	    } else {
 119:../reversi8_2019.c **** 		candidatas[i][j] = SI; //CASILLA_LIBRE;
 120:../reversi8_2019.c **** 	    }
 121:../reversi8_2019.c **** 	}
 122:../reversi8_2019.c ****     }
 123:../reversi8_2019.c **** #endif
 124:../reversi8_2019.c ****     // arriba hay versión alternativa
 125:../reversi8_2019.c ****     tablero[3][3] = FICHA_BLANCA;
 1174              		.loc 1 125 0 is_stmt 1
 1175 0080 18301BE5 		ldr	r3, [fp, #-24]
 1176 0084 183083E2 		add	r3, r3, #24
 1177 0088 0120A0E3 		mov	r2, #1
 1178 008c 0320C3E5 		strb	r2, [r3, #3]
 126:../reversi8_2019.c ****     tablero[4][4] = FICHA_BLANCA;
 1179              		.loc 1 126 0
 1180 0090 18301BE5 		ldr	r3, [fp, #-24]
 1181 0094 203083E2 		add	r3, r3, #32
 1182 0098 0120A0E3 		mov	r2, #1
 1183 009c 0420C3E5 		strb	r2, [r3, #4]
 127:../reversi8_2019.c ****     tablero[3][4] = FICHA_NEGRA;
 1184              		.loc 1 127 0
 1185 00a0 18301BE5 		ldr	r3, [fp, #-24]
 1186 00a4 183083E2 		add	r3, r3, #24
 1187 00a8 0220A0E3 		mov	r2, #2
 1188 00ac 0420C3E5 		strb	r2, [r3, #4]
 128:../reversi8_2019.c ****     tablero[4][3] = FICHA_NEGRA;
 1189              		.loc 1 128 0
 1190 00b0 18301BE5 		ldr	r3, [fp, #-24]
 1191 00b4 203083E2 		add	r3, r3, #32
 1192 00b8 0220A0E3 		mov	r2, #2
 1193 00bc 0320C3E5 		strb	r2, [r3, #3]
 129:../reversi8_2019.c **** 
 130:../reversi8_2019.c ****     candidatas[3][3] = CASILLA_OCUPADA;
 1194              		.loc 1 130 0
 1195 00c0 1C301BE5 		ldr	r3, [fp, #-28]
 1196 00c4 183083E2 		add	r3, r3, #24
 1197 00c8 3C219FE5 		ldr	r2, .L6
 1198 00cc 0020D2E5 		ldrb	r2, [r2, #0]	@ zero_extendqisi2
 1199 00d0 0320C3E5 		strb	r2, [r3, #3]
 131:../reversi8_2019.c ****     candidatas[4][4] = CASILLA_OCUPADA;
 1200              		.loc 1 131 0
 1201 00d4 1C301BE5 		ldr	r3, [fp, #-28]
 1202 00d8 203083E2 		add	r3, r3, #32
 1203 00dc 28219FE5 		ldr	r2, .L6
 1204 00e0 0020D2E5 		ldrb	r2, [r2, #0]	@ zero_extendqisi2
 1205 00e4 0420C3E5 		strb	r2, [r3, #4]
 132:../reversi8_2019.c ****     candidatas[3][4] = CASILLA_OCUPADA;
 1206              		.loc 1 132 0
 1207 00e8 1C301BE5 		ldr	r3, [fp, #-28]
 1208 00ec 183083E2 		add	r3, r3, #24
 1209 00f0 14219FE5 		ldr	r2, .L6
 1210 00f4 0020D2E5 		ldrb	r2, [r2, #0]	@ zero_extendqisi2
 1211 00f8 0420C3E5 		strb	r2, [r3, #4]
 133:../reversi8_2019.c ****     candidatas[4][3] = CASILLA_OCUPADA;
 1212              		.loc 1 133 0
 1213 00fc 1C301BE5 		ldr	r3, [fp, #-28]
 1214 0100 203083E2 		add	r3, r3, #32
 1215 0104 00219FE5 		ldr	r2, .L6
 1216 0108 0020D2E5 		ldrb	r2, [r2, #0]	@ zero_extendqisi2
 1217 010c 0320C3E5 		strb	r2, [r3, #3]
 134:../reversi8_2019.c **** 
 135:../reversi8_2019.c ****     // casillas a explorar:
 136:../reversi8_2019.c ****     candidatas[2][2] = SI;
 1218              		.loc 1 136 0
 1219 0110 1C301BE5 		ldr	r3, [fp, #-28]
 1220 0114 103083E2 		add	r3, r3, #16
 1221 0118 F0209FE5 		ldr	r2, .L6+4
 1222 011c 0020D2E5 		ldrb	r2, [r2, #0]	@ zero_extendqisi2
 1223 0120 0220C3E5 		strb	r2, [r3, #2]
 137:../reversi8_2019.c ****     candidatas[2][3] = SI;
 1224              		.loc 1 137 0
 1225 0124 1C301BE5 		ldr	r3, [fp, #-28]
 1226 0128 103083E2 		add	r3, r3, #16
 1227 012c DC209FE5 		ldr	r2, .L6+4
 1228 0130 0020D2E5 		ldrb	r2, [r2, #0]	@ zero_extendqisi2
 1229 0134 0320C3E5 		strb	r2, [r3, #3]
 138:../reversi8_2019.c ****     candidatas[2][4] = SI;
 1230              		.loc 1 138 0
 1231 0138 1C301BE5 		ldr	r3, [fp, #-28]
 1232 013c 103083E2 		add	r3, r3, #16
 1233 0140 C8209FE5 		ldr	r2, .L6+4
 1234 0144 0020D2E5 		ldrb	r2, [r2, #0]	@ zero_extendqisi2
 1235 0148 0420C3E5 		strb	r2, [r3, #4]
 139:../reversi8_2019.c ****     candidatas[2][5] = SI;
 1236              		.loc 1 139 0
 1237 014c 1C301BE5 		ldr	r3, [fp, #-28]
 1238 0150 103083E2 		add	r3, r3, #16
 1239 0154 B4209FE5 		ldr	r2, .L6+4
 1240 0158 0020D2E5 		ldrb	r2, [r2, #0]	@ zero_extendqisi2
 1241 015c 0520C3E5 		strb	r2, [r3, #5]
 140:../reversi8_2019.c ****     candidatas[3][2] = SI;
 1242              		.loc 1 140 0
 1243 0160 1C301BE5 		ldr	r3, [fp, #-28]
 1244 0164 183083E2 		add	r3, r3, #24
 1245 0168 A0209FE5 		ldr	r2, .L6+4
 1246 016c 0020D2E5 		ldrb	r2, [r2, #0]	@ zero_extendqisi2
 1247 0170 0220C3E5 		strb	r2, [r3, #2]
 141:../reversi8_2019.c ****     candidatas[3][5] = SI;
 1248              		.loc 1 141 0
 1249 0174 1C301BE5 		ldr	r3, [fp, #-28]
 1250 0178 183083E2 		add	r3, r3, #24
 1251 017c 8C209FE5 		ldr	r2, .L6+4
 1252 0180 0020D2E5 		ldrb	r2, [r2, #0]	@ zero_extendqisi2
 1253 0184 0520C3E5 		strb	r2, [r3, #5]
 142:../reversi8_2019.c ****     candidatas[4][2] = SI;
 1254              		.loc 1 142 0
 1255 0188 1C301BE5 		ldr	r3, [fp, #-28]
 1256 018c 203083E2 		add	r3, r3, #32
 1257 0190 78209FE5 		ldr	r2, .L6+4
 1258 0194 0020D2E5 		ldrb	r2, [r2, #0]	@ zero_extendqisi2
 1259 0198 0220C3E5 		strb	r2, [r3, #2]
 143:../reversi8_2019.c ****     candidatas[4][5] = SI;
 1260              		.loc 1 143 0
 1261 019c 1C301BE5 		ldr	r3, [fp, #-28]
 1262 01a0 203083E2 		add	r3, r3, #32
 1263 01a4 64209FE5 		ldr	r2, .L6+4
 1264 01a8 0020D2E5 		ldrb	r2, [r2, #0]	@ zero_extendqisi2
 1265 01ac 0520C3E5 		strb	r2, [r3, #5]
 144:../reversi8_2019.c ****     candidatas[5][2] = SI;
 1266              		.loc 1 144 0
 1267 01b0 1C301BE5 		ldr	r3, [fp, #-28]
 1268 01b4 283083E2 		add	r3, r3, #40
 1269 01b8 50209FE5 		ldr	r2, .L6+4
 1270 01bc 0020D2E5 		ldrb	r2, [r2, #0]	@ zero_extendqisi2
 1271 01c0 0220C3E5 		strb	r2, [r3, #2]
 145:../reversi8_2019.c ****     candidatas[5][3] = SI;
 1272              		.loc 1 145 0
 1273 01c4 1C301BE5 		ldr	r3, [fp, #-28]
 1274 01c8 283083E2 		add	r3, r3, #40
 1275 01cc 3C209FE5 		ldr	r2, .L6+4
 1276 01d0 0020D2E5 		ldrb	r2, [r2, #0]	@ zero_extendqisi2
 1277 01d4 0320C3E5 		strb	r2, [r3, #3]
 146:../reversi8_2019.c ****     candidatas[5][4] = SI;
 1278              		.loc 1 146 0
 1279 01d8 1C301BE5 		ldr	r3, [fp, #-28]
 1280 01dc 283083E2 		add	r3, r3, #40
 1281 01e0 28209FE5 		ldr	r2, .L6+4
 1282 01e4 0020D2E5 		ldrb	r2, [r2, #0]	@ zero_extendqisi2
 1283 01e8 0420C3E5 		strb	r2, [r3, #4]
 147:../reversi8_2019.c ****     candidatas[5][5] = SI;
 1284              		.loc 1 147 0
 1285 01ec 1C301BE5 		ldr	r3, [fp, #-28]
 1286 01f0 283083E2 		add	r3, r3, #40
 1287 01f4 14209FE5 		ldr	r2, .L6+4
 1288 01f8 0020D2E5 		ldrb	r2, [r2, #0]	@ zero_extendqisi2
 1289 01fc 0520C3E5 		strb	r2, [r3, #5]
 148:../reversi8_2019.c **** }
 1290              		.loc 1 148 0
 1291 0200 0CD04BE2 		sub	sp, fp, #12
 1292 0204 00689DE8 		ldmfd	sp, {fp, sp, lr}
 1293 0208 1EFF2FE1 		bx	lr
 1294              	.L7:
 1295              		.align	2
 1296              	.L6:
 1297 020c 00000000 		.word	CASILLA_OCUPADA
 1298 0210 00000000 		.word	SI
 1299              		.cfi_endproc
 1300              	.LFE0:
 1302              		.align	2
 1303              		.global	esperar_mov
 1305              	esperar_mov:
 1306              	.LFB1:
 149:../reversi8_2019.c **** 
 150:../reversi8_2019.c **** ////////////////////////////////////////////////////////////////////////////////
 151:../reversi8_2019.c **** // Espera a que ready valga 1.
 152:../reversi8_2019.c **** // CUIDADO: si el compilador coloca esta variable en un registro, no funcionará.
 153:../reversi8_2019.c **** // Hay que definirla como "volatile" para forzar a que antes de cada uso la cargue de memoria
 154:../reversi8_2019.c **** 
 155:../reversi8_2019.c **** void esperar_mov(volatile char *ready)
 156:../reversi8_2019.c **** {
 1307              		.loc 1 156 0
 1308              		.cfi_startproc
 1309              		@ Function supports interworking.
 1310              		@ args = 0, pretend = 0, frame = 8
 1311              		@ frame_needed = 1, uses_anonymous_args = 0
 1312 0214 0DC0A0E1 		mov	ip, sp
 1313              	.LCFI2:
 1314              		.cfi_def_cfa_register 12
 1315 0218 00D82DE9 		stmfd	sp!, {fp, ip, lr, pc}
 1316 021c 04B04CE2 		sub	fp, ip, #4
 1317              		.cfi_offset 14, -8
 1318              		.cfi_offset 13, -12
 1319              		.cfi_offset 11, -16
 1320              	.LCFI3:
 1321              		.cfi_def_cfa 11, 4
 1322 0220 08D04DE2 		sub	sp, sp, #8
 1323 0224 10000BE5 		str	r0, [fp, #-16]
 157:../reversi8_2019.c ****     while (*ready == 0) {};  // bucle de espera de respuestas hasta que el se modifique el valor de
 1324              		.loc 1 157 0
 1325 0228 0000A0E1 		mov	r0, r0	@ nop
 1326              	.L9:
 1327              		.loc 1 157 0 is_stmt 0 discriminator 1
 1328 022c 10301BE5 		ldr	r3, [fp, #-16]
 1329 0230 0030D3E5 		ldrb	r3, [r3, #0]
 1330 0234 FF3003E2 		and	r3, r3, #255
 1331 0238 000053E3 		cmp	r3, #0
 1332 023c FAFFFF0A 		beq	.L9
 158:../reversi8_2019.c **** 
 159:../reversi8_2019.c ****     *ready = 0;  //una vez que pasemos el bucle volvemos a fijar ready a 0;
 1333              		.loc 1 159 0 is_stmt 1
 1334 0240 10301BE5 		ldr	r3, [fp, #-16]
 1335 0244 0020A0E3 		mov	r2, #0
 1336 0248 0020C3E5 		strb	r2, [r3, #0]
 160:../reversi8_2019.c **** }
 1337              		.loc 1 160 0
 1338 024c 0CD04BE2 		sub	sp, fp, #12
 1339 0250 00689DE8 		ldmfd	sp, {fp, sp, lr}
 1340 0254 1EFF2FE1 		bx	lr
 1341              		.cfi_endproc
 1342              	.LFE1:
 1344              		.align	2
 1345              		.global	ficha_valida
 1347              	ficha_valida:
 1348              	.LFB2:
 161:../reversi8_2019.c **** 
 162:../reversi8_2019.c **** ////////////////////////////////////////////////////////////////////////////////
 163:../reversi8_2019.c **** //++++++++++++++++++++++++++++++++++++++++++++++++++++++++++++++++++++++++++++++
 164:../reversi8_2019.c **** // IMPORTANTE: AL SUSTITUIR FICHA_VALIDA() Y PATRON_VOLTEO()
 165:../reversi8_2019.c **** // POR RUTINAS EN ENSAMBLADOR HAY QUE RESPETAR LA MODULARIDAD.
 166:../reversi8_2019.c **** // DEBEN SEGUIR SIENDO LLAMADAS A FUNCIONES Y DEBEN CUMPLIR CON EL ATPCS
 167:../reversi8_2019.c **** // (VER TRANSPARENCIAS Y MATERIAL DE PRACTICAS):
 168:../reversi8_2019.c **** //  - DEBEN PASAR LOS PARAMETROS POR LOS REGISTROS CORRESPONDIENTES
 169:../reversi8_2019.c **** //  - GUARDAR EN PILA SOLO LOS REGISTROS QUE TOCAN
 170:../reversi8_2019.c **** //  - CREAR UN MARCO DE PILA TAL Y COMO MUESTRAN LAS TRANSPARENCIAS
 171:../reversi8_2019.c **** //    DE LA ASIGNATURA (CON EL PC, FP, LR,....)
 172:../reversi8_2019.c **** //  - EN EL CASO DE LAS VARIABLES LOCALES, SOLO HAY QUE APILARLAS
 173:../reversi8_2019.c **** //    SI NO SE PUEDEN COLOCAR EN UN REGISTRO.
 174:../reversi8_2019.c **** //    SI SE COLOCAN EN UN REGISTRO NO HACE FALTA
 175:../reversi8_2019.c **** //    NI GUARDARLAS EN PILA NI RESERVAR UN ESPACIO EN LA PILA PARA ELLAS
 176:../reversi8_2019.c **** //++++++++++++++++++++++++++++++++++++++++++++++++++++++++++++++++++++++++++++++
 177:../reversi8_2019.c **** ////////////////////////////////////////////////////////////////////////////////
 178:../reversi8_2019.c **** // Devuelve el contenido de la posición indicadas por la fila y columna actual.
 179:../reversi8_2019.c **** // Además informa si la posición es válida y contiene alguna ficha.
 180:../reversi8_2019.c **** // Esto lo hace por referencia (en *posicion_valida)
 181:../reversi8_2019.c **** // Si devuelve un 0 no es válida o está vacia.
 182:../reversi8_2019.c **** char ficha_valida(char tablero[][DIM], char f, char c, int *posicion_valida)
 183:../reversi8_2019.c **** {
 1349              		.loc 1 183 0
 1350              		.cfi_startproc
 1351              		@ Function supports interworking.
 1352              		@ args = 0, pretend = 0, frame = 24
 1353              		@ frame_needed = 1, uses_anonymous_args = 0
 1354 0258 0DC0A0E1 		mov	ip, sp
 1355              	.LCFI4:
 1356              		.cfi_def_cfa_register 12
 1357 025c 00D82DE9 		stmfd	sp!, {fp, ip, lr, pc}
 1358 0260 04B04CE2 		sub	fp, ip, #4
 1359              		.cfi_offset 14, -8
 1360              		.cfi_offset 13, -12
 1361              		.cfi_offset 11, -16
 1362              	.LCFI5:
 1363              		.cfi_def_cfa 11, 4
 1364 0264 18D04DE2 		sub	sp, sp, #24
 1365 0268 18000BE5 		str	r0, [fp, #-24]
 1366 026c 20300BE5 		str	r3, [fp, #-32]
 1367 0270 0130A0E1 		mov	r3, r1
 1368 0274 19304BE5 		strb	r3, [fp, #-25]
 1369 0278 0230A0E1 		mov	r3, r2
 1370 027c 1A304BE5 		strb	r3, [fp, #-26]
 184:../reversi8_2019.c ****     char ficha;
 185:../reversi8_2019.c **** 
 186:../reversi8_2019.c ****     // ficha = tablero[f][c];
 187:../reversi8_2019.c ****     // no puede accederse a tablero[f][c]
 188:../reversi8_2019.c ****     // ya que algún índice puede ser negativo
 189:../reversi8_2019.c **** 
 190:../reversi8_2019.c ****     if ((f < DIM) && (f >= 0) && (c < DIM) && (c >= 0) && (tablero[f][c] != CASILLA_VACIA))
 1371              		.loc 1 190 0
 1372 0280 19305BE5 		ldrb	r3, [fp, #-25]	@ zero_extendqisi2
 1373 0284 070053E3 		cmp	r3, #7
 1374 0288 1500008A 		bhi	.L11
 1375              		.loc 1 190 0 is_stmt 0 discriminator 1
 1376 028c 1A305BE5 		ldrb	r3, [fp, #-26]	@ zero_extendqisi2
 1377 0290 070053E3 		cmp	r3, #7
 1378 0294 1200008A 		bhi	.L11
 1379 0298 19305BE5 		ldrb	r3, [fp, #-25]	@ zero_extendqisi2
 1380 029c 8331A0E1 		mov	r3, r3, asl #3
 1381 02a0 18201BE5 		ldr	r2, [fp, #-24]
 1382 02a4 032082E0 		add	r2, r2, r3
 1383 02a8 1A305BE5 		ldrb	r3, [fp, #-26]	@ zero_extendqisi2
 1384 02ac 0330D2E7 		ldrb	r3, [r2, r3]	@ zero_extendqisi2
 1385 02b0 000053E3 		cmp	r3, #0
 1386 02b4 0A00000A 		beq	.L11
 191:../reversi8_2019.c ****     {
 192:../reversi8_2019.c ****         *posicion_valida = 1;
 1387              		.loc 1 192 0 is_stmt 1
 1388 02b8 20301BE5 		ldr	r3, [fp, #-32]
 1389 02bc 0120A0E3 		mov	r2, #1
 1390 02c0 002083E5 		str	r2, [r3, #0]
 193:../reversi8_2019.c ****         ficha = tablero[f][c];
 1391              		.loc 1 193 0
 1392 02c4 19305BE5 		ldrb	r3, [fp, #-25]	@ zero_extendqisi2
 1393 02c8 8331A0E1 		mov	r3, r3, asl #3
 1394 02cc 18201BE5 		ldr	r2, [fp, #-24]
 1395 02d0 032082E0 		add	r2, r2, r3
 1396 02d4 1A305BE5 		ldrb	r3, [fp, #-26]	@ zero_extendqisi2
 1397 02d8 0330D2E7 		ldrb	r3, [r2, r3]
 1398 02dc 0D304BE5 		strb	r3, [fp, #-13]
 1399 02e0 040000EA 		b	.L12
 1400              	.L11:
 194:../reversi8_2019.c ****     }
 195:../reversi8_2019.c ****     else
 196:../reversi8_2019.c ****     {
 197:../reversi8_2019.c ****         *posicion_valida = 0;
 1401              		.loc 1 197 0
 1402 02e4 20301BE5 		ldr	r3, [fp, #-32]
 1403 02e8 0020A0E3 		mov	r2, #0
 1404 02ec 002083E5 		str	r2, [r3, #0]
 198:../reversi8_2019.c ****         ficha = CASILLA_VACIA;
 1405              		.loc 1 198 0
 1406 02f0 0030A0E3 		mov	r3, #0
 1407 02f4 0D304BE5 		strb	r3, [fp, #-13]
 1408              	.L12:
 199:../reversi8_2019.c ****     }
 200:../reversi8_2019.c ****     return ficha;
 1409              		.loc 1 200 0
 1410 02f8 0D305BE5 		ldrb	r3, [fp, #-13]	@ zero_extendqisi2
 201:../reversi8_2019.c **** }
 1411              		.loc 1 201 0
 1412 02fc 0300A0E1 		mov	r0, r3
 1413 0300 0CD04BE2 		sub	sp, fp, #12
 1414 0304 00689DE8 		ldmfd	sp, {fp, sp, lr}
 1415 0308 1EFF2FE1 		bx	lr
 1416              		.cfi_endproc
 1417              	.LFE2:
 1419              		.align	2
 1420              		.global	patron_volteo
 1422              	patron_volteo:
 1423              	.LFB3:
 202:../reversi8_2019.c **** 
 203:../reversi8_2019.c **** ////////////////////////////////////////////////////////////////////////////////
 204:../reversi8_2019.c **** // La función patrón volteo comprueba si hay que actualizar una determinada direccion,
 205:../reversi8_2019.c **** // busca el patrón de volteo (n fichas del rival seguidas de una ficha del jugador actual)
 206:../reversi8_2019.c **** // en una dirección determinada
 207:../reversi8_2019.c **** // SF y SC son las cantidades a sumar para movernos en la dirección que toque
 208:../reversi8_2019.c **** // color indica el color de la pieza que se acaba de colocar
 209:../reversi8_2019.c **** // la función devuelve PATRON_ENCONTRADO (1) si encuentra patrón y NO_HAY_PATRON (0) en caso contra
 210:../reversi8_2019.c **** // FA y CA son la fila y columna a analizar
 211:../reversi8_2019.c **** // longitud es un parámetro por referencia. Sirve para saber la longitud del patrón que se está ana
 212:../reversi8_2019.c **** //          Se usa para saber cuantas fichas habría que voltear
 213:../reversi8_2019.c **** int patron_volteo(char tablero[][DIM], int *longitud, char FA, char CA, char SF, char SC, char colo
 214:../reversi8_2019.c **** {
 1424              		.loc 1 214 0
 1425              		.cfi_startproc
 1426              		@ Function supports interworking.
 1427              		@ args = 12, pretend = 0, frame = 24
 1428              		@ frame_needed = 1, uses_anonymous_args = 0
 1429 030c 0DC0A0E1 		mov	ip, sp
 1430              	.LCFI6:
 1431              		.cfi_def_cfa_register 12
 1432 0310 00D82DE9 		stmfd	sp!, {fp, ip, lr, pc}
 1433 0314 04B04CE2 		sub	fp, ip, #4
 1434              		.cfi_offset 14, -8
 1435              		.cfi_offset 13, -12
 1436              		.cfi_offset 11, -16
 1437              	.LCFI7:
 1438              		.cfi_def_cfa 11, 4
 1439 0318 18D04DE2 		sub	sp, sp, #24
 1440 031c 18000BE5 		str	r0, [fp, #-24]
 1441 0320 1C100BE5 		str	r1, [fp, #-28]
 1442 0324 1D204BE5 		strb	r2, [fp, #-29]
 1443 0328 1E304BE5 		strb	r3, [fp, #-30]
 215:../reversi8_2019.c **** 	int posicion_valida; // indica si la posición es valida y contiene una ficha de algún jugador
 216:../reversi8_2019.c **** 	char casilla;   // casilla es la casilla que se lee del tablero
 217:../reversi8_2019.c **** 
 218:../reversi8_2019.c **** 	FA = FA + SF;
 1444              		.loc 1 218 0
 1445 032c 1D205BE5 		ldrb	r2, [fp, #-29]
 1446 0330 0430DBE5 		ldrb	r3, [fp, #4]
 1447 0334 033082E0 		add	r3, r2, r3
 1448 0338 1D304BE5 		strb	r3, [fp, #-29]
 219:../reversi8_2019.c **** 	CA = CA + SC;
 1449              		.loc 1 219 0
 1450 033c 1E205BE5 		ldrb	r2, [fp, #-30]
 1451 0340 0830DBE5 		ldrb	r3, [fp, #8]
 1452 0344 033082E0 		add	r3, r2, r3
 1453 0348 1E304BE5 		strb	r3, [fp, #-30]
 220:../reversi8_2019.c **** 	casilla = ficha_valida(tablero, FA, CA, &posicion_valida);
 1454              		.loc 1 220 0
 1455 034c 1D105BE5 		ldrb	r1, [fp, #-29]	@ zero_extendqisi2
 1456 0350 1E205BE5 		ldrb	r2, [fp, #-30]	@ zero_extendqisi2
 1457 0354 14304BE2 		sub	r3, fp, #20
 1458 0358 18001BE5 		ldr	r0, [fp, #-24]
 1459 035c FEFFFFEB 		bl	ficha_valida
 1460 0360 0030A0E1 		mov	r3, r0
 1461 0364 0D304BE5 		strb	r3, [fp, #-13]
 221:../reversi8_2019.c **** 	while ((posicion_valida == 1) && (casilla != color))
 1462              		.loc 1 221 0
 1463 0368 130000EA 		b	.L14
 1464              	.L16:
 222:../reversi8_2019.c **** 	// mientras la casilla está en el tablero, no está vací­a,
 223:../reversi8_2019.c **** 	// y es del color rival seguimos buscando el patron de volteo
 224:../reversi8_2019.c **** 	{
 225:../reversi8_2019.c **** 		FA = FA + SF;
 1465              		.loc 1 225 0
 1466 036c 1D205BE5 		ldrb	r2, [fp, #-29]
 1467 0370 0430DBE5 		ldrb	r3, [fp, #4]
 1468 0374 033082E0 		add	r3, r2, r3
 1469 0378 1D304BE5 		strb	r3, [fp, #-29]
 226:../reversi8_2019.c **** 		CA = CA + SC;
 1470              		.loc 1 226 0
 1471 037c 1E205BE5 		ldrb	r2, [fp, #-30]
 1472 0380 0830DBE5 		ldrb	r3, [fp, #8]
 1473 0384 033082E0 		add	r3, r2, r3
 1474 0388 1E304BE5 		strb	r3, [fp, #-30]
 227:../reversi8_2019.c **** 		*longitud = *longitud + 1;
 1475              		.loc 1 227 0
 1476 038c 1C301BE5 		ldr	r3, [fp, #-28]
 1477 0390 003093E5 		ldr	r3, [r3, #0]
 1478 0394 012083E2 		add	r2, r3, #1
 1479 0398 1C301BE5 		ldr	r3, [fp, #-28]
 1480 039c 002083E5 		str	r2, [r3, #0]
 228:../reversi8_2019.c **** 		casilla = ficha_valida(tablero, FA, CA, &posicion_valida);
 1481              		.loc 1 228 0
 1482 03a0 1D105BE5 		ldrb	r1, [fp, #-29]	@ zero_extendqisi2
 1483 03a4 1E205BE5 		ldrb	r2, [fp, #-30]	@ zero_extendqisi2
 1484 03a8 14304BE2 		sub	r3, fp, #20
 1485 03ac 18001BE5 		ldr	r0, [fp, #-24]
 1486 03b0 FEFFFFEB 		bl	ficha_valida
 1487 03b4 0030A0E1 		mov	r3, r0
 1488 03b8 0D304BE5 		strb	r3, [fp, #-13]
 1489              	.L14:
 221:../reversi8_2019.c **** 	while ((posicion_valida == 1) && (casilla != color))
 1490              		.loc 1 221 0 discriminator 1
 1491 03bc 14301BE5 		ldr	r3, [fp, #-20]
 1492 03c0 010053E3 		cmp	r3, #1
 1493 03c4 0300001A 		bne	.L15
 221:../reversi8_2019.c **** 	while ((posicion_valida == 1) && (casilla != color))
 1494              		.loc 1 221 0 is_stmt 0 discriminator 2
 1495 03c8 0D205BE5 		ldrb	r2, [fp, #-13]	@ zero_extendqisi2
 1496 03cc 0C30DBE5 		ldrb	r3, [fp, #12]	@ zero_extendqisi2
 1497 03d0 030052E1 		cmp	r2, r3
 1498 03d4 E4FFFF1A 		bne	.L16
 1499              	.L15:
 229:../reversi8_2019.c **** 	}
 230:../reversi8_2019.c ****     // si la ultima posición era válida y la ficha es del jugador actual,
 231:../reversi8_2019.c ****     // entonces hemos encontrado el patrón
 232:../reversi8_2019.c **** 	if ((posicion_valida == 1) && (casilla == color) && (*longitud >0))
 1500              		.loc 1 232 0 is_stmt 1
 1501 03d8 14301BE5 		ldr	r3, [fp, #-20]
 1502 03dc 010053E3 		cmp	r3, #1
 1503 03e0 0900001A 		bne	.L17
 1504              		.loc 1 232 0 is_stmt 0 discriminator 1
 1505 03e4 0D205BE5 		ldrb	r2, [fp, #-13]	@ zero_extendqisi2
 1506 03e8 0C30DBE5 		ldrb	r3, [fp, #12]	@ zero_extendqisi2
 1507 03ec 030052E1 		cmp	r2, r3
 1508 03f0 0500001A 		bne	.L17
 1509 03f4 1C301BE5 		ldr	r3, [fp, #-28]
 1510 03f8 003093E5 		ldr	r3, [r3, #0]
 1511 03fc 000053E3 		cmp	r3, #0
 1512 0400 010000DA 		ble	.L17
 233:../reversi8_2019.c **** 		return PATRON_ENCONTRADO; // si hay que voltear una ficha o más hemos encontrado el patrón
 1513              		.loc 1 233 0 is_stmt 1
 1514 0404 0130A0E3 		mov	r3, #1
 1515 0408 000000EA 		b	.L18
 1516              	.L17:
 234:../reversi8_2019.c **** 	else
 235:../reversi8_2019.c **** 		return NO_HAY_PATRON; // si no hay que voltear no hay patrón
 1517              		.loc 1 235 0
 1518 040c 0030A0E3 		mov	r3, #0
 1519              	.L18:
 236:../reversi8_2019.c **** }
 1520              		.loc 1 236 0
 1521 0410 0300A0E1 		mov	r0, r3
 1522 0414 0CD04BE2 		sub	sp, fp, #12
 1523 0418 00689DE8 		ldmfd	sp, {fp, sp, lr}
 1524 041c 1EFF2FE1 		bx	lr
 1525              		.cfi_endproc
 1526              	.LFE3:
 1528              		.align	2
 1529              		.global	patron_volteo_test_tiempos
 1531              	patron_volteo_test_tiempos:
 1532              	.LFB4:
 237:../reversi8_2019.c **** 
 238:../reversi8_2019.c **** // Función para probar que las diferentes implementaciones de patron_volteo() devuelven el mismo re
 239:../reversi8_2019.c **** // Además, se mide el tiempo de ejecutar cada implementación
 240:../reversi8_2019.c **** int patron_volteo_test_tiempos(char tablero[][DIM], int *longitud, char FA, char CA, char SF, char 
 241:../reversi8_2019.c **** {
 1533              		.loc 1 241 0
 1534              		.cfi_startproc
 1535              		@ Function supports interworking.
 1536              		@ args = 12, pretend = 0, frame = 56
 1537              		@ frame_needed = 1, uses_anonymous_args = 0
 1538 0420 0DC0A0E1 		mov	ip, sp
 1539              	.LCFI8:
 1540              		.cfi_def_cfa_register 12
 1541 0424 00D82DE9 		stmfd	sp!, {fp, ip, lr, pc}
 1542 0428 04B04CE2 		sub	fp, ip, #4
 1543              		.cfi_offset 14, -8
 1544              		.cfi_offset 13, -12
 1545              		.cfi_offset 11, -16
 1546              	.LCFI9:
 1547              		.cfi_def_cfa 11, 4
 1548 042c 48D04DE2 		sub	sp, sp, #72
 1549 0430 38000BE5 		str	r0, [fp, #-56]
 1550 0434 3C100BE5 		str	r1, [fp, #-60]
 1551 0438 3D204BE5 		strb	r2, [fp, #-61]
 1552 043c 3E304BE5 		strb	r3, [fp, #-62]
 242:../reversi8_2019.c **** 	volatile int patron_c_c, patron_arm_c, patron_arm_arm;
 243:../reversi8_2019.c **** 
 244:../reversi8_2019.c **** 	volatile int timeA;
 245:../reversi8_2019.c **** 	volatile int timeD;
 246:../reversi8_2019.c **** 	volatile int timeT;
 247:../reversi8_2019.c **** 
 248:../reversi8_2019.c **** 	timer2_inicializar();
 1553              		.loc 1 248 0
 1554 0440 FEFFFFEB 		bl	timer2_inicializar
 249:../reversi8_2019.c **** 
 250:../reversi8_2019.c **** 	// Ejecutar patron_volteo
 251:../reversi8_2019.c **** 	timer2_empezar();
 1555              		.loc 1 251 0
 1556 0444 FEFFFFEB 		bl	timer2_empezar
 252:../reversi8_2019.c **** 	timeA = timer2_leer();
 1557              		.loc 1 252 0
 1558 0448 FEFFFFEB 		bl	timer2_leer
 1559 044c 0030A0E1 		mov	r3, r0
 1560 0450 1C300BE5 		str	r3, [fp, #-28]
 253:../reversi8_2019.c **** 	patron_c_c = patron_volteo(tablero, longitud, FA, CA, SF, SC, color);
 1561              		.loc 1 253 0
 1562 0454 3D205BE5 		ldrb	r2, [fp, #-61]	@ zero_extendqisi2
 1563 0458 3E305BE5 		ldrb	r3, [fp, #-62]	@ zero_extendqisi2
 1564 045c 0410DBE5 		ldrb	r1, [fp, #4]	@ zero_extendqisi2
 1565 0460 00108DE5 		str	r1, [sp, #0]
 1566 0464 0810DBE5 		ldrb	r1, [fp, #8]	@ zero_extendqisi2
 1567 0468 04108DE5 		str	r1, [sp, #4]
 1568 046c 0C10DBE5 		ldrb	r1, [fp, #12]	@ zero_extendqisi2
 1569 0470 08108DE5 		str	r1, [sp, #8]
 1570 0474 38001BE5 		ldr	r0, [fp, #-56]
 1571 0478 3C101BE5 		ldr	r1, [fp, #-60]
 1572 047c FEFFFFEB 		bl	patron_volteo
 1573 0480 0030A0E1 		mov	r3, r0
 1574 0484 10300BE5 		str	r3, [fp, #-16]
 254:../reversi8_2019.c **** 	timeD = timer2_parar();
 1575              		.loc 1 254 0
 1576 0488 FEFFFFEB 		bl	timer2_parar
 1577 048c 0030A0E1 		mov	r3, r0
 1578 0490 20300BE5 		str	r3, [fp, #-32]
 255:../reversi8_2019.c **** 	timeT = timeD - timeA;
 1579              		.loc 1 255 0
 1580 0494 20201BE5 		ldr	r2, [fp, #-32]
 1581 0498 1C301BE5 		ldr	r3, [fp, #-28]
 1582 049c 023063E0 		rsb	r3, r3, r2
 1583 04a0 24300BE5 		str	r3, [fp, #-36]
 256:../reversi8_2019.c **** 
 257:../reversi8_2019.c **** 	volatile int longitud_c_c = *longitud;
 1584              		.loc 1 257 0
 1585 04a4 3C301BE5 		ldr	r3, [fp, #-60]
 1586 04a8 003093E5 		ldr	r3, [r3, #0]
 1587 04ac 28300BE5 		str	r3, [fp, #-40]
 258:../reversi8_2019.c **** 	*longitud = 0;
 1588              		.loc 1 258 0
 1589 04b0 3C301BE5 		ldr	r3, [fp, #-60]
 1590 04b4 0020A0E3 		mov	r2, #0
 1591 04b8 002083E5 		str	r2, [r3, #0]
 259:../reversi8_2019.c **** 
 260:../reversi8_2019.c **** 	// Ejecutar patron_volteo_arm_c
 261:../reversi8_2019.c **** 	timer2_empezar();
 1592              		.loc 1 261 0
 1593 04bc FEFFFFEB 		bl	timer2_empezar
 262:../reversi8_2019.c **** 	timeA = timer2_leer();
 1594              		.loc 1 262 0
 1595 04c0 FEFFFFEB 		bl	timer2_leer
 1596 04c4 0030A0E1 		mov	r3, r0
 1597 04c8 1C300BE5 		str	r3, [fp, #-28]
 263:../reversi8_2019.c **** 	patron_arm_c = patron_volteo_arm_c(tablero, longitud, FA, CA, SF, SC, color);
 1598              		.loc 1 263 0
 1599 04cc 3D205BE5 		ldrb	r2, [fp, #-61]	@ zero_extendqisi2
 1600 04d0 3E305BE5 		ldrb	r3, [fp, #-62]	@ zero_extendqisi2
 1601 04d4 0410DBE5 		ldrb	r1, [fp, #4]	@ zero_extendqisi2
 1602 04d8 00108DE5 		str	r1, [sp, #0]
 1603 04dc 0810DBE5 		ldrb	r1, [fp, #8]	@ zero_extendqisi2
 1604 04e0 04108DE5 		str	r1, [sp, #4]
 1605 04e4 0C10DBE5 		ldrb	r1, [fp, #12]	@ zero_extendqisi2
 1606 04e8 08108DE5 		str	r1, [sp, #8]
 1607 04ec 38001BE5 		ldr	r0, [fp, #-56]
 1608 04f0 3C101BE5 		ldr	r1, [fp, #-60]
 1609 04f4 FEFFFFEB 		bl	patron_volteo_arm_c
 1610 04f8 0030A0E1 		mov	r3, r0
 1611 04fc 14300BE5 		str	r3, [fp, #-20]
 264:../reversi8_2019.c **** 	timeD = timer2_parar();
 1612              		.loc 1 264 0
 1613 0500 FEFFFFEB 		bl	timer2_parar
 1614 0504 0030A0E1 		mov	r3, r0
 1615 0508 20300BE5 		str	r3, [fp, #-32]
 265:../reversi8_2019.c **** 	timeT = timeD - timeA;
 1616              		.loc 1 265 0
 1617 050c 20201BE5 		ldr	r2, [fp, #-32]
 1618 0510 1C301BE5 		ldr	r3, [fp, #-28]
 1619 0514 023063E0 		rsb	r3, r3, r2
 1620 0518 24300BE5 		str	r3, [fp, #-36]
 266:../reversi8_2019.c **** 
 267:../reversi8_2019.c **** 	volatile int longitud_arm_c = *longitud;
 1621              		.loc 1 267 0
 1622 051c 3C301BE5 		ldr	r3, [fp, #-60]
 1623 0520 003093E5 		ldr	r3, [r3, #0]
 1624 0524 2C300BE5 		str	r3, [fp, #-44]
 268:../reversi8_2019.c **** 	*longitud = 0;
 1625              		.loc 1 268 0
 1626 0528 3C301BE5 		ldr	r3, [fp, #-60]
 1627 052c 0020A0E3 		mov	r2, #0
 1628 0530 002083E5 		str	r2, [r3, #0]
 269:../reversi8_2019.c **** 
 270:../reversi8_2019.c **** 	// Ejecutar patron_volteo_arm_arm
 271:../reversi8_2019.c **** 	timer2_empezar();
 1629              		.loc 1 271 0
 1630 0534 FEFFFFEB 		bl	timer2_empezar
 272:../reversi8_2019.c **** 	timeA = timer2_leer();
 1631              		.loc 1 272 0
 1632 0538 FEFFFFEB 		bl	timer2_leer
 1633 053c 0030A0E1 		mov	r3, r0
 1634 0540 1C300BE5 		str	r3, [fp, #-28]
 273:../reversi8_2019.c **** 	patron_arm_arm = patron_volteo_arm_arm_opt(tablero, longitud, FA, CA, SF, SC, color);
 1635              		.loc 1 273 0
 1636 0544 3D205BE5 		ldrb	r2, [fp, #-61]	@ zero_extendqisi2
 1637 0548 3E305BE5 		ldrb	r3, [fp, #-62]	@ zero_extendqisi2
 1638 054c 0410DBE5 		ldrb	r1, [fp, #4]	@ zero_extendqisi2
 1639 0550 00108DE5 		str	r1, [sp, #0]
 1640 0554 0810DBE5 		ldrb	r1, [fp, #8]	@ zero_extendqisi2
 1641 0558 04108DE5 		str	r1, [sp, #4]
 1642 055c 0C10DBE5 		ldrb	r1, [fp, #12]	@ zero_extendqisi2
 1643 0560 08108DE5 		str	r1, [sp, #8]
 1644 0564 38001BE5 		ldr	r0, [fp, #-56]
 1645 0568 3C101BE5 		ldr	r1, [fp, #-60]
 1646 056c FEFFFFEB 		bl	patron_volteo_arm_arm_opt
 1647 0570 0030A0E1 		mov	r3, r0
 1648 0574 18300BE5 		str	r3, [fp, #-24]
 274:../reversi8_2019.c **** 	timeD = timer2_parar();
 1649              		.loc 1 274 0
 1650 0578 FEFFFFEB 		bl	timer2_parar
 1651 057c 0030A0E1 		mov	r3, r0
 1652 0580 20300BE5 		str	r3, [fp, #-32]
 275:../reversi8_2019.c **** 	timeT = timeD - timeA;
 1653              		.loc 1 275 0
 1654 0584 20201BE5 		ldr	r2, [fp, #-32]
 1655 0588 1C301BE5 		ldr	r3, [fp, #-28]
 1656 058c 023063E0 		rsb	r3, r3, r2
 1657 0590 24300BE5 		str	r3, [fp, #-36]
 276:../reversi8_2019.c **** 
 277:../reversi8_2019.c **** 	volatile int longitud_arm_arm = *longitud;
 1658              		.loc 1 277 0
 1659 0594 3C301BE5 		ldr	r3, [fp, #-60]
 1660 0598 003093E5 		ldr	r3, [r3, #0]
 1661 059c 30300BE5 		str	r3, [fp, #-48]
 278:../reversi8_2019.c **** 
 279:../reversi8_2019.c **** 	// Comprobar que los resultados de todas las funciones sean iguales
 280:../reversi8_2019.c **** 	if (patron_c_c != patron_arm_c || patron_c_c != patron_arm_arm) {
 1662              		.loc 1 280 0
 1663 05a0 10201BE5 		ldr	r2, [fp, #-16]
 1664 05a4 14301BE5 		ldr	r3, [fp, #-20]
 1665 05a8 030052E1 		cmp	r2, r3
 1666 05ac 0300001A 		bne	.L20
 1667              		.loc 1 280 0 is_stmt 0 discriminator 1
 1668 05b0 10201BE5 		ldr	r2, [fp, #-16]
 1669 05b4 18301BE5 		ldr	r3, [fp, #-24]
 1670 05b8 030052E1 		cmp	r2, r3
 1671 05bc 0000000A 		beq	.L21
 1672              	.L20:
 281:../reversi8_2019.c **** 		while (1);
 1673              		.loc 1 281 0 is_stmt 1 discriminator 1
 1674 05c0 FEFFFFEA 		b	.L20
 1675              	.L21:
 282:../reversi8_2019.c **** 	}
 283:../reversi8_2019.c **** 	if (longitud_c_c != longitud_arm_c || longitud_c_c != longitud_arm_arm) {
 1676              		.loc 1 283 0
 1677 05c4 28201BE5 		ldr	r2, [fp, #-40]
 1678 05c8 2C301BE5 		ldr	r3, [fp, #-44]
 1679 05cc 030052E1 		cmp	r2, r3
 1680 05d0 0300001A 		bne	.L22
 1681              		.loc 1 283 0 is_stmt 0 discriminator 1
 1682 05d4 28201BE5 		ldr	r2, [fp, #-40]
 1683 05d8 30301BE5 		ldr	r3, [fp, #-48]
 1684 05dc 030052E1 		cmp	r2, r3
 1685 05e0 0000000A 		beq	.L23
 1686              	.L22:
 284:../reversi8_2019.c **** 		while(1);
 1687              		.loc 1 284 0 is_stmt 1 discriminator 1
 1688 05e4 FEFFFFEA 		b	.L22
 1689              	.L23:
 285:../reversi8_2019.c **** 	}
 286:../reversi8_2019.c **** 	return patron_c_c;
 1690              		.loc 1 286 0
 1691 05e8 10301BE5 		ldr	r3, [fp, #-16]
 287:../reversi8_2019.c **** }
 1692              		.loc 1 287 0
 1693 05ec 0300A0E1 		mov	r0, r3
 1694 05f0 0CD04BE2 		sub	sp, fp, #12
 1695 05f4 00689DE8 		ldmfd	sp, {fp, sp, lr}
 1696 05f8 1EFF2FE1 		bx	lr
 1697              		.cfi_endproc
 1698              	.LFE4:
 1700              		.align	2
 1701              		.global	patron_volteo_test
 1703              	patron_volteo_test:
 1704              	.LFB5:
 288:../reversi8_2019.c **** 
 289:../reversi8_2019.c **** // Función para probar que las diferentes implementaciones de patron_volteo() devuelven el mismo re
 290:../reversi8_2019.c **** int patron_volteo_test(char tablero[][DIM], int *longitud, char FA, char CA, char SF, char SC, char
 291:../reversi8_2019.c **** {
 1705              		.loc 1 291 0
 1706              		.cfi_startproc
 1707              		@ Function supports interworking.
 1708              		@ args = 12, pretend = 0, frame = 40
 1709              		@ frame_needed = 1, uses_anonymous_args = 0
 1710 05fc 0DC0A0E1 		mov	ip, sp
 1711              	.LCFI10:
 1712              		.cfi_def_cfa_register 12
 1713 0600 00D82DE9 		stmfd	sp!, {fp, ip, lr, pc}
 1714 0604 04B04CE2 		sub	fp, ip, #4
 1715              		.cfi_offset 14, -8
 1716              		.cfi_offset 13, -12
 1717              		.cfi_offset 11, -16
 1718              	.LCFI11:
 1719              		.cfi_def_cfa 11, 4
 1720 0608 38D04DE2 		sub	sp, sp, #56
 1721 060c 28000BE5 		str	r0, [fp, #-40]
 1722 0610 2C100BE5 		str	r1, [fp, #-44]
 1723 0614 2D204BE5 		strb	r2, [fp, #-45]
 1724 0618 2E304BE5 		strb	r3, [fp, #-46]
 292:../reversi8_2019.c **** 	int patron_c_c, patron_arm_c, patron_arm_arm;
 293:../reversi8_2019.c **** 
 294:../reversi8_2019.c **** 	// Ejecutar patron_volteo
 295:../reversi8_2019.c **** 	patron_c_c = patron_volteo(tablero, longitud, FA, CA, SF, SC, color);
 1725              		.loc 1 295 0
 1726 061c 2D205BE5 		ldrb	r2, [fp, #-45]	@ zero_extendqisi2
 1727 0620 2E305BE5 		ldrb	r3, [fp, #-46]	@ zero_extendqisi2
 1728 0624 0410DBE5 		ldrb	r1, [fp, #4]	@ zero_extendqisi2
 1729 0628 00108DE5 		str	r1, [sp, #0]
 1730 062c 0810DBE5 		ldrb	r1, [fp, #8]	@ zero_extendqisi2
 1731 0630 04108DE5 		str	r1, [sp, #4]
 1732 0634 0C10DBE5 		ldrb	r1, [fp, #12]	@ zero_extendqisi2
 1733 0638 08108DE5 		str	r1, [sp, #8]
 1734 063c 28001BE5 		ldr	r0, [fp, #-40]
 1735 0640 2C101BE5 		ldr	r1, [fp, #-44]
 1736 0644 FEFFFFEB 		bl	patron_volteo
 1737 0648 10000BE5 		str	r0, [fp, #-16]
 296:../reversi8_2019.c **** 	int longitud_c_c = *longitud;
 1738              		.loc 1 296 0
 1739 064c 2C301BE5 		ldr	r3, [fp, #-44]
 1740 0650 003093E5 		ldr	r3, [r3, #0]
 1741 0654 14300BE5 		str	r3, [fp, #-20]
 297:../reversi8_2019.c **** 	*longitud = 0;
 1742              		.loc 1 297 0
 1743 0658 2C301BE5 		ldr	r3, [fp, #-44]
 1744 065c 0020A0E3 		mov	r2, #0
 1745 0660 002083E5 		str	r2, [r3, #0]
 298:../reversi8_2019.c **** 
 299:../reversi8_2019.c **** 	// Ejecutar patron_volteo_arm_c
 300:../reversi8_2019.c **** 	patron_arm_c = patron_volteo_arm_c(tablero, longitud, FA, CA, SF, SC, color);
 1746              		.loc 1 300 0
 1747 0664 2D205BE5 		ldrb	r2, [fp, #-45]	@ zero_extendqisi2
 1748 0668 2E305BE5 		ldrb	r3, [fp, #-46]	@ zero_extendqisi2
 1749 066c 0410DBE5 		ldrb	r1, [fp, #4]	@ zero_extendqisi2
 1750 0670 00108DE5 		str	r1, [sp, #0]
 1751 0674 0810DBE5 		ldrb	r1, [fp, #8]	@ zero_extendqisi2
 1752 0678 04108DE5 		str	r1, [sp, #4]
 1753 067c 0C10DBE5 		ldrb	r1, [fp, #12]	@ zero_extendqisi2
 1754 0680 08108DE5 		str	r1, [sp, #8]
 1755 0684 28001BE5 		ldr	r0, [fp, #-40]
 1756 0688 2C101BE5 		ldr	r1, [fp, #-44]
 1757 068c FEFFFFEB 		bl	patron_volteo_arm_c
 1758 0690 18000BE5 		str	r0, [fp, #-24]
 301:../reversi8_2019.c **** 	int longitud_arm_c = *longitud;
 1759              		.loc 1 301 0
 1760 0694 2C301BE5 		ldr	r3, [fp, #-44]
 1761 0698 003093E5 		ldr	r3, [r3, #0]
 1762 069c 1C300BE5 		str	r3, [fp, #-28]
 302:../reversi8_2019.c **** 	*longitud = 0;
 1763              		.loc 1 302 0
 1764 06a0 2C301BE5 		ldr	r3, [fp, #-44]
 1765 06a4 0020A0E3 		mov	r2, #0
 1766 06a8 002083E5 		str	r2, [r3, #0]
 303:../reversi8_2019.c **** 
 304:../reversi8_2019.c **** 	// Ejecutar patron_volteo_arm_arm
 305:../reversi8_2019.c **** 	patron_arm_arm = patron_volteo_arm_arm(tablero, longitud, FA, CA, SF, SC, color);
 1767              		.loc 1 305 0
 1768 06ac 2D205BE5 		ldrb	r2, [fp, #-45]	@ zero_extendqisi2
 1769 06b0 2E305BE5 		ldrb	r3, [fp, #-46]	@ zero_extendqisi2
 1770 06b4 0410DBE5 		ldrb	r1, [fp, #4]	@ zero_extendqisi2
 1771 06b8 00108DE5 		str	r1, [sp, #0]
 1772 06bc 0810DBE5 		ldrb	r1, [fp, #8]	@ zero_extendqisi2
 1773 06c0 04108DE5 		str	r1, [sp, #4]
 1774 06c4 0C10DBE5 		ldrb	r1, [fp, #12]	@ zero_extendqisi2
 1775 06c8 08108DE5 		str	r1, [sp, #8]
 1776 06cc 28001BE5 		ldr	r0, [fp, #-40]
 1777 06d0 2C101BE5 		ldr	r1, [fp, #-44]
 1778 06d4 FEFFFFEB 		bl	patron_volteo_arm_arm
 1779 06d8 20000BE5 		str	r0, [fp, #-32]
 306:../reversi8_2019.c **** 	int longitud_arm_arm = *longitud;
 1780              		.loc 1 306 0
 1781 06dc 2C301BE5 		ldr	r3, [fp, #-44]
 1782 06e0 003093E5 		ldr	r3, [r3, #0]
 1783 06e4 24300BE5 		str	r3, [fp, #-36]
 307:../reversi8_2019.c **** 
 308:../reversi8_2019.c **** 	// Comprobar que los resultados de todas las funciones sean iguales
 309:../reversi8_2019.c **** 	if (patron_c_c != patron_arm_c || patron_c_c != patron_arm_arm) {
 1784              		.loc 1 309 0
 1785 06e8 10201BE5 		ldr	r2, [fp, #-16]
 1786 06ec 18301BE5 		ldr	r3, [fp, #-24]
 1787 06f0 030052E1 		cmp	r2, r3
 1788 06f4 0300001A 		bne	.L25
 1789              		.loc 1 309 0 is_stmt 0 discriminator 1
 1790 06f8 10201BE5 		ldr	r2, [fp, #-16]
 1791 06fc 20301BE5 		ldr	r3, [fp, #-32]
 1792 0700 030052E1 		cmp	r2, r3
 1793 0704 0000000A 		beq	.L26
 1794              	.L25:
 310:../reversi8_2019.c **** 		while (1);
 1795              		.loc 1 310 0 is_stmt 1 discriminator 1
 1796 0708 FEFFFFEA 		b	.L25
 1797              	.L26:
 311:../reversi8_2019.c **** 	}
 312:../reversi8_2019.c **** 	if (longitud_c_c != longitud_arm_c || longitud_c_c != longitud_arm_arm) {
 1798              		.loc 1 312 0
 1799 070c 14201BE5 		ldr	r2, [fp, #-20]
 1800 0710 1C301BE5 		ldr	r3, [fp, #-28]
 1801 0714 030052E1 		cmp	r2, r3
 1802 0718 0300001A 		bne	.L27
 1803              		.loc 1 312 0 is_stmt 0 discriminator 1
 1804 071c 14201BE5 		ldr	r2, [fp, #-20]
 1805 0720 24301BE5 		ldr	r3, [fp, #-36]
 1806 0724 030052E1 		cmp	r2, r3
 1807 0728 0000000A 		beq	.L28
 1808              	.L27:
 313:../reversi8_2019.c **** 		while(1);
 1809              		.loc 1 313 0 is_stmt 1 discriminator 1
 1810 072c FEFFFFEA 		b	.L27
 1811              	.L28:
 314:../reversi8_2019.c **** 	}
 315:../reversi8_2019.c **** 	return patron_c_c;
 1812              		.loc 1 315 0
 1813 0730 10301BE5 		ldr	r3, [fp, #-16]
 316:../reversi8_2019.c **** }
 1814              		.loc 1 316 0
 1815 0734 0300A0E1 		mov	r0, r3
 1816 0738 0CD04BE2 		sub	sp, fp, #12
 1817 073c 00689DE8 		ldmfd	sp, {fp, sp, lr}
 1818 0740 1EFF2FE1 		bx	lr
 1819              		.cfi_endproc
 1820              	.LFE5:
 1822              		.align	2
 1823              		.global	voltear
 1825              	voltear:
 1826              	.LFB6:
 317:../reversi8_2019.c **** 
 318:../reversi8_2019.c **** ////////////////////////////////////////////////////////////////////////////////
 319:../reversi8_2019.c **** // voltea n fichas en la dirección que toque
 320:../reversi8_2019.c **** // SF y SC son las cantidades a sumar para movernos en la dirección que toque
 321:../reversi8_2019.c **** // color indica el color de la pieza que se acaba de colocar
 322:../reversi8_2019.c **** // FA y CA son la fila y columna a analizar
 323:../reversi8_2019.c **** void voltear(char tablero[][DIM], char FA, char CA, char SF, char SC, int n, char color)
 324:../reversi8_2019.c **** {
 1827              		.loc 1 324 0
 1828              		.cfi_startproc
 1829              		@ Function supports interworking.
 1830              		@ args = 12, pretend = 0, frame = 16
 1831              		@ frame_needed = 1, uses_anonymous_args = 0
 1832 0744 0DC0A0E1 		mov	ip, sp
 1833              	.LCFI12:
 1834              		.cfi_def_cfa_register 12
 1835 0748 00D82DE9 		stmfd	sp!, {fp, ip, lr, pc}
 1836 074c 04B04CE2 		sub	fp, ip, #4
 1837              		.cfi_offset 14, -8
 1838              		.cfi_offset 13, -12
 1839              		.cfi_offset 11, -16
 1840              	.LCFI13:
 1841              		.cfi_def_cfa 11, 4
 1842 0750 10D04DE2 		sub	sp, sp, #16
 1843 0754 18000BE5 		str	r0, [fp, #-24]
 1844 0758 19104BE5 		strb	r1, [fp, #-25]
 1845 075c 1A204BE5 		strb	r2, [fp, #-26]
 1846 0760 1B304BE5 		strb	r3, [fp, #-27]
 325:../reversi8_2019.c ****     int i;
 326:../reversi8_2019.c **** 
 327:../reversi8_2019.c ****     for (i = 0; i < n; i++)
 1847              		.loc 1 327 0
 1848 0764 0030A0E3 		mov	r3, #0
 1849 0768 10300BE5 		str	r3, [fp, #-16]
 1850 076c 110000EA 		b	.L30
 1851              	.L31:
 328:../reversi8_2019.c ****     {
 329:../reversi8_2019.c ****         FA = FA + SF;
 1852              		.loc 1 329 0 discriminator 2
 1853 0770 19205BE5 		ldrb	r2, [fp, #-25]
 1854 0774 1B305BE5 		ldrb	r3, [fp, #-27]
 1855 0778 033082E0 		add	r3, r2, r3
 1856 077c 19304BE5 		strb	r3, [fp, #-25]
 330:../reversi8_2019.c ****         CA = CA + SC;
 1857              		.loc 1 330 0 discriminator 2
 1858 0780 1A205BE5 		ldrb	r2, [fp, #-26]
 1859 0784 0430DBE5 		ldrb	r3, [fp, #4]
 1860 0788 033082E0 		add	r3, r2, r3
 1861 078c 1A304BE5 		strb	r3, [fp, #-26]
 331:../reversi8_2019.c ****         tablero[FA][CA] = color;
 1862              		.loc 1 331 0 discriminator 2
 1863 0790 19305BE5 		ldrb	r3, [fp, #-25]	@ zero_extendqisi2
 1864 0794 8331A0E1 		mov	r3, r3, asl #3
 1865 0798 18201BE5 		ldr	r2, [fp, #-24]
 1866 079c 032082E0 		add	r2, r2, r3
 1867 07a0 1A305BE5 		ldrb	r3, [fp, #-26]	@ zero_extendqisi2
 1868 07a4 0C10DBE5 		ldrb	r1, [fp, #12]
 1869 07a8 0310C2E7 		strb	r1, [r2, r3]
 327:../reversi8_2019.c ****     for (i = 0; i < n; i++)
 1870              		.loc 1 327 0 discriminator 2
 1871 07ac 10301BE5 		ldr	r3, [fp, #-16]
 1872 07b0 013083E2 		add	r3, r3, #1
 1873 07b4 10300BE5 		str	r3, [fp, #-16]
 1874              	.L30:
 327:../reversi8_2019.c ****     for (i = 0; i < n; i++)
 1875              		.loc 1 327 0 is_stmt 0 discriminator 1
 1876 07b8 10201BE5 		ldr	r2, [fp, #-16]
 1877 07bc 08309BE5 		ldr	r3, [fp, #8]
 1878 07c0 030052E1 		cmp	r2, r3
 1879 07c4 E9FFFFBA 		blt	.L31
 332:../reversi8_2019.c ****     }
 333:../reversi8_2019.c **** }
 1880              		.loc 1 333 0 is_stmt 1
 1881 07c8 0CD04BE2 		sub	sp, fp, #12
 1882 07cc 00689DE8 		ldmfd	sp, {fp, sp, lr}
 1883 07d0 1EFF2FE1 		bx	lr
 1884              		.cfi_endproc
 1885              	.LFE6:
 1887              		.align	2
 1888              		.global	actualizar_tablero
 1890              	actualizar_tablero:
 1891              	.LFB7:
 334:../reversi8_2019.c **** ////////////////////////////////////////////////////////////////////////////////
 335:../reversi8_2019.c **** // comprueba si hay que actualizar alguna ficha
 336:../reversi8_2019.c **** // no comprueba que el movimiento realizado sea válido
 337:../reversi8_2019.c **** // f y c son la fila y columna a analizar
 338:../reversi8_2019.c **** // char vSF[DIM] = {-1,-1, 0, 1, 1, 1, 0,-1};
 339:../reversi8_2019.c **** // char vSC[DIM] = { 0, 1, 1, 1, 0,-1,-1,-1};
 340:../reversi8_2019.c **** int actualizar_tablero(char tablero[][DIM], char f, char c, char color)
 341:../reversi8_2019.c **** {
 1892              		.loc 1 341 0
 1893              		.cfi_startproc
 1894              		@ Function supports interworking.
 1895              		@ args = 0, pretend = 0, frame = 24
 1896              		@ frame_needed = 1, uses_anonymous_args = 0
 1897 07d4 0DC0A0E1 		mov	ip, sp
 1898              	.LCFI14:
 1899              		.cfi_def_cfa_register 12
 1900 07d8 00D82DE9 		stmfd	sp!, {fp, ip, lr, pc}
 1901 07dc 04B04CE2 		sub	fp, ip, #4
 1902              		.cfi_offset 14, -8
 1903              		.cfi_offset 13, -12
 1904              		.cfi_offset 11, -16
 1905              	.LCFI15:
 1906              		.cfi_def_cfa 11, 4
 1907 07e0 28D04DE2 		sub	sp, sp, #40
 1908 07e4 20000BE5 		str	r0, [fp, #-32]
 1909 07e8 21104BE5 		strb	r1, [fp, #-33]
 1910 07ec 22204BE5 		strb	r2, [fp, #-34]
 1911 07f0 23304BE5 		strb	r3, [fp, #-35]
 342:../reversi8_2019.c ****     char SF, SC; // cantidades a sumar para movernos en la dirección que toque
 343:../reversi8_2019.c ****     int i, flip, patron;
 344:../reversi8_2019.c **** 
 345:../reversi8_2019.c ****     for (i = 0; i < DIM; i++) // 0 es Norte, 1 NE, 2 E ...
 1912              		.loc 1 345 0
 1913 07f4 0030A0E3 		mov	r3, #0
 1914 07f8 10300BE5 		str	r3, [fp, #-16]
 1915 07fc 280000EA 		b	.L33
 1916              	.L35:
 346:../reversi8_2019.c ****     {
 347:../reversi8_2019.c ****         SF = vSF[i];
 1917              		.loc 1 347 0
 1918 0800 BC209FE5 		ldr	r2, .L36
 1919 0804 10301BE5 		ldr	r3, [fp, #-16]
 1920 0808 033082E0 		add	r3, r2, r3
 1921 080c 0030D3E5 		ldrb	r3, [r3, #0]
 1922 0810 11304BE5 		strb	r3, [fp, #-17]
 348:../reversi8_2019.c ****         SC = vSC[i];
 1923              		.loc 1 348 0
 1924 0814 AC209FE5 		ldr	r2, .L36+4
 1925 0818 10301BE5 		ldr	r3, [fp, #-16]
 1926 081c 033082E0 		add	r3, r2, r3
 1927 0820 0030D3E5 		ldrb	r3, [r3, #0]
 1928 0824 12304BE5 		strb	r3, [fp, #-18]
 349:../reversi8_2019.c ****         // flip: numero de fichas a voltear
 350:../reversi8_2019.c ****         flip = 0;
 1929              		.loc 1 350 0
 1930 0828 0030A0E3 		mov	r3, #0
 1931 082c 1C300BE5 		str	r3, [fp, #-28]
 351:../reversi8_2019.c ****         //patron = patron_volteo(tablero, &flip, f, c, SF, SC, color); //WASD
 352:../reversi8_2019.c ****         //patron = patron_volteo_arm_c(tablero, &flip, f, c, SF, SC, color);
 353:../reversi8_2019.c ****         patron = patron_volteo_test(tablero, &flip, f, c, SF, SC, color);
 1932              		.loc 1 353 0
 1933 0830 1C104BE2 		sub	r1, fp, #28
 1934 0834 21205BE5 		ldrb	r2, [fp, #-33]	@ zero_extendqisi2
 1935 0838 22305BE5 		ldrb	r3, [fp, #-34]	@ zero_extendqisi2
 1936 083c 11005BE5 		ldrb	r0, [fp, #-17]	@ zero_extendqisi2
 1937 0840 00008DE5 		str	r0, [sp, #0]
 1938 0844 12005BE5 		ldrb	r0, [fp, #-18]	@ zero_extendqisi2
 1939 0848 04008DE5 		str	r0, [sp, #4]
 1940 084c 23005BE5 		ldrb	r0, [fp, #-35]	@ zero_extendqisi2
 1941 0850 08008DE5 		str	r0, [sp, #8]
 1942 0854 20001BE5 		ldr	r0, [fp, #-32]
 1943 0858 FEFFFFEB 		bl	patron_volteo_test
 1944 085c 18000BE5 		str	r0, [fp, #-24]
 354:../reversi8_2019.c ****         //printf("Flip: %d \n", flip);
 355:../reversi8_2019.c ****         if (patron == PATRON_ENCONTRADO )
 1945              		.loc 1 355 0
 1946 0860 18301BE5 		ldr	r3, [fp, #-24]
 1947 0864 010053E3 		cmp	r3, #1
 1948 0868 0A00001A 		bne	.L34
 356:../reversi8_2019.c ****         {
 357:../reversi8_2019.c ****             voltear(tablero, f, c, SF, SC, flip, color);
 1949              		.loc 1 357 0
 1950 086c 1C001BE5 		ldr	r0, [fp, #-28]
 1951 0870 21105BE5 		ldrb	r1, [fp, #-33]	@ zero_extendqisi2
 1952 0874 22205BE5 		ldrb	r2, [fp, #-34]	@ zero_extendqisi2
 1953 0878 11305BE5 		ldrb	r3, [fp, #-17]	@ zero_extendqisi2
 1954 087c 12C05BE5 		ldrb	ip, [fp, #-18]	@ zero_extendqisi2
 1955 0880 00C08DE5 		str	ip, [sp, #0]
 1956 0884 04008DE5 		str	r0, [sp, #4]
 1957 0888 23005BE5 		ldrb	r0, [fp, #-35]	@ zero_extendqisi2
 1958 088c 08008DE5 		str	r0, [sp, #8]
 1959 0890 20001BE5 		ldr	r0, [fp, #-32]
 1960 0894 FEFFFFEB 		bl	voltear
 1961              	.L34:
 345:../reversi8_2019.c ****     for (i = 0; i < DIM; i++) // 0 es Norte, 1 NE, 2 E ...
 1962              		.loc 1 345 0
 1963 0898 10301BE5 		ldr	r3, [fp, #-16]
 1964 089c 013083E2 		add	r3, r3, #1
 1965 08a0 10300BE5 		str	r3, [fp, #-16]
 1966              	.L33:
 345:../reversi8_2019.c ****     for (i = 0; i < DIM; i++) // 0 es Norte, 1 NE, 2 E ...
 1967              		.loc 1 345 0 is_stmt 0 discriminator 1
 1968 08a4 10301BE5 		ldr	r3, [fp, #-16]
 1969 08a8 070053E3 		cmp	r3, #7
 1970 08ac D3FFFFDA 		ble	.L35
 358:../reversi8_2019.c ****         }
 359:../reversi8_2019.c ****     }
 360:../reversi8_2019.c ****     return 0;
 1971              		.loc 1 360 0 is_stmt 1
 1972 08b0 0030A0E3 		mov	r3, #0
 361:../reversi8_2019.c **** }
 1973              		.loc 1 361 0
 1974 08b4 0300A0E1 		mov	r0, r3
 1975 08b8 0CD04BE2 		sub	sp, fp, #12
 1976 08bc 00689DE8 		ldmfd	sp, {fp, sp, lr}
 1977 08c0 1EFF2FE1 		bx	lr
 1978              	.L37:
 1979              		.align	2
 1980              	.L36:
 1981 08c4 00000000 		.word	vSF
 1982 08c8 00000000 		.word	vSC
 1983              		.cfi_endproc
 1984              	.LFE7:
 1986              		.align	2
 1987              		.global	elegir_mov
 1989              	elegir_mov:
 1990              	.LFB8:
 362:../reversi8_2019.c **** 
 363:../reversi8_2019.c **** /////////////////////////////////////////////////////////////////////////////////
 364:../reversi8_2019.c **** // Recorre todo el tablero comprobando en cada posición si se puede mover
 365:../reversi8_2019.c **** // En caso afirmativo, consulta la puntuación de la posición y si es la mejor
 366:../reversi8_2019.c **** // que se ha encontrado la guarda
 367:../reversi8_2019.c **** // Al acabar escribe el movimiento seleccionado en f y c
 368:../reversi8_2019.c **** 
 369:../reversi8_2019.c **** // Candidatas
 370:../reversi8_2019.c **** // NO    0
 371:../reversi8_2019.c **** // SI    1
 372:../reversi8_2019.c **** // CASILLA_OCUPADA 2
 373:../reversi8_2019.c **** int elegir_mov(char candidatas[][DIM], char tablero[][DIM], char *f, char *c)
 374:../reversi8_2019.c **** {
 1991              		.loc 1 374 0
 1992              		.cfi_startproc
 1993              		@ Function supports interworking.
 1994              		@ args = 0, pretend = 0, frame = 56
 1995              		@ frame_needed = 1, uses_anonymous_args = 0
 1996 08cc 0DC0A0E1 		mov	ip, sp
 1997              	.LCFI16:
 1998              		.cfi_def_cfa_register 12
 1999 08d0 00D82DE9 		stmfd	sp!, {fp, ip, lr, pc}
 2000 08d4 04B04CE2 		sub	fp, ip, #4
 2001              		.cfi_offset 14, -8
 2002              		.cfi_offset 13, -12
 2003              		.cfi_offset 11, -16
 2004              	.LCFI17:
 2005              		.cfi_def_cfa 11, 4
 2006 08d8 48D04DE2 		sub	sp, sp, #72
 2007 08dc 38000BE5 		str	r0, [fp, #-56]
 2008 08e0 3C100BE5 		str	r1, [fp, #-60]
 2009 08e4 40200BE5 		str	r2, [fp, #-64]
 2010 08e8 44300BE5 		str	r3, [fp, #-68]
 375:../reversi8_2019.c ****     int i, j, k, found;
 376:../reversi8_2019.c ****     int mf = -1; // almacena la fila del mejor movimiento encontrado
 2011              		.loc 1 376 0
 2012 08ec 0030E0E3 		mvn	r3, #0
 2013 08f0 20300BE5 		str	r3, [fp, #-32]
 377:../reversi8_2019.c ****     int mc;      // almacena la columna del mejor movimiento encontrado
 378:../reversi8_2019.c ****     char mejor = 0; // almacena el mejor valor encontrado
 2014              		.loc 1 378 0
 2015 08f4 0030A0E3 		mov	r3, #0
 2016 08f8 25304BE5 		strb	r3, [fp, #-37]
 379:../reversi8_2019.c ****     int patron, longitud;
 380:../reversi8_2019.c ****     char SF, SC; // cantidades a sumar para movernos en la dirección que toque
 381:../reversi8_2019.c **** 
 382:../reversi8_2019.c ****     // Recorremos todo el tablero comprobando dónde podemos mover
 383:../reversi8_2019.c ****     // Comparamos la puntuación de los movimientos encontrados y nos quedamos con el mejor
 384:../reversi8_2019.c ****     for (i=0; i<DIM; i++)
 2017              		.loc 1 384 0
 2018 08fc 0030A0E3 		mov	r3, #0
 2019 0900 10300BE5 		str	r3, [fp, #-16]
 2020 0904 620000EA 		b	.L39
 2021              	.L46:
 385:../reversi8_2019.c ****     {
 386:../reversi8_2019.c ****         for (j=0; j<DIM; j++)
 2022              		.loc 1 386 0
 2023 0908 0030A0E3 		mov	r3, #0
 2024 090c 14300BE5 		str	r3, [fp, #-20]
 2025 0910 590000EA 		b	.L40
 2026              	.L45:
 387:../reversi8_2019.c ****         {   // indica en qué casillas quizá se pueda mover
 388:../reversi8_2019.c ****             if (candidatas[i][j] == SI)
 2027              		.loc 1 388 0
 2028 0914 10301BE5 		ldr	r3, [fp, #-16]
 2029 0918 8331A0E1 		mov	r3, r3, asl #3
 2030 091c 38201BE5 		ldr	r2, [fp, #-56]
 2031 0920 032082E0 		add	r2, r2, r3
 2032 0924 14301BE5 		ldr	r3, [fp, #-20]
 2033 0928 033082E0 		add	r3, r2, r3
 2034 092c 0020D3E5 		ldrb	r2, [r3, #0]	@ zero_extendqisi2
 2035 0930 9C319FE5 		ldr	r3, .L47
 2036 0934 0030D3E5 		ldrb	r3, [r3, #0]	@ zero_extendqisi2
 2037 0938 030052E1 		cmp	r2, r3
 2038 093c 4B00001A 		bne	.L41
 389:../reversi8_2019.c ****             {
 390:../reversi8_2019.c ****                 if (tablero[i][j] == CASILLA_VACIA)
 2039              		.loc 1 390 0
 2040 0940 10301BE5 		ldr	r3, [fp, #-16]
 2041 0944 8331A0E1 		mov	r3, r3, asl #3
 2042 0948 3C201BE5 		ldr	r2, [fp, #-60]
 2043 094c 032082E0 		add	r2, r2, r3
 2044 0950 14301BE5 		ldr	r3, [fp, #-20]
 2045 0954 033082E0 		add	r3, r2, r3
 2046 0958 0030D3E5 		ldrb	r3, [r3, #0]	@ zero_extendqisi2
 2047 095c 000053E3 		cmp	r3, #0
 2048 0960 4200001A 		bne	.L41
 391:../reversi8_2019.c ****                 {
 392:../reversi8_2019.c ****                     found = 0;
 2049              		.loc 1 392 0
 2050 0964 0030A0E3 		mov	r3, #0
 2051 0968 1C300BE5 		str	r3, [fp, #-28]
 393:../reversi8_2019.c ****                     k = 0;
 2052              		.loc 1 393 0
 2053 096c 0030A0E3 		mov	r3, #0
 2054 0970 18300BE5 		str	r3, [fp, #-24]
 394:../reversi8_2019.c **** 
 395:../reversi8_2019.c ****                     // en este bucle comprobamos si es un movimiento válido
 396:../reversi8_2019.c ****                     // (es decir si implica voltear en alguna dirección)
 397:../reversi8_2019.c ****                     while ((found == 0) && (k < DIM))
 2055              		.loc 1 397 0
 2056 0974 370000EA 		b	.L42
 2057              	.L44:
 398:../reversi8_2019.c ****                     {
 399:../reversi8_2019.c ****                         SF = vSF[k];    // k representa la dirección que miramos
 2058              		.loc 1 399 0
 2059 0978 58219FE5 		ldr	r2, .L47+4
 2060 097c 18301BE5 		ldr	r3, [fp, #-24]
 2061 0980 033082E0 		add	r3, r2, r3
 2062 0984 0030D3E5 		ldrb	r3, [r3, #0]
 2063 0988 26304BE5 		strb	r3, [fp, #-38]
 400:../reversi8_2019.c ****                         SC = vSC[k];    // 1 es norte, 2 NE, 3 E ...
 2064              		.loc 1 400 0
 2065 098c 48219FE5 		ldr	r2, .L47+8
 2066 0990 18301BE5 		ldr	r3, [fp, #-24]
 2067 0994 033082E0 		add	r3, r2, r3
 2068 0998 0030D3E5 		ldrb	r3, [r3, #0]
 2069 099c 27304BE5 		strb	r3, [fp, #-39]
 401:../reversi8_2019.c **** 
 402:../reversi8_2019.c ****                         // nos dice qué hay que voltear en cada dirección
 403:../reversi8_2019.c ****                         longitud = 0;
 2070              		.loc 1 403 0
 2071 09a0 0030A0E3 		mov	r3, #0
 2072 09a4 30300BE5 		str	r3, [fp, #-48]
 404:../reversi8_2019.c ****                         //patron = patron_volteo(tablero, &longitud, i, j, SF, SC, FICHA_BLANCA); /
 405:../reversi8_2019.c ****                         //patron = patron_volteo_arm_c(tablero, &longitud, i, j, SF, SC, FICHA_BLAN
 406:../reversi8_2019.c ****                         patron = patron_volteo_test(tablero, &longitud, i, j, SF, SC, FICHA_BLANCA)
 2073              		.loc 1 406 0
 2074 09a8 10301BE5 		ldr	r3, [fp, #-16]
 2075 09ac FF2003E2 		and	r2, r3, #255
 2076 09b0 14301BE5 		ldr	r3, [fp, #-20]
 2077 09b4 FF3003E2 		and	r3, r3, #255
 2078 09b8 30104BE2 		sub	r1, fp, #48
 2079 09bc 26005BE5 		ldrb	r0, [fp, #-38]	@ zero_extendqisi2
 2080 09c0 00008DE5 		str	r0, [sp, #0]
 2081 09c4 27005BE5 		ldrb	r0, [fp, #-39]	@ zero_extendqisi2
 2082 09c8 04008DE5 		str	r0, [sp, #4]
 2083 09cc 0100A0E3 		mov	r0, #1
 2084 09d0 08008DE5 		str	r0, [sp, #8]
 2085 09d4 3C001BE5 		ldr	r0, [fp, #-60]
 2086 09d8 FEFFFFEB 		bl	patron_volteo_test
 2087 09dc 2C000BE5 		str	r0, [fp, #-44]
 407:../reversi8_2019.c ****                         //  //printf("%d ", patron);
 408:../reversi8_2019.c ****                         if (patron == PATRON_ENCONTRADO)
 2088              		.loc 1 408 0
 2089 09e0 2C301BE5 		ldr	r3, [fp, #-44]
 2090 09e4 010053E3 		cmp	r3, #1
 2091 09e8 1700001A 		bne	.L43
 409:../reversi8_2019.c ****                         {
 410:../reversi8_2019.c ****                             found = 1;
 2092              		.loc 1 410 0
 2093 09ec 0130A0E3 		mov	r3, #1
 2094 09f0 1C300BE5 		str	r3, [fp, #-28]
 411:../reversi8_2019.c ****                             if (tabla_valor[i][j] > mejor)
 2095              		.loc 1 411 0
 2096 09f4 E4209FE5 		ldr	r2, .L47+12
 2097 09f8 10301BE5 		ldr	r3, [fp, #-16]
 2098 09fc 8311A0E1 		mov	r1, r3, asl #3
 2099 0a00 14301BE5 		ldr	r3, [fp, #-20]
 2100 0a04 033081E0 		add	r3, r1, r3
 2101 0a08 033082E0 		add	r3, r2, r3
 2102 0a0c 0030D3E5 		ldrb	r3, [r3, #0]	@ zero_extendqisi2
 2103 0a10 25205BE5 		ldrb	r2, [fp, #-37]	@ zero_extendqisi2
 2104 0a14 030052E1 		cmp	r2, r3
 2105 0a18 0B00002A 		bcs	.L43
 412:../reversi8_2019.c ****                             {
 413:../reversi8_2019.c ****                                 mf = i;
 2106              		.loc 1 413 0
 2107 0a1c 10301BE5 		ldr	r3, [fp, #-16]
 2108 0a20 20300BE5 		str	r3, [fp, #-32]
 414:../reversi8_2019.c ****                                 mc = j;
 2109              		.loc 1 414 0
 2110 0a24 14301BE5 		ldr	r3, [fp, #-20]
 2111 0a28 24300BE5 		str	r3, [fp, #-36]
 415:../reversi8_2019.c ****                                 mejor = tabla_valor[i][j];
 2112              		.loc 1 415 0
 2113 0a2c AC209FE5 		ldr	r2, .L47+12
 2114 0a30 10301BE5 		ldr	r3, [fp, #-16]
 2115 0a34 8311A0E1 		mov	r1, r3, asl #3
 2116 0a38 14301BE5 		ldr	r3, [fp, #-20]
 2117 0a3c 033081E0 		add	r3, r1, r3
 2118 0a40 033082E0 		add	r3, r2, r3
 2119 0a44 0030D3E5 		ldrb	r3, [r3, #0]
 2120 0a48 25304BE5 		strb	r3, [fp, #-37]
 2121              	.L43:
 416:../reversi8_2019.c ****                             }
 417:../reversi8_2019.c ****                         }
 418:../reversi8_2019.c ****                         k++;
 2122              		.loc 1 418 0
 2123 0a4c 18301BE5 		ldr	r3, [fp, #-24]
 2124 0a50 013083E2 		add	r3, r3, #1
 2125 0a54 18300BE5 		str	r3, [fp, #-24]
 2126              	.L42:
 397:../reversi8_2019.c ****                     while ((found == 0) && (k < DIM))
 2127              		.loc 1 397 0 discriminator 1
 2128 0a58 1C301BE5 		ldr	r3, [fp, #-28]
 2129 0a5c 000053E3 		cmp	r3, #0
 2130 0a60 0200001A 		bne	.L41
 397:../reversi8_2019.c ****                     while ((found == 0) && (k < DIM))
 2131              		.loc 1 397 0 is_stmt 0 discriminator 2
 2132 0a64 18301BE5 		ldr	r3, [fp, #-24]
 2133 0a68 070053E3 		cmp	r3, #7
 2134 0a6c C1FFFFDA 		ble	.L44
 2135              	.L41:
 386:../reversi8_2019.c ****         for (j=0; j<DIM; j++)
 2136              		.loc 1 386 0 is_stmt 1
 2137 0a70 14301BE5 		ldr	r3, [fp, #-20]
 2138 0a74 013083E2 		add	r3, r3, #1
 2139 0a78 14300BE5 		str	r3, [fp, #-20]
 2140              	.L40:
 386:../reversi8_2019.c ****         for (j=0; j<DIM; j++)
 2141              		.loc 1 386 0 is_stmt 0 discriminator 1
 2142 0a7c 14301BE5 		ldr	r3, [fp, #-20]
 2143 0a80 070053E3 		cmp	r3, #7
 2144 0a84 A2FFFFDA 		ble	.L45
 384:../reversi8_2019.c ****     for (i=0; i<DIM; i++)
 2145              		.loc 1 384 0 is_stmt 1
 2146 0a88 10301BE5 		ldr	r3, [fp, #-16]
 2147 0a8c 013083E2 		add	r3, r3, #1
 2148 0a90 10300BE5 		str	r3, [fp, #-16]
 2149              	.L39:
 384:../reversi8_2019.c ****     for (i=0; i<DIM; i++)
 2150              		.loc 1 384 0 is_stmt 0 discriminator 1
 2151 0a94 10301BE5 		ldr	r3, [fp, #-16]
 2152 0a98 070053E3 		cmp	r3, #7
 2153 0a9c 99FFFFDA 		ble	.L46
 419:../reversi8_2019.c ****                         // si no hemos encontrado nada probamos con la siguiente dirección
 420:../reversi8_2019.c ****                     }
 421:../reversi8_2019.c ****                 }
 422:../reversi8_2019.c ****             }
 423:../reversi8_2019.c ****         }
 424:../reversi8_2019.c ****     }
 425:../reversi8_2019.c ****     *f = (char) mf;
 2154              		.loc 1 425 0 is_stmt 1
 2155 0aa0 20301BE5 		ldr	r3, [fp, #-32]
 2156 0aa4 FF2003E2 		and	r2, r3, #255
 2157 0aa8 40301BE5 		ldr	r3, [fp, #-64]
 2158 0aac 0020C3E5 		strb	r2, [r3, #0]
 426:../reversi8_2019.c ****     *c = (char) mc;
 2159              		.loc 1 426 0
 2160 0ab0 24301BE5 		ldr	r3, [fp, #-36]
 2161 0ab4 FF2003E2 		and	r2, r3, #255
 2162 0ab8 44301BE5 		ldr	r3, [fp, #-68]
 2163 0abc 0020C3E5 		strb	r2, [r3, #0]
 427:../reversi8_2019.c ****     // si no se ha encontrado una posición válida devuelve -1
 428:../reversi8_2019.c ****     return mf;
 2164              		.loc 1 428 0
 2165 0ac0 20301BE5 		ldr	r3, [fp, #-32]
 429:../reversi8_2019.c **** }
 2166              		.loc 1 429 0
 2167 0ac4 0300A0E1 		mov	r0, r3
 2168 0ac8 0CD04BE2 		sub	sp, fp, #12
 2169 0acc 00689DE8 		ldmfd	sp, {fp, sp, lr}
 2170 0ad0 1EFF2FE1 		bx	lr
 2171              	.L48:
 2172              		.align	2
 2173              	.L47:
 2174 0ad4 00000000 		.word	SI
 2175 0ad8 00000000 		.word	vSF
 2176 0adc 00000000 		.word	vSC
 2177 0ae0 08000000 		.word	tabla_valor
 2178              		.cfi_endproc
 2179              	.LFE8:
 2181              		.align	2
 2182              		.global	contar
 2184              	contar:
 2185              	.LFB9:
 430:../reversi8_2019.c **** ////////////////////////////////////////////////////////////////////////////////
 431:../reversi8_2019.c **** // Cuenta el número de fichas de cada color.
 432:../reversi8_2019.c **** // Los guarda en la dirección b (blancas) y n (negras)
 433:../reversi8_2019.c **** void contar(char tablero[][DIM], int *b, int *n)
 434:../reversi8_2019.c **** {
 2186              		.loc 1 434 0
 2187              		.cfi_startproc
 2188              		@ Function supports interworking.
 2189              		@ args = 0, pretend = 0, frame = 24
 2190              		@ frame_needed = 1, uses_anonymous_args = 0
 2191 0ae4 0DC0A0E1 		mov	ip, sp
 2192              	.LCFI18:
 2193              		.cfi_def_cfa_register 12
 2194 0ae8 00D82DE9 		stmfd	sp!, {fp, ip, lr, pc}
 2195 0aec 04B04CE2 		sub	fp, ip, #4
 2196              		.cfi_offset 14, -8
 2197              		.cfi_offset 13, -12
 2198              		.cfi_offset 11, -16
 2199              	.LCFI19:
 2200              		.cfi_def_cfa 11, 4
 2201 0af0 18D04DE2 		sub	sp, sp, #24
 2202 0af4 18000BE5 		str	r0, [fp, #-24]
 2203 0af8 1C100BE5 		str	r1, [fp, #-28]
 2204 0afc 20200BE5 		str	r2, [fp, #-32]
 435:../reversi8_2019.c ****     int i,j;
 436:../reversi8_2019.c **** 
 437:../reversi8_2019.c ****     *b = 0;
 2205              		.loc 1 437 0
 2206 0b00 1C301BE5 		ldr	r3, [fp, #-28]
 2207 0b04 0020A0E3 		mov	r2, #0
 2208 0b08 002083E5 		str	r2, [r3, #0]
 438:../reversi8_2019.c ****     *n = 0;
 2209              		.loc 1 438 0
 2210 0b0c 20301BE5 		ldr	r3, [fp, #-32]
 2211 0b10 0020A0E3 		mov	r2, #0
 2212 0b14 002083E5 		str	r2, [r3, #0]
 439:../reversi8_2019.c **** 
 440:../reversi8_2019.c ****     // recorremos todo el tablero contando las fichas de cada color
 441:../reversi8_2019.c ****     for (i=0; i<DIM; i++)
 2213              		.loc 1 441 0
 2214 0b18 0030A0E3 		mov	r3, #0
 2215 0b1c 10300BE5 		str	r3, [fp, #-16]
 2216 0b20 280000EA 		b	.L50
 2217              	.L55:
 442:../reversi8_2019.c ****     {
 443:../reversi8_2019.c ****         for (j=0; j<DIM; j++)
 2218              		.loc 1 443 0
 2219 0b24 0030A0E3 		mov	r3, #0
 2220 0b28 14300BE5 		str	r3, [fp, #-20]
 2221 0b2c 1F0000EA 		b	.L51
 2222              	.L54:
 444:../reversi8_2019.c ****         {
 445:../reversi8_2019.c ****             if (tablero[i][j] == FICHA_BLANCA)
 2223              		.loc 1 445 0
 2224 0b30 10301BE5 		ldr	r3, [fp, #-16]
 2225 0b34 8331A0E1 		mov	r3, r3, asl #3
 2226 0b38 18201BE5 		ldr	r2, [fp, #-24]
 2227 0b3c 032082E0 		add	r2, r2, r3
 2228 0b40 14301BE5 		ldr	r3, [fp, #-20]
 2229 0b44 033082E0 		add	r3, r2, r3
 2230 0b48 0030D3E5 		ldrb	r3, [r3, #0]	@ zero_extendqisi2
 2231 0b4c 010053E3 		cmp	r3, #1
 2232 0b50 0500001A 		bne	.L52
 446:../reversi8_2019.c ****             {
 447:../reversi8_2019.c ****                 (*b)++;
 2233              		.loc 1 447 0
 2234 0b54 1C301BE5 		ldr	r3, [fp, #-28]
 2235 0b58 003093E5 		ldr	r3, [r3, #0]
 2236 0b5c 012083E2 		add	r2, r3, #1
 2237 0b60 1C301BE5 		ldr	r3, [fp, #-28]
 2238 0b64 002083E5 		str	r2, [r3, #0]
 2239 0b68 0D0000EA 		b	.L53
 2240              	.L52:
 448:../reversi8_2019.c ****             }
 449:../reversi8_2019.c ****             else if (tablero[i][j] == FICHA_NEGRA)
 2241              		.loc 1 449 0
 2242 0b6c 10301BE5 		ldr	r3, [fp, #-16]
 2243 0b70 8331A0E1 		mov	r3, r3, asl #3
 2244 0b74 18201BE5 		ldr	r2, [fp, #-24]
 2245 0b78 032082E0 		add	r2, r2, r3
 2246 0b7c 14301BE5 		ldr	r3, [fp, #-20]
 2247 0b80 033082E0 		add	r3, r2, r3
 2248 0b84 0030D3E5 		ldrb	r3, [r3, #0]	@ zero_extendqisi2
 2249 0b88 020053E3 		cmp	r3, #2
 2250 0b8c 0400001A 		bne	.L53
 450:../reversi8_2019.c ****             {
 451:../reversi8_2019.c ****                 (*n)++;
 2251              		.loc 1 451 0
 2252 0b90 20301BE5 		ldr	r3, [fp, #-32]
 2253 0b94 003093E5 		ldr	r3, [r3, #0]
 2254 0b98 012083E2 		add	r2, r3, #1
 2255 0b9c 20301BE5 		ldr	r3, [fp, #-32]
 2256 0ba0 002083E5 		str	r2, [r3, #0]
 2257              	.L53:
 443:../reversi8_2019.c ****         for (j=0; j<DIM; j++)
 2258              		.loc 1 443 0
 2259 0ba4 14301BE5 		ldr	r3, [fp, #-20]
 2260 0ba8 013083E2 		add	r3, r3, #1
 2261 0bac 14300BE5 		str	r3, [fp, #-20]
 2262              	.L51:
 443:../reversi8_2019.c ****         for (j=0; j<DIM; j++)
 2263              		.loc 1 443 0 is_stmt 0 discriminator 1
 2264 0bb0 14301BE5 		ldr	r3, [fp, #-20]
 2265 0bb4 070053E3 		cmp	r3, #7
 2266 0bb8 DCFFFFDA 		ble	.L54
 441:../reversi8_2019.c ****     for (i=0; i<DIM; i++)
 2267              		.loc 1 441 0 is_stmt 1
 2268 0bbc 10301BE5 		ldr	r3, [fp, #-16]
 2269 0bc0 013083E2 		add	r3, r3, #1
 2270 0bc4 10300BE5 		str	r3, [fp, #-16]
 2271              	.L50:
 441:../reversi8_2019.c ****     for (i=0; i<DIM; i++)
 2272              		.loc 1 441 0 is_stmt 0 discriminator 1
 2273 0bc8 10301BE5 		ldr	r3, [fp, #-16]
 2274 0bcc 070053E3 		cmp	r3, #7
 2275 0bd0 D3FFFFDA 		ble	.L55
 452:../reversi8_2019.c ****             }
 453:../reversi8_2019.c ****         }
 454:../reversi8_2019.c ****     }
 455:../reversi8_2019.c **** }
 2276              		.loc 1 455 0 is_stmt 1
 2277 0bd4 0CD04BE2 		sub	sp, fp, #12
 2278 0bd8 00689DE8 		ldmfd	sp, {fp, sp, lr}
 2279 0bdc 1EFF2FE1 		bx	lr
 2280              		.cfi_endproc
 2281              	.LFE9:
 2283              		.align	2
 2284              		.global	actualizar_candidatas
 2286              	actualizar_candidatas:
 2287              	.LFB10:
 456:../reversi8_2019.c **** 
 457:../reversi8_2019.c **** void actualizar_candidatas(char candidatas[][DIM], char f, char c)
 458:../reversi8_2019.c **** {
 2288              		.loc 1 458 0
 2289              		.cfi_startproc
 2290              		@ Function supports interworking.
 2291              		@ args = 0, pretend = 0, frame = 8
 2292              		@ frame_needed = 1, uses_anonymous_args = 0
 2293 0be0 0DC0A0E1 		mov	ip, sp
 2294              	.LCFI20:
 2295              		.cfi_def_cfa_register 12
 2296 0be4 00D82DE9 		stmfd	sp!, {fp, ip, lr, pc}
 2297 0be8 04B04CE2 		sub	fp, ip, #4
 2298              		.cfi_offset 14, -8
 2299              		.cfi_offset 13, -12
 2300              		.cfi_offset 11, -16
 2301              	.LCFI21:
 2302              		.cfi_def_cfa 11, 4
 2303 0bec 08D04DE2 		sub	sp, sp, #8
 2304 0bf0 10000BE5 		str	r0, [fp, #-16]
 2305 0bf4 0230A0E1 		mov	r3, r2
 2306 0bf8 0120A0E1 		mov	r2, r1
 2307 0bfc 11204BE5 		strb	r2, [fp, #-17]
 2308 0c00 12304BE5 		strb	r3, [fp, #-18]
 459:../reversi8_2019.c ****     // donde ya se ha colocado no se puede volver a colocar
 460:../reversi8_2019.c ****     // En las posiciones alrededor sí
 461:../reversi8_2019.c ****     candidatas[f][c] = CASILLA_OCUPADA;
 2309              		.loc 1 461 0
 2310 0c04 11305BE5 		ldrb	r3, [fp, #-17]	@ zero_extendqisi2
 2311 0c08 8331A0E1 		mov	r3, r3, asl #3
 2312 0c0c 10201BE5 		ldr	r2, [fp, #-16]
 2313 0c10 032082E0 		add	r2, r2, r3
 2314 0c14 12305BE5 		ldrb	r3, [fp, #-18]	@ zero_extendqisi2
 2315 0c18 10139FE5 		ldr	r1, .L65
 2316 0c1c 0010D1E5 		ldrb	r1, [r1, #0]	@ zero_extendqisi2
 2317 0c20 0310C2E7 		strb	r1, [r2, r3]
 462:../reversi8_2019.c ****     if (f > 0)
 2318              		.loc 1 462 0
 2319 0c24 11305BE5 		ldrb	r3, [fp, #-17]	@ zero_extendqisi2
 2320 0c28 000053E3 		cmp	r3, #0
 2321 0c2c 4500000A 		beq	.L57
 463:../reversi8_2019.c ****     {
 464:../reversi8_2019.c ****         if (candidatas[f-1][c] != CASILLA_OCUPADA)
 2322              		.loc 1 464 0
 2323 0c30 11305BE5 		ldrb	r3, [fp, #-17]	@ zero_extendqisi2
 2324 0c34 013043E2 		sub	r3, r3, #1
 2325 0c38 8331A0E1 		mov	r3, r3, asl #3
 2326 0c3c 10201BE5 		ldr	r2, [fp, #-16]
 2327 0c40 032082E0 		add	r2, r2, r3
 2328 0c44 12305BE5 		ldrb	r3, [fp, #-18]	@ zero_extendqisi2
 2329 0c48 0320D2E7 		ldrb	r2, [r2, r3]	@ zero_extendqisi2
 2330 0c4c DC329FE5 		ldr	r3, .L65
 2331 0c50 0030D3E5 		ldrb	r3, [r3, #0]	@ zero_extendqisi2
 2332 0c54 030052E1 		cmp	r2, r3
 2333 0c58 0800000A 		beq	.L58
 465:../reversi8_2019.c ****             candidatas[f-1][c] = SI;
 2334              		.loc 1 465 0
 2335 0c5c 11305BE5 		ldrb	r3, [fp, #-17]	@ zero_extendqisi2
 2336 0c60 013043E2 		sub	r3, r3, #1
 2337 0c64 8331A0E1 		mov	r3, r3, asl #3
 2338 0c68 10201BE5 		ldr	r2, [fp, #-16]
 2339 0c6c 032082E0 		add	r2, r2, r3
 2340 0c70 12305BE5 		ldrb	r3, [fp, #-18]	@ zero_extendqisi2
 2341 0c74 B8129FE5 		ldr	r1, .L65+4
 2342 0c78 0010D1E5 		ldrb	r1, [r1, #0]	@ zero_extendqisi2
 2343 0c7c 0310C2E7 		strb	r1, [r2, r3]
 2344              	.L58:
 466:../reversi8_2019.c **** 
 467:../reversi8_2019.c ****         if ((c > 0) && (candidatas[f-1][c-1] != CASILLA_OCUPADA))
 2345              		.loc 1 467 0
 2346 0c80 12305BE5 		ldrb	r3, [fp, #-18]	@ zero_extendqisi2
 2347 0c84 000053E3 		cmp	r3, #0
 2348 0c88 1500000A 		beq	.L59
 2349              		.loc 1 467 0 is_stmt 0 discriminator 1
 2350 0c8c 11305BE5 		ldrb	r3, [fp, #-17]	@ zero_extendqisi2
 2351 0c90 013043E2 		sub	r3, r3, #1
 2352 0c94 8331A0E1 		mov	r3, r3, asl #3
 2353 0c98 10201BE5 		ldr	r2, [fp, #-16]
 2354 0c9c 032082E0 		add	r2, r2, r3
 2355 0ca0 12305BE5 		ldrb	r3, [fp, #-18]	@ zero_extendqisi2
 2356 0ca4 013043E2 		sub	r3, r3, #1
 2357 0ca8 0320D2E7 		ldrb	r2, [r2, r3]	@ zero_extendqisi2
 2358 0cac 7C329FE5 		ldr	r3, .L65
 2359 0cb0 0030D3E5 		ldrb	r3, [r3, #0]	@ zero_extendqisi2
 2360 0cb4 030052E1 		cmp	r2, r3
 2361 0cb8 0900000A 		beq	.L59
 468:../reversi8_2019.c ****             candidatas[f-1][c-1] = SI;
 2362              		.loc 1 468 0 is_stmt 1
 2363 0cbc 11305BE5 		ldrb	r3, [fp, #-17]	@ zero_extendqisi2
 2364 0cc0 013043E2 		sub	r3, r3, #1
 2365 0cc4 8331A0E1 		mov	r3, r3, asl #3
 2366 0cc8 10201BE5 		ldr	r2, [fp, #-16]
 2367 0ccc 032082E0 		add	r2, r2, r3
 2368 0cd0 12305BE5 		ldrb	r3, [fp, #-18]	@ zero_extendqisi2
 2369 0cd4 013043E2 		sub	r3, r3, #1
 2370 0cd8 54129FE5 		ldr	r1, .L65+4
 2371 0cdc 0010D1E5 		ldrb	r1, [r1, #0]	@ zero_extendqisi2
 2372 0ce0 0310C2E7 		strb	r1, [r2, r3]
 2373              	.L59:
 469:../reversi8_2019.c **** 
 470:../reversi8_2019.c ****         if ((c < 7) && (candidatas[f-1][c+1] != CASILLA_OCUPADA))
 2374              		.loc 1 470 0
 2375 0ce4 12305BE5 		ldrb	r3, [fp, #-18]	@ zero_extendqisi2
 2376 0ce8 060053E3 		cmp	r3, #6
 2377 0cec 1500008A 		bhi	.L57
 2378              		.loc 1 470 0 is_stmt 0 discriminator 1
 2379 0cf0 11305BE5 		ldrb	r3, [fp, #-17]	@ zero_extendqisi2
 2380 0cf4 013043E2 		sub	r3, r3, #1
 2381 0cf8 8331A0E1 		mov	r3, r3, asl #3
 2382 0cfc 10201BE5 		ldr	r2, [fp, #-16]
 2383 0d00 032082E0 		add	r2, r2, r3
 2384 0d04 12305BE5 		ldrb	r3, [fp, #-18]	@ zero_extendqisi2
 2385 0d08 013083E2 		add	r3, r3, #1
 2386 0d0c 0320D2E7 		ldrb	r2, [r2, r3]	@ zero_extendqisi2
 2387 0d10 18329FE5 		ldr	r3, .L65
 2388 0d14 0030D3E5 		ldrb	r3, [r3, #0]	@ zero_extendqisi2
 2389 0d18 030052E1 		cmp	r2, r3
 2390 0d1c 0900000A 		beq	.L57
 471:../reversi8_2019.c ****             candidatas[f-1][c+1] = SI;
 2391              		.loc 1 471 0 is_stmt 1
 2392 0d20 11305BE5 		ldrb	r3, [fp, #-17]	@ zero_extendqisi2
 2393 0d24 013043E2 		sub	r3, r3, #1
 2394 0d28 8331A0E1 		mov	r3, r3, asl #3
 2395 0d2c 10201BE5 		ldr	r2, [fp, #-16]
 2396 0d30 032082E0 		add	r2, r2, r3
 2397 0d34 12305BE5 		ldrb	r3, [fp, #-18]	@ zero_extendqisi2
 2398 0d38 013083E2 		add	r3, r3, #1
 2399 0d3c F0119FE5 		ldr	r1, .L65+4
 2400 0d40 0010D1E5 		ldrb	r1, [r1, #0]	@ zero_extendqisi2
 2401 0d44 0310C2E7 		strb	r1, [r2, r3]
 2402              	.L57:
 472:../reversi8_2019.c ****     }
 473:../reversi8_2019.c ****     if (f < 7)
 2403              		.loc 1 473 0
 2404 0d48 11305BE5 		ldrb	r3, [fp, #-17]	@ zero_extendqisi2
 2405 0d4c 060053E3 		cmp	r3, #6
 2406 0d50 4500008A 		bhi	.L60
 474:../reversi8_2019.c ****     {
 475:../reversi8_2019.c ****         if (candidatas[f+1][c] != CASILLA_OCUPADA)
 2407              		.loc 1 475 0
 2408 0d54 11305BE5 		ldrb	r3, [fp, #-17]	@ zero_extendqisi2
 2409 0d58 013083E2 		add	r3, r3, #1
 2410 0d5c 8331A0E1 		mov	r3, r3, asl #3
 2411 0d60 10201BE5 		ldr	r2, [fp, #-16]
 2412 0d64 032082E0 		add	r2, r2, r3
 2413 0d68 12305BE5 		ldrb	r3, [fp, #-18]	@ zero_extendqisi2
 2414 0d6c 0320D2E7 		ldrb	r2, [r2, r3]	@ zero_extendqisi2
 2415 0d70 B8319FE5 		ldr	r3, .L65
 2416 0d74 0030D3E5 		ldrb	r3, [r3, #0]	@ zero_extendqisi2
 2417 0d78 030052E1 		cmp	r2, r3
 2418 0d7c 0800000A 		beq	.L61
 476:../reversi8_2019.c ****             candidatas[f+1][c] = SI;
 2419              		.loc 1 476 0
 2420 0d80 11305BE5 		ldrb	r3, [fp, #-17]	@ zero_extendqisi2
 2421 0d84 013083E2 		add	r3, r3, #1
 2422 0d88 8331A0E1 		mov	r3, r3, asl #3
 2423 0d8c 10201BE5 		ldr	r2, [fp, #-16]
 2424 0d90 032082E0 		add	r2, r2, r3
 2425 0d94 12305BE5 		ldrb	r3, [fp, #-18]	@ zero_extendqisi2
 2426 0d98 94119FE5 		ldr	r1, .L65+4
 2427 0d9c 0010D1E5 		ldrb	r1, [r1, #0]	@ zero_extendqisi2
 2428 0da0 0310C2E7 		strb	r1, [r2, r3]
 2429              	.L61:
 477:../reversi8_2019.c **** 
 478:../reversi8_2019.c ****         if ((c > 0) && (candidatas[f+1][c-1] != CASILLA_OCUPADA))
 2430              		.loc 1 478 0
 2431 0da4 12305BE5 		ldrb	r3, [fp, #-18]	@ zero_extendqisi2
 2432 0da8 000053E3 		cmp	r3, #0
 2433 0dac 1500000A 		beq	.L62
 2434              		.loc 1 478 0 is_stmt 0 discriminator 1
 2435 0db0 11305BE5 		ldrb	r3, [fp, #-17]	@ zero_extendqisi2
 2436 0db4 013083E2 		add	r3, r3, #1
 2437 0db8 8331A0E1 		mov	r3, r3, asl #3
 2438 0dbc 10201BE5 		ldr	r2, [fp, #-16]
 2439 0dc0 032082E0 		add	r2, r2, r3
 2440 0dc4 12305BE5 		ldrb	r3, [fp, #-18]	@ zero_extendqisi2
 2441 0dc8 013043E2 		sub	r3, r3, #1
 2442 0dcc 0320D2E7 		ldrb	r2, [r2, r3]	@ zero_extendqisi2
 2443 0dd0 58319FE5 		ldr	r3, .L65
 2444 0dd4 0030D3E5 		ldrb	r3, [r3, #0]	@ zero_extendqisi2
 2445 0dd8 030052E1 		cmp	r2, r3
 2446 0ddc 0900000A 		beq	.L62
 479:../reversi8_2019.c ****             candidatas[f+1][c-1] = SI;
 2447              		.loc 1 479 0 is_stmt 1
 2448 0de0 11305BE5 		ldrb	r3, [fp, #-17]	@ zero_extendqisi2
 2449 0de4 013083E2 		add	r3, r3, #1
 2450 0de8 8331A0E1 		mov	r3, r3, asl #3
 2451 0dec 10201BE5 		ldr	r2, [fp, #-16]
 2452 0df0 032082E0 		add	r2, r2, r3
 2453 0df4 12305BE5 		ldrb	r3, [fp, #-18]	@ zero_extendqisi2
 2454 0df8 013043E2 		sub	r3, r3, #1
 2455 0dfc 30119FE5 		ldr	r1, .L65+4
 2456 0e00 0010D1E5 		ldrb	r1, [r1, #0]	@ zero_extendqisi2
 2457 0e04 0310C2E7 		strb	r1, [r2, r3]
 2458              	.L62:
 480:../reversi8_2019.c **** 
 481:../reversi8_2019.c ****         if ((c < 7) && (candidatas[f+1][c+1] != CASILLA_OCUPADA))
 2459              		.loc 1 481 0
 2460 0e08 12305BE5 		ldrb	r3, [fp, #-18]	@ zero_extendqisi2
 2461 0e0c 060053E3 		cmp	r3, #6
 2462 0e10 1500008A 		bhi	.L60
 2463              		.loc 1 481 0 is_stmt 0 discriminator 1
 2464 0e14 11305BE5 		ldrb	r3, [fp, #-17]	@ zero_extendqisi2
 2465 0e18 013083E2 		add	r3, r3, #1
 2466 0e1c 8331A0E1 		mov	r3, r3, asl #3
 2467 0e20 10201BE5 		ldr	r2, [fp, #-16]
 2468 0e24 032082E0 		add	r2, r2, r3
 2469 0e28 12305BE5 		ldrb	r3, [fp, #-18]	@ zero_extendqisi2
 2470 0e2c 013083E2 		add	r3, r3, #1
 2471 0e30 0320D2E7 		ldrb	r2, [r2, r3]	@ zero_extendqisi2
 2472 0e34 F4309FE5 		ldr	r3, .L65
 2473 0e38 0030D3E5 		ldrb	r3, [r3, #0]	@ zero_extendqisi2
 2474 0e3c 030052E1 		cmp	r2, r3
 2475 0e40 0900000A 		beq	.L60
 482:../reversi8_2019.c ****             candidatas[f+1][c+1] = SI;
 2476              		.loc 1 482 0 is_stmt 1
 2477 0e44 11305BE5 		ldrb	r3, [fp, #-17]	@ zero_extendqisi2
 2478 0e48 013083E2 		add	r3, r3, #1
 2479 0e4c 8331A0E1 		mov	r3, r3, asl #3
 2480 0e50 10201BE5 		ldr	r2, [fp, #-16]
 2481 0e54 032082E0 		add	r2, r2, r3
 2482 0e58 12305BE5 		ldrb	r3, [fp, #-18]	@ zero_extendqisi2
 2483 0e5c 013083E2 		add	r3, r3, #1
 2484 0e60 CC109FE5 		ldr	r1, .L65+4
 2485 0e64 0010D1E5 		ldrb	r1, [r1, #0]	@ zero_extendqisi2
 2486 0e68 0310C2E7 		strb	r1, [r2, r3]
 2487              	.L60:
 483:../reversi8_2019.c ****     }
 484:../reversi8_2019.c ****     if ((c > 0) && (candidatas[f][c-1] != CASILLA_OCUPADA))
 2488              		.loc 1 484 0
 2489 0e6c 12305BE5 		ldrb	r3, [fp, #-18]	@ zero_extendqisi2
 2490 0e70 000053E3 		cmp	r3, #0
 2491 0e74 1300000A 		beq	.L63
 2492              		.loc 1 484 0 is_stmt 0 discriminator 1
 2493 0e78 11305BE5 		ldrb	r3, [fp, #-17]	@ zero_extendqisi2
 2494 0e7c 8331A0E1 		mov	r3, r3, asl #3
 2495 0e80 10201BE5 		ldr	r2, [fp, #-16]
 2496 0e84 032082E0 		add	r2, r2, r3
 2497 0e88 12305BE5 		ldrb	r3, [fp, #-18]	@ zero_extendqisi2
 2498 0e8c 013043E2 		sub	r3, r3, #1
 2499 0e90 0320D2E7 		ldrb	r2, [r2, r3]	@ zero_extendqisi2
 2500 0e94 94309FE5 		ldr	r3, .L65
 2501 0e98 0030D3E5 		ldrb	r3, [r3, #0]	@ zero_extendqisi2
 2502 0e9c 030052E1 		cmp	r2, r3
 2503 0ea0 0800000A 		beq	.L63
 485:../reversi8_2019.c ****         candidatas[f][c-1] = SI;
 2504              		.loc 1 485 0 is_stmt 1
 2505 0ea4 11305BE5 		ldrb	r3, [fp, #-17]	@ zero_extendqisi2
 2506 0ea8 8331A0E1 		mov	r3, r3, asl #3
 2507 0eac 10201BE5 		ldr	r2, [fp, #-16]
 2508 0eb0 032082E0 		add	r2, r2, r3
 2509 0eb4 12305BE5 		ldrb	r3, [fp, #-18]	@ zero_extendqisi2
 2510 0eb8 013043E2 		sub	r3, r3, #1
 2511 0ebc 70109FE5 		ldr	r1, .L65+4
 2512 0ec0 0010D1E5 		ldrb	r1, [r1, #0]	@ zero_extendqisi2
 2513 0ec4 0310C2E7 		strb	r1, [r2, r3]
 2514              	.L63:
 486:../reversi8_2019.c **** 
 487:../reversi8_2019.c ****     if ((c < 7) && (candidatas[f][c+1] != CASILLA_OCUPADA))
 2515              		.loc 1 487 0
 2516 0ec8 12305BE5 		ldrb	r3, [fp, #-18]	@ zero_extendqisi2
 2517 0ecc 060053E3 		cmp	r3, #6
 2518 0ed0 1300008A 		bhi	.L56
 2519              		.loc 1 487 0 is_stmt 0 discriminator 1
 2520 0ed4 11305BE5 		ldrb	r3, [fp, #-17]	@ zero_extendqisi2
 2521 0ed8 8331A0E1 		mov	r3, r3, asl #3
 2522 0edc 10201BE5 		ldr	r2, [fp, #-16]
 2523 0ee0 032082E0 		add	r2, r2, r3
 2524 0ee4 12305BE5 		ldrb	r3, [fp, #-18]	@ zero_extendqisi2
 2525 0ee8 013083E2 		add	r3, r3, #1
 2526 0eec 0320D2E7 		ldrb	r2, [r2, r3]	@ zero_extendqisi2
 2527 0ef0 38309FE5 		ldr	r3, .L65
 2528 0ef4 0030D3E5 		ldrb	r3, [r3, #0]	@ zero_extendqisi2
 2529 0ef8 030052E1 		cmp	r2, r3
 2530 0efc 0800000A 		beq	.L56
 488:../reversi8_2019.c ****         candidatas[f][c+1] = SI;
 2531              		.loc 1 488 0 is_stmt 1
 2532 0f00 11305BE5 		ldrb	r3, [fp, #-17]	@ zero_extendqisi2
 2533 0f04 8331A0E1 		mov	r3, r3, asl #3
 2534 0f08 10201BE5 		ldr	r2, [fp, #-16]
 2535 0f0c 032082E0 		add	r2, r2, r3
 2536 0f10 12305BE5 		ldrb	r3, [fp, #-18]	@ zero_extendqisi2
 2537 0f14 013083E2 		add	r3, r3, #1
 2538 0f18 14109FE5 		ldr	r1, .L65+4
 2539 0f1c 0010D1E5 		ldrb	r1, [r1, #0]	@ zero_extendqisi2
 2540 0f20 0310C2E7 		strb	r1, [r2, r3]
 2541              	.L56:
 489:../reversi8_2019.c **** }
 2542              		.loc 1 489 0
 2543 0f24 0CD04BE2 		sub	sp, fp, #12
 2544 0f28 00689DE8 		ldmfd	sp, {fp, sp, lr}
 2545 0f2c 1EFF2FE1 		bx	lr
 2546              	.L66:
 2547              		.align	2
 2548              	.L65:
 2549 0f30 00000000 		.word	CASILLA_OCUPADA
 2550 0f34 00000000 		.word	SI
 2551              		.cfi_endproc
 2552              	.LFE10:
 2554              		.align	2
 2555              		.global	reversi8
 2557              	reversi8:
 2558              	.LFB11:
 490:../reversi8_2019.c **** 
 491:../reversi8_2019.c **** 
 492:../reversi8_2019.c **** 
 493:../reversi8_2019.c **** 
 494:../reversi8_2019.c **** ////////////////////////////////////////////////////////////////////////////////
 495:../reversi8_2019.c **** // Proceso principal del juego
 496:../reversi8_2019.c **** // Utiliza el tablero,
 497:../reversi8_2019.c **** // y las direcciones en las que indica el jugador la fila y la columna
 498:../reversi8_2019.c **** // y la señal de ready que indica que se han actualizado fila y columna
 499:../reversi8_2019.c **** // tablero, fila, columna y ready son variables globales aunque deberían ser locales de reversi8,
 500:../reversi8_2019.c **** // la razón es que al meterlas en la pila no las pone juntas, y así jugar es más complicado.
 501:../reversi8_2019.c **** // en esta versión el humano lleva negras y la máquina blancas
 502:../reversi8_2019.c **** // no se comprueba que el humano mueva correctamente.
 503:../reversi8_2019.c **** // Sólo que la máquina realice un movimiento correcto.
 504:../reversi8_2019.c **** void reversi8()
 505:../reversi8_2019.c **** {
 2559              		.loc 1 505 0
 2560              		.cfi_startproc
 2561              		@ Function supports interworking.
 2562              		@ args = 0, pretend = 0, frame = 296
 2563              		@ frame_needed = 1, uses_anonymous_args = 0
 2564 0f38 0DC0A0E1 		mov	ip, sp
 2565              	.LCFI22:
 2566              		.cfi_def_cfa_register 12
 2567 0f3c F0DF2DE9 		stmfd	sp!, {r4, r5, r6, r7, r8, r9, sl, fp, ip, lr, pc}
 2568 0f40 04B04CE2 		sub	fp, ip, #4
 2569              		.cfi_offset 14, -8
 2570              		.cfi_offset 13, -12
 2571              		.cfi_offset 11, -16
 2572              		.cfi_offset 10, -20
 2573              		.cfi_offset 9, -24
 2574              		.cfi_offset 8, -28
 2575              		.cfi_offset 7, -32
 2576              		.cfi_offset 6, -36
 2577              		.cfi_offset 5, -40
 2578              		.cfi_offset 4, -44
 2579              	.LCFI23:
 2580              		.cfi_def_cfa 11, 4
 2581 0f44 4BDF4DE2 		sub	sp, sp, #300
 506:../reversi8_2019.c **** 
 507:../reversi8_2019.c **** 	 ////////////////////////////////////////////////////////////////////
 508:../reversi8_2019.c **** 	 // Tablero candidatas: se usa para no explorar todas las posiciones del tablero
 509:../reversi8_2019.c **** 	// sólo se exploran las que están alrededor de las fichas colocadas
 510:../reversi8_2019.c **** 	 ////////////////////////////////////////////////////////////////////
 511:../reversi8_2019.c **** 	char __attribute__ ((aligned (8))) candidatas[DIM][DIM] =
 2582              		.loc 1 511 0
 2583 0f48 58379FE5 		ldr	r3, .L72
 2584 0f4c 0010D3E5 		ldrb	r1, [r3, #0]	@ zero_extendqisi2
 2585 0f50 50379FE5 		ldr	r3, .L72
 2586 0f54 00C0D3E5 		ldrb	ip, [r3, #0]	@ zero_extendqisi2
 2587 0f58 48379FE5 		ldr	r3, .L72
 2588 0f5c 0040D3E5 		ldrb	r4, [r3, #0]	@ zero_extendqisi2
 2589 0f60 40379FE5 		ldr	r3, .L72
 2590 0f64 0060D3E5 		ldrb	r6, [r3, #0]	@ zero_extendqisi2
 2591 0f68 38379FE5 		ldr	r3, .L72
 2592 0f6c 0080D3E5 		ldrb	r8, [r3, #0]	@ zero_extendqisi2
 2593 0f70 30379FE5 		ldr	r3, .L72
 2594 0f74 0090D3E5 		ldrb	r9, [r3, #0]	@ zero_extendqisi2
 2595 0f78 28379FE5 		ldr	r3, .L72
 2596 0f7c 0030D3E5 		ldrb	r3, [r3, #0]	@ zero_extendqisi2
 2597 0f80 88300BE5 		str	r3, [fp, #-136]
 2598 0f84 1C379FE5 		ldr	r3, .L72
 2599 0f88 0030D3E5 		ldrb	r3, [r3, #0]	@ zero_extendqisi2
 2600 0f8c 8C300BE5 		str	r3, [fp, #-140]
 2601 0f90 10379FE5 		ldr	r3, .L72
 2602 0f94 0030D3E5 		ldrb	r3, [r3, #0]	@ zero_extendqisi2
 2603 0f98 90300BE5 		str	r3, [fp, #-144]
 2604 0f9c 04379FE5 		ldr	r3, .L72
 2605 0fa0 0030D3E5 		ldrb	r3, [r3, #0]	@ zero_extendqisi2
 2606 0fa4 94300BE5 		str	r3, [fp, #-148]
 2607 0fa8 F8369FE5 		ldr	r3, .L72
 2608 0fac 0030D3E5 		ldrb	r3, [r3, #0]	@ zero_extendqisi2
 2609 0fb0 98300BE5 		str	r3, [fp, #-152]
 2610 0fb4 EC369FE5 		ldr	r3, .L72
 2611 0fb8 0030D3E5 		ldrb	r3, [r3, #0]	@ zero_extendqisi2
 2612 0fbc 9C300BE5 		str	r3, [fp, #-156]
 2613 0fc0 E0369FE5 		ldr	r3, .L72
 2614 0fc4 0030D3E5 		ldrb	r3, [r3, #0]	@ zero_extendqisi2
 2615 0fc8 A0300BE5 		str	r3, [fp, #-160]
 2616 0fcc D4369FE5 		ldr	r3, .L72
 2617 0fd0 0030D3E5 		ldrb	r3, [r3, #0]	@ zero_extendqisi2
 2618 0fd4 A4300BE5 		str	r3, [fp, #-164]
 2619 0fd8 C8369FE5 		ldr	r3, .L72
 2620 0fdc 0030D3E5 		ldrb	r3, [r3, #0]	@ zero_extendqisi2
 2621 0fe0 A8300BE5 		str	r3, [fp, #-168]
 2622 0fe4 BC369FE5 		ldr	r3, .L72
 2623 0fe8 0030D3E5 		ldrb	r3, [r3, #0]	@ zero_extendqisi2
 2624 0fec AC300BE5 		str	r3, [fp, #-172]
 2625 0ff0 B0369FE5 		ldr	r3, .L72
 2626 0ff4 0030D3E5 		ldrb	r3, [r3, #0]	@ zero_extendqisi2
 2627 0ff8 B0300BE5 		str	r3, [fp, #-176]
 2628 0ffc A4369FE5 		ldr	r3, .L72
 2629 1000 0030D3E5 		ldrb	r3, [r3, #0]	@ zero_extendqisi2
 2630 1004 B4300BE5 		str	r3, [fp, #-180]
 2631 1008 98369FE5 		ldr	r3, .L72
 2632 100c 0030D3E5 		ldrb	r3, [r3, #0]	@ zero_extendqisi2
 2633 1010 B8300BE5 		str	r3, [fp, #-184]
 2634 1014 8C369FE5 		ldr	r3, .L72
 2635 1018 0030D3E5 		ldrb	r3, [r3, #0]	@ zero_extendqisi2
 2636 101c BC300BE5 		str	r3, [fp, #-188]
 2637 1020 80369FE5 		ldr	r3, .L72
 2638 1024 0030D3E5 		ldrb	r3, [r3, #0]	@ zero_extendqisi2
 2639 1028 C0300BE5 		str	r3, [fp, #-192]
 2640 102c 74369FE5 		ldr	r3, .L72
 2641 1030 0030D3E5 		ldrb	r3, [r3, #0]	@ zero_extendqisi2
 2642 1034 C4300BE5 		str	r3, [fp, #-196]
 2643 1038 68369FE5 		ldr	r3, .L72
 2644 103c 0030D3E5 		ldrb	r3, [r3, #0]	@ zero_extendqisi2
 2645 1040 C8300BE5 		str	r3, [fp, #-200]
 2646 1044 5C369FE5 		ldr	r3, .L72
 2647 1048 0030D3E5 		ldrb	r3, [r3, #0]	@ zero_extendqisi2
 2648 104c CC300BE5 		str	r3, [fp, #-204]
 2649 1050 50369FE5 		ldr	r3, .L72
 2650 1054 0030D3E5 		ldrb	r3, [r3, #0]	@ zero_extendqisi2
 2651 1058 D0300BE5 		str	r3, [fp, #-208]
 2652 105c 44369FE5 		ldr	r3, .L72
 2653 1060 0030D3E5 		ldrb	r3, [r3, #0]	@ zero_extendqisi2
 2654 1064 D4300BE5 		str	r3, [fp, #-212]
 2655 1068 38369FE5 		ldr	r3, .L72
 2656 106c 0030D3E5 		ldrb	r3, [r3, #0]	@ zero_extendqisi2
 2657 1070 D8300BE5 		str	r3, [fp, #-216]
 2658 1074 2C369FE5 		ldr	r3, .L72
 2659 1078 0030D3E5 		ldrb	r3, [r3, #0]	@ zero_extendqisi2
 2660 107c DC300BE5 		str	r3, [fp, #-220]
 2661 1080 20369FE5 		ldr	r3, .L72
 2662 1084 0030D3E5 		ldrb	r3, [r3, #0]	@ zero_extendqisi2
 2663 1088 E0300BE5 		str	r3, [fp, #-224]
 2664 108c 14369FE5 		ldr	r3, .L72
 2665 1090 0030D3E5 		ldrb	r3, [r3, #0]	@ zero_extendqisi2
 2666 1094 E4300BE5 		str	r3, [fp, #-228]
 2667 1098 08369FE5 		ldr	r3, .L72
 2668 109c 0030D3E5 		ldrb	r3, [r3, #0]	@ zero_extendqisi2
 2669 10a0 E8300BE5 		str	r3, [fp, #-232]
 2670 10a4 FC359FE5 		ldr	r3, .L72
 2671 10a8 0030D3E5 		ldrb	r3, [r3, #0]	@ zero_extendqisi2
 2672 10ac EC300BE5 		str	r3, [fp, #-236]
 2673 10b0 F0359FE5 		ldr	r3, .L72
 2674 10b4 0030D3E5 		ldrb	r3, [r3, #0]	@ zero_extendqisi2
 2675 10b8 F0300BE5 		str	r3, [fp, #-240]
 2676 10bc E4359FE5 		ldr	r3, .L72
 2677 10c0 0030D3E5 		ldrb	r3, [r3, #0]	@ zero_extendqisi2
 2678 10c4 F4300BE5 		str	r3, [fp, #-244]
 2679 10c8 D8359FE5 		ldr	r3, .L72
 2680 10cc 0030D3E5 		ldrb	r3, [r3, #0]	@ zero_extendqisi2
 2681 10d0 F8300BE5 		str	r3, [fp, #-248]
 2682 10d4 CC359FE5 		ldr	r3, .L72
 2683 10d8 0030D3E5 		ldrb	r3, [r3, #0]	@ zero_extendqisi2
 2684 10dc FC300BE5 		str	r3, [fp, #-252]
 2685 10e0 C0359FE5 		ldr	r3, .L72
 2686 10e4 0030D3E5 		ldrb	r3, [r3, #0]	@ zero_extendqisi2
 2687 10e8 00310BE5 		str	r3, [fp, #-256]
 2688 10ec B4359FE5 		ldr	r3, .L72
 2689 10f0 0030D3E5 		ldrb	r3, [r3, #0]	@ zero_extendqisi2
 2690 10f4 04310BE5 		str	r3, [fp, #-260]
 2691 10f8 A8359FE5 		ldr	r3, .L72
 2692 10fc 0030D3E5 		ldrb	r3, [r3, #0]	@ zero_extendqisi2
 2693 1100 08310BE5 		str	r3, [fp, #-264]
 2694 1104 9C359FE5 		ldr	r3, .L72
 2695 1108 0030D3E5 		ldrb	r3, [r3, #0]	@ zero_extendqisi2
 2696 110c 0C310BE5 		str	r3, [fp, #-268]
 2697 1110 90359FE5 		ldr	r3, .L72
 2698 1114 0030D3E5 		ldrb	r3, [r3, #0]	@ zero_extendqisi2
 2699 1118 10310BE5 		str	r3, [fp, #-272]
 2700 111c 84359FE5 		ldr	r3, .L72
 2701 1120 0030D3E5 		ldrb	r3, [r3, #0]	@ zero_extendqisi2
 2702 1124 14310BE5 		str	r3, [fp, #-276]
 2703 1128 78359FE5 		ldr	r3, .L72
 2704 112c 0030D3E5 		ldrb	r3, [r3, #0]	@ zero_extendqisi2
 2705 1130 18310BE5 		str	r3, [fp, #-280]
 2706 1134 6C359FE5 		ldr	r3, .L72
 2707 1138 0030D3E5 		ldrb	r3, [r3, #0]	@ zero_extendqisi2
 2708 113c 1C310BE5 		str	r3, [fp, #-284]
 2709 1140 60359FE5 		ldr	r3, .L72
 2710 1144 0030D3E5 		ldrb	r3, [r3, #0]	@ zero_extendqisi2
 2711 1148 20310BE5 		str	r3, [fp, #-288]
 2712 114c 54359FE5 		ldr	r3, .L72
 2713 1150 0030D3E5 		ldrb	r3, [r3, #0]	@ zero_extendqisi2
 2714 1154 24310BE5 		str	r3, [fp, #-292]
 2715 1158 48359FE5 		ldr	r3, .L72
 2716 115c 0030D3E5 		ldrb	r3, [r3, #0]	@ zero_extendqisi2
 2717 1160 28310BE5 		str	r3, [fp, #-296]
 2718 1164 3C359FE5 		ldr	r3, .L72
 2719 1168 0030D3E5 		ldrb	r3, [r3, #0]	@ zero_extendqisi2
 2720 116c 2C310BE5 		str	r3, [fp, #-300]
 2721 1170 30359FE5 		ldr	r3, .L72
 2722 1174 0030D3E5 		ldrb	r3, [r3, #0]	@ zero_extendqisi2
 2723 1178 30310BE5 		str	r3, [fp, #-304]
 2724 117c 24359FE5 		ldr	r3, .L72
 2725 1180 0030D3E5 		ldrb	r3, [r3, #0]	@ zero_extendqisi2
 2726 1184 34310BE5 		str	r3, [fp, #-308]
 2727 1188 18359FE5 		ldr	r3, .L72
 2728 118c 0030D3E5 		ldrb	r3, [r3, #0]	@ zero_extendqisi2
 2729 1190 38310BE5 		str	r3, [fp, #-312]
 2730 1194 0C359FE5 		ldr	r3, .L72
 2731 1198 0030D3E5 		ldrb	r3, [r3, #0]	@ zero_extendqisi2
 2732 119c 3C310BE5 		str	r3, [fp, #-316]
 2733 11a0 00359FE5 		ldr	r3, .L72
 2734 11a4 0030D3E5 		ldrb	r3, [r3, #0]	@ zero_extendqisi2
 2735 11a8 40310BE5 		str	r3, [fp, #-320]
 2736 11ac F4349FE5 		ldr	r3, .L72
 2737 11b0 0030D3E5 		ldrb	r3, [r3, #0]	@ zero_extendqisi2
 2738 11b4 44310BE5 		str	r3, [fp, #-324]
 2739 11b8 E8349FE5 		ldr	r3, .L72
 2740 11bc 0030D3E5 		ldrb	r3, [r3, #0]	@ zero_extendqisi2
 2741 11c0 48310BE5 		str	r3, [fp, #-328]
 2742 11c4 DC349FE5 		ldr	r3, .L72
 2743 11c8 0030D3E5 		ldrb	r3, [r3, #0]	@ zero_extendqisi2
 2744 11cc 4C310BE5 		str	r3, [fp, #-332]
 2745 11d0 D0349FE5 		ldr	r3, .L72
 2746 11d4 0030D3E5 		ldrb	r3, [r3, #0]	@ zero_extendqisi2
 2747 11d8 50310BE5 		str	r3, [fp, #-336]
 2748 11dc C4349FE5 		ldr	r3, .L72
 2749 11e0 0030D3E5 		ldrb	r3, [r3, #0]	@ zero_extendqisi2
 2750 11e4 54310BE5 		str	r3, [fp, #-340]
 2751 11e8 B8349FE5 		ldr	r3, .L72
 2752 11ec 00A0D3E5 		ldrb	sl, [r3, #0]	@ zero_extendqisi2
 2753 11f0 B0349FE5 		ldr	r3, .L72
 2754 11f4 0070D3E5 		ldrb	r7, [r3, #0]	@ zero_extendqisi2
 2755 11f8 A8349FE5 		ldr	r3, .L72
 2756 11fc 0050D3E5 		ldrb	r5, [r3, #0]	@ zero_extendqisi2
 2757 1200 A0349FE5 		ldr	r3, .L72
 2758 1204 00E0D3E5 		ldrb	lr, [r3, #0]	@ zero_extendqisi2
 2759 1208 98349FE5 		ldr	r3, .L72
 2760 120c 0000D3E5 		ldrb	r0, [r3, #0]	@ zero_extendqisi2
 2761 1210 90349FE5 		ldr	r3, .L72
 2762 1214 0020D3E5 		ldrb	r2, [r3, #0]	@ zero_extendqisi2
 2763 1218 0130A0E1 		mov	r3, r1
 2764 121c 74304BE5 		strb	r3, [fp, #-116]
 2765 1220 0C30A0E1 		mov	r3, ip
 2766 1224 73304BE5 		strb	r3, [fp, #-115]
 2767 1228 0430A0E1 		mov	r3, r4
 2768 122c 72304BE5 		strb	r3, [fp, #-114]
 2769 1230 0630A0E1 		mov	r3, r6
 2770 1234 71304BE5 		strb	r3, [fp, #-113]
 2771 1238 0830A0E1 		mov	r3, r8
 2772 123c 70304BE5 		strb	r3, [fp, #-112]
 2773 1240 0930A0E1 		mov	r3, r9
 2774 1244 6F304BE5 		strb	r3, [fp, #-111]
 2775 1248 88101BE5 		ldr	r1, [fp, #-136]
 2776 124c 0130A0E1 		mov	r3, r1
 2777 1250 6E304BE5 		strb	r3, [fp, #-110]
 2778 1254 8C101BE5 		ldr	r1, [fp, #-140]
 2779 1258 0130A0E1 		mov	r3, r1
 2780 125c 6D304BE5 		strb	r3, [fp, #-109]
 2781 1260 90101BE5 		ldr	r1, [fp, #-144]
 2782 1264 0130A0E1 		mov	r3, r1
 2783 1268 6C304BE5 		strb	r3, [fp, #-108]
 2784 126c 94101BE5 		ldr	r1, [fp, #-148]
 2785 1270 0130A0E1 		mov	r3, r1
 2786 1274 6B304BE5 		strb	r3, [fp, #-107]
 2787 1278 98101BE5 		ldr	r1, [fp, #-152]
 2788 127c 0130A0E1 		mov	r3, r1
 2789 1280 6A304BE5 		strb	r3, [fp, #-106]
 2790 1284 9C101BE5 		ldr	r1, [fp, #-156]
 2791 1288 0130A0E1 		mov	r3, r1
 2792 128c 69304BE5 		strb	r3, [fp, #-105]
 2793 1290 A0101BE5 		ldr	r1, [fp, #-160]
 2794 1294 0130A0E1 		mov	r3, r1
 2795 1298 68304BE5 		strb	r3, [fp, #-104]
 2796 129c A4101BE5 		ldr	r1, [fp, #-164]
 2797 12a0 0130A0E1 		mov	r3, r1
 2798 12a4 67304BE5 		strb	r3, [fp, #-103]
 2799 12a8 A8101BE5 		ldr	r1, [fp, #-168]
 2800 12ac 0130A0E1 		mov	r3, r1
 2801 12b0 66304BE5 		strb	r3, [fp, #-102]
 2802 12b4 AC101BE5 		ldr	r1, [fp, #-172]
 2803 12b8 0130A0E1 		mov	r3, r1
 2804 12bc 65304BE5 		strb	r3, [fp, #-101]
 2805 12c0 B0101BE5 		ldr	r1, [fp, #-176]
 2806 12c4 0130A0E1 		mov	r3, r1
 2807 12c8 64304BE5 		strb	r3, [fp, #-100]
 2808 12cc B4101BE5 		ldr	r1, [fp, #-180]
 2809 12d0 0130A0E1 		mov	r3, r1
 2810 12d4 63304BE5 		strb	r3, [fp, #-99]
 2811 12d8 B8101BE5 		ldr	r1, [fp, #-184]
 2812 12dc 0130A0E1 		mov	r3, r1
 2813 12e0 62304BE5 		strb	r3, [fp, #-98]
 2814 12e4 BC101BE5 		ldr	r1, [fp, #-188]
 2815 12e8 0130A0E1 		mov	r3, r1
 2816 12ec 61304BE5 		strb	r3, [fp, #-97]
 2817 12f0 C0101BE5 		ldr	r1, [fp, #-192]
 2818 12f4 0130A0E1 		mov	r3, r1
 2819 12f8 60304BE5 		strb	r3, [fp, #-96]
 2820 12fc C4101BE5 		ldr	r1, [fp, #-196]
 2821 1300 0130A0E1 		mov	r3, r1
 2822 1304 5F304BE5 		strb	r3, [fp, #-95]
 2823 1308 C8101BE5 		ldr	r1, [fp, #-200]
 2824 130c 0130A0E1 		mov	r3, r1
 2825 1310 5E304BE5 		strb	r3, [fp, #-94]
 2826 1314 CC101BE5 		ldr	r1, [fp, #-204]
 2827 1318 0130A0E1 		mov	r3, r1
 2828 131c 5D304BE5 		strb	r3, [fp, #-93]
 2829 1320 D0101BE5 		ldr	r1, [fp, #-208]
 2830 1324 0130A0E1 		mov	r3, r1
 2831 1328 5C304BE5 		strb	r3, [fp, #-92]
 2832 132c D4101BE5 		ldr	r1, [fp, #-212]
 2833 1330 0130A0E1 		mov	r3, r1
 2834 1334 5B304BE5 		strb	r3, [fp, #-91]
 2835 1338 D8101BE5 		ldr	r1, [fp, #-216]
 2836 133c 0130A0E1 		mov	r3, r1
 2837 1340 5A304BE5 		strb	r3, [fp, #-90]
 2838 1344 DC101BE5 		ldr	r1, [fp, #-220]
 2839 1348 0130A0E1 		mov	r3, r1
 2840 134c 59304BE5 		strb	r3, [fp, #-89]
 2841 1350 E0101BE5 		ldr	r1, [fp, #-224]
 2842 1354 0130A0E1 		mov	r3, r1
 2843 1358 58304BE5 		strb	r3, [fp, #-88]
 2844 135c E4101BE5 		ldr	r1, [fp, #-228]
 2845 1360 0130A0E1 		mov	r3, r1
 2846 1364 57304BE5 		strb	r3, [fp, #-87]
 2847 1368 E8101BE5 		ldr	r1, [fp, #-232]
 2848 136c 0130A0E1 		mov	r3, r1
 2849 1370 56304BE5 		strb	r3, [fp, #-86]
 2850 1374 EC101BE5 		ldr	r1, [fp, #-236]
 2851 1378 0130A0E1 		mov	r3, r1
 2852 137c 55304BE5 		strb	r3, [fp, #-85]
 2853 1380 F0101BE5 		ldr	r1, [fp, #-240]
 2854 1384 0130A0E1 		mov	r3, r1
 2855 1388 54304BE5 		strb	r3, [fp, #-84]
 2856 138c F4101BE5 		ldr	r1, [fp, #-244]
 2857 1390 0130A0E1 		mov	r3, r1
 2858 1394 53304BE5 		strb	r3, [fp, #-83]
 2859 1398 F8101BE5 		ldr	r1, [fp, #-248]
 2860 139c 0130A0E1 		mov	r3, r1
 2861 13a0 52304BE5 		strb	r3, [fp, #-82]
 2862 13a4 FC101BE5 		ldr	r1, [fp, #-252]
 2863 13a8 0130A0E1 		mov	r3, r1
 2864 13ac 51304BE5 		strb	r3, [fp, #-81]
 2865 13b0 00111BE5 		ldr	r1, [fp, #-256]
 2866 13b4 0130A0E1 		mov	r3, r1
 2867 13b8 50304BE5 		strb	r3, [fp, #-80]
 2868 13bc 04111BE5 		ldr	r1, [fp, #-260]
 2869 13c0 0130A0E1 		mov	r3, r1
 2870 13c4 4F304BE5 		strb	r3, [fp, #-79]
 2871 13c8 08111BE5 		ldr	r1, [fp, #-264]
 2872 13cc 0130A0E1 		mov	r3, r1
 2873 13d0 4E304BE5 		strb	r3, [fp, #-78]
 2874 13d4 0C111BE5 		ldr	r1, [fp, #-268]
 2875 13d8 0130A0E1 		mov	r3, r1
 2876 13dc 4D304BE5 		strb	r3, [fp, #-77]
 2877 13e0 10111BE5 		ldr	r1, [fp, #-272]
 2878 13e4 0130A0E1 		mov	r3, r1
 2879 13e8 4C304BE5 		strb	r3, [fp, #-76]
 2880 13ec 14111BE5 		ldr	r1, [fp, #-276]
 2881 13f0 0130A0E1 		mov	r3, r1
 2882 13f4 4B304BE5 		strb	r3, [fp, #-75]
 2883 13f8 18111BE5 		ldr	r1, [fp, #-280]
 2884 13fc 0130A0E1 		mov	r3, r1
 2885 1400 4A304BE5 		strb	r3, [fp, #-74]
 2886 1404 1C111BE5 		ldr	r1, [fp, #-284]
 2887 1408 0130A0E1 		mov	r3, r1
 2888 140c 49304BE5 		strb	r3, [fp, #-73]
 2889 1410 20111BE5 		ldr	r1, [fp, #-288]
 2890 1414 0130A0E1 		mov	r3, r1
 2891 1418 48304BE5 		strb	r3, [fp, #-72]
 2892 141c 24111BE5 		ldr	r1, [fp, #-292]
 2893 1420 0130A0E1 		mov	r3, r1
 2894 1424 47304BE5 		strb	r3, [fp, #-71]
 2895 1428 28111BE5 		ldr	r1, [fp, #-296]
 2896 142c 0130A0E1 		mov	r3, r1
 2897 1430 46304BE5 		strb	r3, [fp, #-70]
 2898 1434 2C111BE5 		ldr	r1, [fp, #-300]
 2899 1438 0130A0E1 		mov	r3, r1
 2900 143c 45304BE5 		strb	r3, [fp, #-69]
 2901 1440 30111BE5 		ldr	r1, [fp, #-304]
 2902 1444 0130A0E1 		mov	r3, r1
 2903 1448 44304BE5 		strb	r3, [fp, #-68]
 2904 144c 34111BE5 		ldr	r1, [fp, #-308]
 2905 1450 0130A0E1 		mov	r3, r1
 2906 1454 43304BE5 		strb	r3, [fp, #-67]
 2907 1458 38111BE5 		ldr	r1, [fp, #-312]
 2908 145c 0130A0E1 		mov	r3, r1
 2909 1460 42304BE5 		strb	r3, [fp, #-66]
 2910 1464 3C111BE5 		ldr	r1, [fp, #-316]
 2911 1468 0130A0E1 		mov	r3, r1
 2912 146c 41304BE5 		strb	r3, [fp, #-65]
 2913 1470 40111BE5 		ldr	r1, [fp, #-320]
 2914 1474 0130A0E1 		mov	r3, r1
 2915 1478 40304BE5 		strb	r3, [fp, #-64]
 2916 147c 44111BE5 		ldr	r1, [fp, #-324]
 2917 1480 0130A0E1 		mov	r3, r1
 2918 1484 3F304BE5 		strb	r3, [fp, #-63]
 2919 1488 48111BE5 		ldr	r1, [fp, #-328]
 2920 148c 0130A0E1 		mov	r3, r1
 2921 1490 3E304BE5 		strb	r3, [fp, #-62]
 2922 1494 4C111BE5 		ldr	r1, [fp, #-332]
 2923 1498 0130A0E1 		mov	r3, r1
 2924 149c 3D304BE5 		strb	r3, [fp, #-61]
 2925 14a0 50111BE5 		ldr	r1, [fp, #-336]
 2926 14a4 0130A0E1 		mov	r3, r1
 2927 14a8 3C304BE5 		strb	r3, [fp, #-60]
 2928 14ac 54111BE5 		ldr	r1, [fp, #-340]
 2929 14b0 0130A0E1 		mov	r3, r1
 2930 14b4 3B304BE5 		strb	r3, [fp, #-59]
 2931 14b8 0A30A0E1 		mov	r3, sl
 2932 14bc 3A304BE5 		strb	r3, [fp, #-58]
 2933 14c0 0730A0E1 		mov	r3, r7
 2934 14c4 39304BE5 		strb	r3, [fp, #-57]
 2935 14c8 0530A0E1 		mov	r3, r5
 2936 14cc 38304BE5 		strb	r3, [fp, #-56]
 2937 14d0 0E30A0E1 		mov	r3, lr
 2938 14d4 37304BE5 		strb	r3, [fp, #-55]
 2939 14d8 0030A0E1 		mov	r3, r0
 2940 14dc 36304BE5 		strb	r3, [fp, #-54]
 2941 14e0 0230A0E1 		mov	r3, r2
 2942 14e4 35304BE5 		strb	r3, [fp, #-53]
 512:../reversi8_2019.c ****     {
 513:../reversi8_2019.c ****         {NO,NO,NO,NO,NO,NO,NO,NO},
 514:../reversi8_2019.c ****         {NO,NO,NO,NO,NO,NO,NO,NO},
 515:../reversi8_2019.c ****         {NO,NO,NO,NO,NO,NO,NO,NO},
 516:../reversi8_2019.c ****         {NO,NO,NO,NO,NO,NO,NO,NO},
 517:../reversi8_2019.c ****         {NO,NO,NO,NO,NO,NO,NO,NO},
 518:../reversi8_2019.c ****         {NO,NO,NO,NO,NO,NO,NO,NO},
 519:../reversi8_2019.c ****         {NO,NO,NO,NO,NO,NO,NO,NO},
 520:../reversi8_2019.c ****         {NO,NO,NO,NO,NO,NO,NO,NO}
 521:../reversi8_2019.c ****     };
 522:../reversi8_2019.c **** 
 523:../reversi8_2019.c **** 
 524:../reversi8_2019.c ****     int done;     // la máquina ha conseguido mover o no
 525:../reversi8_2019.c ****     int move = 0; // el humano ha conseguido mover o no
 2943              		.loc 1 525 0
 2944 14e8 0030A0E3 		mov	r3, #0
 2945 14ec 30300BE5 		str	r3, [fp, #-48]
 526:../reversi8_2019.c ****     int blancas, negras; // número de fichas de cada color
 527:../reversi8_2019.c ****     volatile int fin = 0;  // fin vale 1 si el humano no ha podido mover
 2946              		.loc 1 527 0
 2947 14f0 0030A0E3 		mov	r3, #0
 2948 14f4 80300BE5 		str	r3, [fp, #-128]
 528:../reversi8_2019.c ****                   // (ha introducido un valor de movimiento con algún 8)
 529:../reversi8_2019.c ****                   // y luego la máquina tampoco puede
 530:../reversi8_2019.c ****     char f, c;    // fila y columna elegidas por la máquina para su movimiento
 531:../reversi8_2019.c **** 
 532:../reversi8_2019.c ****     timer2_inicializar();
 2949              		.loc 1 532 0
 2950 14f8 FEFFFFEB 		bl	timer2_inicializar
 533:../reversi8_2019.c ****     init_table(tablero, candidatas);
 2951              		.loc 1 533 0
 2952 14fc 74304BE2 		sub	r3, fp, #116
 2953 1500 A4019FE5 		ldr	r0, .L72+4
 2954 1504 0310A0E1 		mov	r1, r3
 2955 1508 FEFFFFEB 		bl	init_table
 534:../reversi8_2019.c **** 
 535:../reversi8_2019.c ****     while (fin == 0)
 2956              		.loc 1 535 0
 2957 150c 590000EA 		b	.L68
 2958              	.L71:
 536:../reversi8_2019.c ****     {
 537:../reversi8_2019.c ****         move = 0;
 2959              		.loc 1 537 0
 2960 1510 0030A0E3 		mov	r3, #0
 2961 1514 30300BE5 		str	r3, [fp, #-48]
 538:../reversi8_2019.c ****         esperar_mov(&ready);
 2962              		.loc 1 538 0
 2963 1518 90019FE5 		ldr	r0, .L72+8
 2964 151c FEFFFFEB 		bl	esperar_mov
 539:../reversi8_2019.c ****         // si la fila o columna son 8 asumimos que el jugador no puede mover
 540:../reversi8_2019.c ****         if (((fila) != DIM) && ((columna) != DIM))
 2965              		.loc 1 540 0
 2966 1520 8C319FE5 		ldr	r3, .L72+12
 2967 1524 0030D3E5 		ldrb	r3, [r3, #0]
 2968 1528 FF3003E2 		and	r3, r3, #255
 2969 152c 080053E3 		cmp	r3, #8
 2970 1530 2900000A 		beq	.L69
 2971              		.loc 1 540 0 is_stmt 0 discriminator 1
 2972 1534 7C319FE5 		ldr	r3, .L72+16
 2973 1538 0030D3E5 		ldrb	r3, [r3, #0]
 2974 153c FF3003E2 		and	r3, r3, #255
 2975 1540 080053E3 		cmp	r3, #8
 2976 1544 2400000A 		beq	.L69
 541:../reversi8_2019.c ****         {
 542:../reversi8_2019.c ****             tablero[fila][columna] = FICHA_NEGRA;
 2977              		.loc 1 542 0 is_stmt 1
 2978 1548 64319FE5 		ldr	r3, .L72+12
 2979 154c 0030D3E5 		ldrb	r3, [r3, #0]
 2980 1550 FF3003E2 		and	r3, r3, #255
 2981 1554 0310A0E1 		mov	r1, r3
 2982 1558 58319FE5 		ldr	r3, .L72+16
 2983 155c 0030D3E5 		ldrb	r3, [r3, #0]
 2984 1560 FF3003E2 		and	r3, r3, #255
 2985 1564 40219FE5 		ldr	r2, .L72+4
 2986 1568 8111A0E1 		mov	r1, r1, asl #3
 2987 156c 033081E0 		add	r3, r1, r3
 2988 1570 033082E0 		add	r3, r2, r3
 2989 1574 0220A0E3 		mov	r2, #2
 2990 1578 0020C3E5 		strb	r2, [r3, #0]
 543:../reversi8_2019.c ****             actualizar_tablero(tablero, fila, columna, FICHA_NEGRA);
 2991              		.loc 1 543 0
 2992 157c 30319FE5 		ldr	r3, .L72+12
 2993 1580 0030D3E5 		ldrb	r3, [r3, #0]
 2994 1584 FF2003E2 		and	r2, r3, #255
 2995 1588 28319FE5 		ldr	r3, .L72+16
 2996 158c 0030D3E5 		ldrb	r3, [r3, #0]
 2997 1590 FF3003E2 		and	r3, r3, #255
 2998 1594 10019FE5 		ldr	r0, .L72+4
 2999 1598 0210A0E1 		mov	r1, r2
 3000 159c 0320A0E1 		mov	r2, r3
 3001 15a0 0230A0E3 		mov	r3, #2
 3002 15a4 FEFFFFEB 		bl	actualizar_tablero
 544:../reversi8_2019.c ****             actualizar_candidatas(candidatas, fila, columna);
 3003              		.loc 1 544 0
 3004 15a8 04319FE5 		ldr	r3, .L72+12
 3005 15ac 0030D3E5 		ldrb	r3, [r3, #0]
 3006 15b0 FF2003E2 		and	r2, r3, #255
 3007 15b4 FC309FE5 		ldr	r3, .L72+16
 3008 15b8 0030D3E5 		ldrb	r3, [r3, #0]
 3009 15bc FF3003E2 		and	r3, r3, #255
 3010 15c0 74104BE2 		sub	r1, fp, #116
 3011 15c4 0100A0E1 		mov	r0, r1
 3012 15c8 0210A0E1 		mov	r1, r2
 3013 15cc 0320A0E1 		mov	r2, r3
 3014 15d0 FEFFFFEB 		bl	actualizar_candidatas
 545:../reversi8_2019.c ****             move = 1;
 3015              		.loc 1 545 0
 3016 15d4 0130A0E3 		mov	r3, #1
 3017 15d8 30300BE5 		str	r3, [fp, #-48]
 3018              	.L69:
 546:../reversi8_2019.c ****         }
 547:../reversi8_2019.c **** 
 548:../reversi8_2019.c ****         // escribe el movimiento en las variables globales fila columna
 549:../reversi8_2019.c ****         done = elegir_mov(candidatas, tablero, &f, &c);
 3019              		.loc 1 549 0
 3020 15dc 74104BE2 		sub	r1, fp, #116
 3021 15e0 81204BE2 		sub	r2, fp, #129
 3022 15e4 82304BE2 		sub	r3, fp, #130
 3023 15e8 0100A0E1 		mov	r0, r1
 3024 15ec B8109FE5 		ldr	r1, .L72+4
 3025 15f0 FEFFFFEB 		bl	elegir_mov
 3026 15f4 34000BE5 		str	r0, [fp, #-52]
 550:../reversi8_2019.c ****         if (done == -1)
 3027              		.loc 1 550 0
 3028 15f8 34301BE5 		ldr	r3, [fp, #-52]
 3029 15fc 010073E3 		cmn	r3, #1
 3030 1600 0500001A 		bne	.L70
 551:../reversi8_2019.c ****         {
 552:../reversi8_2019.c ****             if (move == 0)
 3031              		.loc 1 552 0
 3032 1604 30301BE5 		ldr	r3, [fp, #-48]
 3033 1608 000053E3 		cmp	r3, #0
 3034 160c 1900001A 		bne	.L68
 553:../reversi8_2019.c ****                 fin = 1;
 3035              		.loc 1 553 0
 3036 1610 0130A0E3 		mov	r3, #1
 3037 1614 80300BE5 		str	r3, [fp, #-128]
 3038 1618 160000EA 		b	.L68
 3039              	.L70:
 554:../reversi8_2019.c ****         }
 555:../reversi8_2019.c ****         else
 556:../reversi8_2019.c ****         {
 557:../reversi8_2019.c ****             tablero[f][c] = FICHA_BLANCA;
 3040              		.loc 1 557 0
 3041 161c 81305BE5 		ldrb	r3, [fp, #-129]	@ zero_extendqisi2
 3042 1620 0310A0E1 		mov	r1, r3
 3043 1624 82305BE5 		ldrb	r3, [fp, #-130]	@ zero_extendqisi2
 3044 1628 7C209FE5 		ldr	r2, .L72+4
 3045 162c 8111A0E1 		mov	r1, r1, asl #3
 3046 1630 033081E0 		add	r3, r1, r3
 3047 1634 033082E0 		add	r3, r2, r3
 3048 1638 0120A0E3 		mov	r2, #1
 3049 163c 0020C3E5 		strb	r2, [r3, #0]
 558:../reversi8_2019.c ****             actualizar_tablero(tablero, f, c, FICHA_BLANCA);
 3050              		.loc 1 558 0
 3051 1640 81205BE5 		ldrb	r2, [fp, #-129]	@ zero_extendqisi2
 3052 1644 82305BE5 		ldrb	r3, [fp, #-130]	@ zero_extendqisi2
 3053 1648 5C009FE5 		ldr	r0, .L72+4
 3054 164c 0210A0E1 		mov	r1, r2
 3055 1650 0320A0E1 		mov	r2, r3
 3056 1654 0130A0E3 		mov	r3, #1
 3057 1658 FEFFFFEB 		bl	actualizar_tablero
 559:../reversi8_2019.c ****             actualizar_candidatas(candidatas, f, c);
 3058              		.loc 1 559 0
 3059 165c 81205BE5 		ldrb	r2, [fp, #-129]	@ zero_extendqisi2
 3060 1660 82305BE5 		ldrb	r3, [fp, #-130]	@ zero_extendqisi2
 3061 1664 74104BE2 		sub	r1, fp, #116
 3062 1668 0100A0E1 		mov	r0, r1
 3063 166c 0210A0E1 		mov	r1, r2
 3064 1670 0320A0E1 		mov	r2, r3
 3065 1674 FEFFFFEB 		bl	actualizar_candidatas
 3066              	.L68:
 535:../reversi8_2019.c ****     while (fin == 0)
 3067              		.loc 1 535 0 discriminator 1
 3068 1678 80301BE5 		ldr	r3, [fp, #-128]
 3069 167c 000053E3 		cmp	r3, #0
 3070 1680 A2FFFF0A 		beq	.L71
 560:../reversi8_2019.c ****         }
 561:../reversi8_2019.c ****     }
 562:../reversi8_2019.c ****     contar(tablero, &blancas, &negras);
 3071              		.loc 1 562 0
 3072 1684 78204BE2 		sub	r2, fp, #120
 3073 1688 7C304BE2 		sub	r3, fp, #124
 3074 168c 18009FE5 		ldr	r0, .L72+4
 3075 1690 0210A0E1 		mov	r1, r2
 3076 1694 0320A0E1 		mov	r2, r3
 3077 1698 FEFFFFEB 		bl	contar
 563:../reversi8_2019.c **** }
 3078              		.loc 1 563 0
 3079 169c 28D04BE2 		sub	sp, fp, #40
 3080 16a0 F06F9DE8 		ldmfd	sp, {r4, r5, r6, r7, r8, r9, sl, fp, sp, lr}
 3081 16a4 1EFF2FE1 		bx	lr
 3082              	.L73:
 3083              		.align	2
 3084              	.L72:
 3085 16a8 00000000 		.word	NO
 3086 16ac 08000000 		.word	tablero
 3087 16b0 00000000 		.word	ready
 3088 16b4 00000000 		.word	fila
 3089 16b8 00000000 		.word	columna
 3090              		.cfi_endproc
 3091              	.LFE11:
 3093              		.align	2
 3094              		.global	comprobarFicha
 3096              	comprobarFicha:
 3097              	.LFB12:
 564:../reversi8_2019.c **** 
 565:../reversi8_2019.c **** 
 566:../reversi8_2019.c **** 
 567:../reversi8_2019.c **** 
 568:../reversi8_2019.c **** 
 569:../reversi8_2019.c **** 
 570:../reversi8_2019.c **** 
 571:../reversi8_2019.c **** 
 572:../reversi8_2019.c **** 
 573:../reversi8_2019.c **** 
 574:../reversi8_2019.c **** 
 575:../reversi8_2019.c **** //////////////////////////////////// PRUEBAS de patron_volteo() ///////////////////////////////////
 576:../reversi8_2019.c **** /*
 577:../reversi8_2019.c ****  * Autor:	Fernando Peña Bes (NIA: 756012)
 578:../reversi8_2019.c **** 			Pedro José Pérez García (NIA: 756012)
 579:../reversi8_2019.c ****  * Descrip:	Pruebas para comprobar las diferentes implentaciones de patron_volteo()
 580:../reversi8_2019.c ****  *
 581:../reversi8_2019.c ****  */
 582:../reversi8_2019.c **** 
 583:../reversi8_2019.c **** // Pruebas para comprobar que todas las implementaciones devuelven el mismo resultado
 584:../reversi8_2019.c **** 
 585:../reversi8_2019.c **** // Ejecuta patrón volteo en las 8 direcciones desde una casilla, probando a colocar primero una fic
 586:../reversi8_2019.c **** void comprobarFicha(char tablero[][DIM], char f, char c) {
 3098              		.loc 1 586 0
 3099              		.cfi_startproc
 3100              		@ Function supports interworking.
 3101              		@ args = 0, pretend = 0, frame = 24
 3102              		@ frame_needed = 1, uses_anonymous_args = 0
 3103 16bc 0DC0A0E1 		mov	ip, sp
 3104              	.LCFI24:
 3105              		.cfi_def_cfa_register 12
 3106 16c0 00D82DE9 		stmfd	sp!, {fp, ip, lr, pc}
 3107 16c4 04B04CE2 		sub	fp, ip, #4
 3108              		.cfi_offset 14, -8
 3109              		.cfi_offset 13, -12
 3110              		.cfi_offset 11, -16
 3111              	.LCFI25:
 3112              		.cfi_def_cfa 11, 4
 3113 16c8 28D04DE2 		sub	sp, sp, #40
 3114 16cc 20000BE5 		str	r0, [fp, #-32]
 3115 16d0 0230A0E1 		mov	r3, r2
 3116 16d4 0120A0E1 		mov	r2, r1
 3117 16d8 21204BE5 		strb	r2, [fp, #-33]
 3118 16dc 22304BE5 		strb	r3, [fp, #-34]
 587:../reversi8_2019.c **** 	int k, patron;
 588:../reversi8_2019.c **** 	char SF, SC;
 589:../reversi8_2019.c **** 	for (k=0; k < DIM; k++) {
 3119              		.loc 1 589 0
 3120 16e0 0030A0E3 		mov	r3, #0
 3121 16e4 10300BE5 		str	r3, [fp, #-16]
 3122 16e8 280000EA 		b	.L75
 3123              	.L76:
 3124              	.LBB2:
 590:../reversi8_2019.c **** 		int longitud = 0;
 3125              		.loc 1 590 0 discriminator 2
 3126 16ec 0030A0E3 		mov	r3, #0
 3127 16f0 1C300BE5 		str	r3, [fp, #-28]
 591:../reversi8_2019.c **** 		SF = vSF[k];    // k representa la dirección que miramos
 3128              		.loc 1 591 0 discriminator 2
 3129 16f4 AC209FE5 		ldr	r2, .L77
 3130 16f8 10301BE5 		ldr	r3, [fp, #-16]
 3131 16fc 033082E0 		add	r3, r2, r3
 3132 1700 0030D3E5 		ldrb	r3, [r3, #0]
 3133 1704 11304BE5 		strb	r3, [fp, #-17]
 592:../reversi8_2019.c **** 		SC = vSC[k];    // 1 es norte, 2 NE, 3 E ...
 3134              		.loc 1 592 0 discriminator 2
 3135 1708 9C209FE5 		ldr	r2, .L77+4
 3136 170c 10301BE5 		ldr	r3, [fp, #-16]
 3137 1710 033082E0 		add	r3, r2, r3
 3138 1714 0030D3E5 		ldrb	r3, [r3, #0]
 3139 1718 12304BE5 		strb	r3, [fp, #-18]
 593:../reversi8_2019.c **** 		patron = patron_volteo_test(tablero, &longitud, f, c, SF, SC, FICHA_NEGRA);
 3140              		.loc 1 593 0 discriminator 2
 3141 171c 1C104BE2 		sub	r1, fp, #28
 3142 1720 21205BE5 		ldrb	r2, [fp, #-33]	@ zero_extendqisi2
 3143 1724 22305BE5 		ldrb	r3, [fp, #-34]	@ zero_extendqisi2
 3144 1728 11005BE5 		ldrb	r0, [fp, #-17]	@ zero_extendqisi2
 3145 172c 00008DE5 		str	r0, [sp, #0]
 3146 1730 12005BE5 		ldrb	r0, [fp, #-18]	@ zero_extendqisi2
 3147 1734 04008DE5 		str	r0, [sp, #4]
 3148 1738 0200A0E3 		mov	r0, #2
 3149 173c 08008DE5 		str	r0, [sp, #8]
 3150 1740 20001BE5 		ldr	r0, [fp, #-32]
 3151 1744 FEFFFFEB 		bl	patron_volteo_test
 3152 1748 18000BE5 		str	r0, [fp, #-24]
 594:../reversi8_2019.c **** 		longitud = 0;
 3153              		.loc 1 594 0 discriminator 2
 3154 174c 0030A0E3 		mov	r3, #0
 3155 1750 1C300BE5 		str	r3, [fp, #-28]
 595:../reversi8_2019.c **** 		patron = patron_volteo_test(tablero, &longitud, f, c, SF, SC, FICHA_BLANCA);
 3156              		.loc 1 595 0 discriminator 2
 3157 1754 1C104BE2 		sub	r1, fp, #28
 3158 1758 21205BE5 		ldrb	r2, [fp, #-33]	@ zero_extendqisi2
 3159 175c 22305BE5 		ldrb	r3, [fp, #-34]	@ zero_extendqisi2
 3160 1760 11005BE5 		ldrb	r0, [fp, #-17]	@ zero_extendqisi2
 3161 1764 00008DE5 		str	r0, [sp, #0]
 3162 1768 12005BE5 		ldrb	r0, [fp, #-18]	@ zero_extendqisi2
 3163 176c 04008DE5 		str	r0, [sp, #4]
 3164 1770 0100A0E3 		mov	r0, #1
 3165 1774 08008DE5 		str	r0, [sp, #8]
 3166 1778 20001BE5 		ldr	r0, [fp, #-32]
 3167 177c FEFFFFEB 		bl	patron_volteo_test
 3168 1780 18000BE5 		str	r0, [fp, #-24]
 3169              	.LBE2:
 589:../reversi8_2019.c **** 	for (k=0; k < DIM; k++) {
 3170              		.loc 1 589 0 discriminator 2
 3171 1784 10301BE5 		ldr	r3, [fp, #-16]
 3172 1788 013083E2 		add	r3, r3, #1
 3173 178c 10300BE5 		str	r3, [fp, #-16]
 3174              	.L75:
 589:../reversi8_2019.c **** 	for (k=0; k < DIM; k++) {
 3175              		.loc 1 589 0 is_stmt 0 discriminator 1
 3176 1790 10301BE5 		ldr	r3, [fp, #-16]
 3177 1794 070053E3 		cmp	r3, #7
 3178 1798 D3FFFFDA 		ble	.L76
 596:../reversi8_2019.c **** 	}
 597:../reversi8_2019.c **** }
 3179              		.loc 1 597 0 is_stmt 1
 3180 179c 0CD04BE2 		sub	sp, fp, #12
 3181 17a0 00689DE8 		ldmfd	sp, {fp, sp, lr}
 3182 17a4 1EFF2FE1 		bx	lr
 3183              	.L78:
 3184              		.align	2
 3185              	.L77:
 3186 17a8 00000000 		.word	vSF
 3187 17ac 00000000 		.word	vSC
 3188              		.cfi_endproc
 3189              	.LFE12:
 3191              		.align	2
 3192              		.global	patron_volteo_prueba_resultado_igual
 3194              	patron_volteo_prueba_resultado_igual:
 3195              	.LFB13:
 598:../reversi8_2019.c **** 
 599:../reversi8_2019.c **** // Llama a comprobarFicha() desde todas las casillas de diferentes tableros
 600:../reversi8_2019.c **** void patron_volteo_prueba_resultado_igual(void)
 601:../reversi8_2019.c **** {
 3196              		.loc 1 601 0
 3197              		.cfi_startproc
 3198              		@ Function supports interworking.
 3199              		@ args = 0, pretend = 0, frame = 8
 3200              		@ frame_needed = 1, uses_anonymous_args = 0
 3201 17b0 0DC0A0E1 		mov	ip, sp
 3202              	.LCFI26:
 3203              		.cfi_def_cfa_register 12
 3204 17b4 00D82DE9 		stmfd	sp!, {fp, ip, lr, pc}
 3205 17b8 04B04CE2 		sub	fp, ip, #4
 3206              		.cfi_offset 14, -8
 3207              		.cfi_offset 13, -12
 3208              		.cfi_offset 11, -16
 3209              	.LCFI27:
 3210              		.cfi_def_cfa 11, 4
 3211 17bc 08D04DE2 		sub	sp, sp, #8
 602:../reversi8_2019.c **** 	static char __attribute__ ((aligned (8))) tableroVacio[DIM][DIM] = {
 603:../reversi8_2019.c **** 		        {FICHA_BLANCA,FICHA_BLANCA,FICHA_BLANCA,FICHA_BLANCA,FICHA_BLANCA,FICHA_BLANCA,FICHA_BLAN
 604:../reversi8_2019.c **** 		        {FICHA_BLANCA,FICHA_BLANCA,FICHA_BLANCA,FICHA_BLANCA,FICHA_BLANCA,FICHA_BLANCA,FICHA_BLAN
 605:../reversi8_2019.c **** 		        {FICHA_BLANCA,FICHA_BLANCA,FICHA_BLANCA,FICHA_BLANCA,FICHA_BLANCA,FICHA_BLANCA,FICHA_BLAN
 606:../reversi8_2019.c **** 		        {FICHA_BLANCA,FICHA_BLANCA,FICHA_BLANCA,FICHA_BLANCA,FICHA_BLANCA,FICHA_BLANCA,FICHA_BLAN
 607:../reversi8_2019.c **** 		        {FICHA_BLANCA,FICHA_BLANCA,FICHA_BLANCA,FICHA_BLANCA,FICHA_BLANCA,FICHA_BLANCA,FICHA_BLAN
 608:../reversi8_2019.c **** 		        {FICHA_BLANCA,FICHA_BLANCA,FICHA_BLANCA,FICHA_BLANCA,FICHA_BLANCA,FICHA_BLANCA,FICHA_BLAN
 609:../reversi8_2019.c **** 		        {FICHA_BLANCA,FICHA_BLANCA,FICHA_BLANCA,FICHA_BLANCA,FICHA_BLANCA,FICHA_BLANCA,FICHA_BLAN
 610:../reversi8_2019.c **** 		        {FICHA_BLANCA,FICHA_BLANCA,FICHA_BLANCA,FICHA_BLANCA,FICHA_BLANCA,FICHA_BLANCA,FICHA_BLAN
 611:../reversi8_2019.c **** 		    };
 612:../reversi8_2019.c **** 
 613:../reversi8_2019.c **** 	static char __attribute__ ((aligned (8))) tableroLleno[DIM][DIM] = {
 614:../reversi8_2019.c **** 				{CASILLA_VACIA,CASILLA_VACIA,CASILLA_VACIA,CASILLA_VACIA,CASILLA_VACIA,CASILLA_VACIA,CASILLA_VA
 615:../reversi8_2019.c **** 				{CASILLA_VACIA,CASILLA_VACIA,CASILLA_VACIA,CASILLA_VACIA,CASILLA_VACIA,CASILLA_VACIA,CASILLA_VA
 616:../reversi8_2019.c **** 				{CASILLA_VACIA,CASILLA_VACIA,CASILLA_VACIA,CASILLA_VACIA,CASILLA_VACIA,CASILLA_VACIA,CASILLA_VA
 617:../reversi8_2019.c **** 				{CASILLA_VACIA,CASILLA_VACIA,CASILLA_VACIA,CASILLA_VACIA,CASILLA_VACIA,CASILLA_VACIA,CASILLA_VA
 618:../reversi8_2019.c **** 				{CASILLA_VACIA,CASILLA_VACIA,CASILLA_VACIA,CASILLA_VACIA,CASILLA_VACIA,CASILLA_VACIA,CASILLA_VA
 619:../reversi8_2019.c **** 				{CASILLA_VACIA,CASILLA_VACIA,CASILLA_VACIA,CASILLA_VACIA,CASILLA_VACIA,CASILLA_VACIA,CASILLA_VA
 620:../reversi8_2019.c **** 				{CASILLA_VACIA,CASILLA_VACIA,CASILLA_VACIA,CASILLA_VACIA,CASILLA_VACIA,CASILLA_VACIA,CASILLA_VA
 621:../reversi8_2019.c **** 				{CASILLA_VACIA,CASILLA_VACIA,CASILLA_VACIA,CASILLA_VACIA,CASILLA_VACIA,CASILLA_VACIA,CASILLA_VA
 622:../reversi8_2019.c **** 			};
 623:../reversi8_2019.c **** 
 624:../reversi8_2019.c **** 	static char __attribute__ ((aligned (8))) tablero1[DIM][DIM] = {
 625:../reversi8_2019.c **** 				{FICHA_NEGRA,FICHA_NEGRA,FICHA_NEGRA,FICHA_NEGRA,FICHA_NEGRA,FICHA_NEGRA,FICHA_NEGRA,FICHA_NEGR
 626:../reversi8_2019.c **** 				{FICHA_NEGRA,FICHA_BLANCA,FICHA_BLANCA,FICHA_BLANCA,FICHA_BLANCA,FICHA_BLANCA,FICHA_BLANCA,FICH
 627:../reversi8_2019.c **** 				{FICHA_NEGRA,FICHA_BLANCA,FICHA_BLANCA,FICHA_BLANCA,FICHA_BLANCA,FICHA_BLANCA,FICHA_BLANCA,FICH
 628:../reversi8_2019.c **** 				{FICHA_NEGRA,FICHA_BLANCA,FICHA_BLANCA,FICHA_BLANCA,FICHA_BLANCA,FICHA_BLANCA,FICHA_BLANCA,FICH
 629:../reversi8_2019.c **** 				{FICHA_NEGRA,FICHA_BLANCA,FICHA_BLANCA,FICHA_BLANCA,FICHA_BLANCA,FICHA_BLANCA,FICHA_BLANCA,FICH
 630:../reversi8_2019.c **** 				{FICHA_NEGRA,FICHA_BLANCA,FICHA_BLANCA,FICHA_BLANCA,FICHA_BLANCA,FICHA_BLANCA,FICHA_BLANCA,FICH
 631:../reversi8_2019.c **** 				{FICHA_NEGRA,FICHA_BLANCA,FICHA_BLANCA,FICHA_BLANCA,FICHA_BLANCA,FICHA_BLANCA,FICHA_BLANCA,FICH
 632:../reversi8_2019.c **** 				{FICHA_NEGRA,FICHA_BLANCA,FICHA_BLANCA,FICHA_BLANCA,FICHA_BLANCA,FICHA_BLANCA,FICHA_BLANCA,FICH
 633:../reversi8_2019.c **** 			};
 634:../reversi8_2019.c **** 	static char __attribute__ ((aligned (8))) tablero2[DIM][DIM] = {
 635:../reversi8_2019.c **** 				{FICHA_NEGRA,FICHA_NEGRA,FICHA_NEGRA,FICHA_NEGRA,FICHA_NEGRA,FICHA_NEGRA,FICHA_NEGRA,FICHA_NEGR
 636:../reversi8_2019.c **** 				{FICHA_NEGRA,FICHA_BLANCA,FICHA_BLANCA,FICHA_BLANCA,FICHA_BLANCA,FICHA_BLANCA,FICHA_BLANCA,FICH
 637:../reversi8_2019.c **** 				{FICHA_NEGRA,FICHA_BLANCA,FICHA_BLANCA,FICHA_BLANCA,FICHA_BLANCA,FICHA_BLANCA,FICHA_BLANCA,FICH
 638:../reversi8_2019.c **** 				{FICHA_NEGRA,FICHA_BLANCA,FICHA_BLANCA,FICHA_BLANCA,FICHA_BLANCA,FICHA_BLANCA,FICHA_BLANCA,FICH
 639:../reversi8_2019.c **** 				{FICHA_NEGRA,FICHA_BLANCA,FICHA_BLANCA,FICHA_BLANCA,FICHA_BLANCA,FICHA_BLANCA,FICHA_BLANCA,FICH
 640:../reversi8_2019.c **** 				{FICHA_NEGRA,FICHA_BLANCA,FICHA_BLANCA,FICHA_BLANCA,FICHA_BLANCA,FICHA_BLANCA,FICHA_BLANCA,FICH
 641:../reversi8_2019.c **** 				{FICHA_NEGRA,FICHA_BLANCA,FICHA_BLANCA,FICHA_BLANCA,FICHA_BLANCA,FICHA_BLANCA,FICHA_BLANCA,FICH
 642:../reversi8_2019.c **** 				{FICHA_NEGRA,FICHA_BLANCA,FICHA_BLANCA,FICHA_BLANCA,FICHA_BLANCA,FICHA_BLANCA,FICHA_BLANCA,FICH
 643:../reversi8_2019.c **** 			};
 644:../reversi8_2019.c **** 	static char __attribute__ ((aligned (8))) tablero3[DIM][DIM] = {
 645:../reversi8_2019.c **** 				{FICHA_NEGRA,FICHA_NEGRA,FICHA_NEGRA,FICHA_NEGRA,FICHA_NEGRA,FICHA_NEGRA,FICHA_NEGRA,FICHA_NEGR
 646:../reversi8_2019.c **** 				{FICHA_NEGRA,FICHA_BLANCA,FICHA_BLANCA,FICHA_NEGRA,FICHA_BLANCA,FICHA_BLANCA,FICHA_BLANCA,FICHA
 647:../reversi8_2019.c **** 				{FICHA_NEGRA,FICHA_BLANCA,FICHA_BLANCA,FICHA_NEGRA,FICHA_BLANCA,FICHA_BLANCA,FICHA_BLANCA,FICHA
 648:../reversi8_2019.c **** 				{FICHA_NEGRA,FICHA_BLANCA,FICHA_BLANCA,FICHA_NEGRA,FICHA_BLANCA,FICHA_BLANCA,FICHA_BLANCA,FICHA
 649:../reversi8_2019.c **** 				{FICHA_NEGRA,FICHA_BLANCA,FICHA_BLANCA,FICHA_NEGRA,FICHA_BLANCA,FICHA_BLANCA,FICHA_BLANCA,FICHA
 650:../reversi8_2019.c **** 				{FICHA_NEGRA,FICHA_BLANCA,FICHA_BLANCA,FICHA_NEGRA,FICHA_BLANCA,FICHA_BLANCA,FICHA_BLANCA,FICHA
 651:../reversi8_2019.c **** 				{FICHA_NEGRA,FICHA_BLANCA,FICHA_BLANCA,FICHA_NEGRA,FICHA_BLANCA,FICHA_BLANCA,FICHA_BLANCA,FICHA
 652:../reversi8_2019.c **** 				{FICHA_NEGRA,FICHA_BLANCA,FICHA_BLANCA,FICHA_NEGRA,FICHA_BLANCA,FICHA_BLANCA,FICHA_BLANCA,FICHA
 653:../reversi8_2019.c **** 			};
 654:../reversi8_2019.c **** 	static char __attribute__ ((aligned (8))) tablero4[DIM][DIM] = {
 655:../reversi8_2019.c **** 			{FICHA_NEGRA,FICHA_NEGRA,FICHA_NEGRA,FICHA_NEGRA,FICHA_NEGRA,FICHA_NEGRA,FICHA_NEGRA,FICHA_NEGRA
 656:../reversi8_2019.c **** 			{FICHA_NEGRA,FICHA_BLANCA,FICHA_BLANCA,FICHA_BLANCA,FICHA_BLANCA,FICHA_BLANCA,FICHA_BLANCA,FICHA
 657:../reversi8_2019.c **** 			{FICHA_NEGRA,FICHA_BLANCA,CASILLA_VACIA,FICHA_BLANCA,FICHA_BLANCA,FICHA_BLANCA,FICHA_BLANCA,FICH
 658:../reversi8_2019.c **** 			{FICHA_NEGRA,FICHA_BLANCA,FICHA_BLANCA,FICHA_BLANCA,FICHA_BLANCA,FICHA_BLANCA,CASILLA_VACIA,FICH
 659:../reversi8_2019.c **** 			{FICHA_NEGRA,FICHA_BLANCA,FICHA_BLANCA,FICHA_BLANCA,FICHA_BLANCA,FICHA_BLANCA,FICHA_BLANCA,FICHA
 660:../reversi8_2019.c **** 			{FICHA_NEGRA,FICHA_BLANCA,FICHA_BLANCA,FICHA_BLANCA,FICHA_BLANCA,FICHA_BLANCA,CASILLA_VACIA,FICH
 661:../reversi8_2019.c **** 			{FICHA_NEGRA,CASILLA_VACIA,FICHA_BLANCA,FICHA_BLANCA,CASILLA_VACIA,FICHA_BLANCA,FICHA_BLANCA,FIC
 662:../reversi8_2019.c **** 			{FICHA_NEGRA,FICHA_BLANCA,FICHA_BLANCA,FICHA_BLANCA,FICHA_BLANCA,FICHA_BLANCA,FICHA_BLANCA,CASIL
 663:../reversi8_2019.c **** 		};
 664:../reversi8_2019.c **** 
 665:../reversi8_2019.c **** 
 666:../reversi8_2019.c **** 	char i, j;
 667:../reversi8_2019.c **** 
 668:../reversi8_2019.c **** 	for (i=0; i < DIM; i++) {
 3212              		.loc 1 668 0
 3213 17c0 0030A0E3 		mov	r3, #0
 3214 17c4 0D304BE5 		strb	r3, [fp, #-13]
 3215 17c8 110000EA 		b	.L80
 3216              	.L83:
 669:../reversi8_2019.c **** 		for (j=0; j < DIM; j++) {
 3217              		.loc 1 669 0
 3218 17cc 0030A0E3 		mov	r3, #0
 3219 17d0 0E304BE5 		strb	r3, [fp, #-14]
 3220 17d4 080000EA 		b	.L81
 3221              	.L82:
 670:../reversi8_2019.c **** 			comprobarFicha(tableroVacio, i, j);
 3222              		.loc 1 670 0 discriminator 2
 3223 17d8 0D205BE5 		ldrb	r2, [fp, #-13]	@ zero_extendqisi2
 3224 17dc 0E305BE5 		ldrb	r3, [fp, #-14]	@ zero_extendqisi2
 3225 17e0 24029FE5 		ldr	r0, .L104
 3226 17e4 0210A0E1 		mov	r1, r2
 3227 17e8 0320A0E1 		mov	r2, r3
 3228 17ec FEFFFFEB 		bl	comprobarFicha
 669:../reversi8_2019.c **** 		for (j=0; j < DIM; j++) {
 3229              		.loc 1 669 0 discriminator 2
 3230 17f0 0E305BE5 		ldrb	r3, [fp, #-14]
 3231 17f4 013083E2 		add	r3, r3, #1
 3232 17f8 0E304BE5 		strb	r3, [fp, #-14]
 3233              	.L81:
 669:../reversi8_2019.c **** 		for (j=0; j < DIM; j++) {
 3234              		.loc 1 669 0 is_stmt 0 discriminator 1
 3235 17fc 0E305BE5 		ldrb	r3, [fp, #-14]	@ zero_extendqisi2
 3236 1800 070053E3 		cmp	r3, #7
 3237 1804 F3FFFF9A 		bls	.L82
 668:../reversi8_2019.c **** 	for (i=0; i < DIM; i++) {
 3238              		.loc 1 668 0 is_stmt 1
 3239 1808 0D305BE5 		ldrb	r3, [fp, #-13]
 3240 180c 013083E2 		add	r3, r3, #1
 3241 1810 0D304BE5 		strb	r3, [fp, #-13]
 3242              	.L80:
 668:../reversi8_2019.c **** 	for (i=0; i < DIM; i++) {
 3243              		.loc 1 668 0 is_stmt 0 discriminator 1
 3244 1814 0D305BE5 		ldrb	r3, [fp, #-13]	@ zero_extendqisi2
 3245 1818 070053E3 		cmp	r3, #7
 3246 181c EAFFFF9A 		bls	.L83
 671:../reversi8_2019.c **** 		}
 672:../reversi8_2019.c **** 	}
 673:../reversi8_2019.c **** 
 674:../reversi8_2019.c **** 	for (i=0; i < DIM; i++) {
 3247              		.loc 1 674 0 is_stmt 1
 3248 1820 0030A0E3 		mov	r3, #0
 3249 1824 0D304BE5 		strb	r3, [fp, #-13]
 3250 1828 110000EA 		b	.L84
 3251              	.L87:
 675:../reversi8_2019.c **** 			for (j=0; j < DIM; j++) {
 3252              		.loc 1 675 0
 3253 182c 0030A0E3 		mov	r3, #0
 3254 1830 0E304BE5 		strb	r3, [fp, #-14]
 3255 1834 080000EA 		b	.L85
 3256              	.L86:
 676:../reversi8_2019.c **** 				comprobarFicha(tableroLleno, i, j);
 3257              		.loc 1 676 0 discriminator 2
 3258 1838 0D205BE5 		ldrb	r2, [fp, #-13]	@ zero_extendqisi2
 3259 183c 0E305BE5 		ldrb	r3, [fp, #-14]	@ zero_extendqisi2
 3260 1840 C8019FE5 		ldr	r0, .L104+4
 3261 1844 0210A0E1 		mov	r1, r2
 3262 1848 0320A0E1 		mov	r2, r3
 3263 184c FEFFFFEB 		bl	comprobarFicha
 675:../reversi8_2019.c **** 			for (j=0; j < DIM; j++) {
 3264              		.loc 1 675 0 discriminator 2
 3265 1850 0E305BE5 		ldrb	r3, [fp, #-14]
 3266 1854 013083E2 		add	r3, r3, #1
 3267 1858 0E304BE5 		strb	r3, [fp, #-14]
 3268              	.L85:
 675:../reversi8_2019.c **** 			for (j=0; j < DIM; j++) {
 3269              		.loc 1 675 0 is_stmt 0 discriminator 1
 3270 185c 0E305BE5 		ldrb	r3, [fp, #-14]	@ zero_extendqisi2
 3271 1860 070053E3 		cmp	r3, #7
 3272 1864 F3FFFF9A 		bls	.L86
 674:../reversi8_2019.c **** 	for (i=0; i < DIM; i++) {
 3273              		.loc 1 674 0 is_stmt 1
 3274 1868 0D305BE5 		ldrb	r3, [fp, #-13]
 3275 186c 013083E2 		add	r3, r3, #1
 3276 1870 0D304BE5 		strb	r3, [fp, #-13]
 3277              	.L84:
 674:../reversi8_2019.c **** 	for (i=0; i < DIM; i++) {
 3278              		.loc 1 674 0 is_stmt 0 discriminator 1
 3279 1874 0D305BE5 		ldrb	r3, [fp, #-13]	@ zero_extendqisi2
 3280 1878 070053E3 		cmp	r3, #7
 3281 187c EAFFFF9A 		bls	.L87
 677:../reversi8_2019.c **** 			}
 678:../reversi8_2019.c **** 		}
 679:../reversi8_2019.c **** 
 680:../reversi8_2019.c **** 	for (i=0; i < DIM; i++) {
 3282              		.loc 1 680 0 is_stmt 1
 3283 1880 0030A0E3 		mov	r3, #0
 3284 1884 0D304BE5 		strb	r3, [fp, #-13]
 3285 1888 110000EA 		b	.L88
 3286              	.L91:
 681:../reversi8_2019.c **** 			for (j=0; j < DIM; j++) {
 3287              		.loc 1 681 0
 3288 188c 0030A0E3 		mov	r3, #0
 3289 1890 0E304BE5 		strb	r3, [fp, #-14]
 3290 1894 080000EA 		b	.L89
 3291              	.L90:
 682:../reversi8_2019.c **** 				comprobarFicha(tablero1, i, j);
 3292              		.loc 1 682 0 discriminator 2
 3293 1898 0D205BE5 		ldrb	r2, [fp, #-13]	@ zero_extendqisi2
 3294 189c 0E305BE5 		ldrb	r3, [fp, #-14]	@ zero_extendqisi2
 3295 18a0 6C019FE5 		ldr	r0, .L104+8
 3296 18a4 0210A0E1 		mov	r1, r2
 3297 18a8 0320A0E1 		mov	r2, r3
 3298 18ac FEFFFFEB 		bl	comprobarFicha
 681:../reversi8_2019.c **** 			for (j=0; j < DIM; j++) {
 3299              		.loc 1 681 0 discriminator 2
 3300 18b0 0E305BE5 		ldrb	r3, [fp, #-14]
 3301 18b4 013083E2 		add	r3, r3, #1
 3302 18b8 0E304BE5 		strb	r3, [fp, #-14]
 3303              	.L89:
 681:../reversi8_2019.c **** 			for (j=0; j < DIM; j++) {
 3304              		.loc 1 681 0 is_stmt 0 discriminator 1
 3305 18bc 0E305BE5 		ldrb	r3, [fp, #-14]	@ zero_extendqisi2
 3306 18c0 070053E3 		cmp	r3, #7
 3307 18c4 F3FFFF9A 		bls	.L90
 680:../reversi8_2019.c **** 	for (i=0; i < DIM; i++) {
 3308              		.loc 1 680 0 is_stmt 1
 3309 18c8 0D305BE5 		ldrb	r3, [fp, #-13]
 3310 18cc 013083E2 		add	r3, r3, #1
 3311 18d0 0D304BE5 		strb	r3, [fp, #-13]
 3312              	.L88:
 680:../reversi8_2019.c **** 	for (i=0; i < DIM; i++) {
 3313              		.loc 1 680 0 is_stmt 0 discriminator 1
 3314 18d4 0D305BE5 		ldrb	r3, [fp, #-13]	@ zero_extendqisi2
 3315 18d8 070053E3 		cmp	r3, #7
 3316 18dc EAFFFF9A 		bls	.L91
 683:../reversi8_2019.c **** 			}
 684:../reversi8_2019.c **** 		}
 685:../reversi8_2019.c **** 
 686:../reversi8_2019.c **** 	for (i=0; i < DIM; i++) {
 3317              		.loc 1 686 0 is_stmt 1
 3318 18e0 0030A0E3 		mov	r3, #0
 3319 18e4 0D304BE5 		strb	r3, [fp, #-13]
 3320 18e8 110000EA 		b	.L92
 3321              	.L95:
 687:../reversi8_2019.c **** 			for (j=0; j < DIM; j++) {
 3322              		.loc 1 687 0
 3323 18ec 0030A0E3 		mov	r3, #0
 3324 18f0 0E304BE5 		strb	r3, [fp, #-14]
 3325 18f4 080000EA 		b	.L93
 3326              	.L94:
 688:../reversi8_2019.c **** 				comprobarFicha(tablero2, i, j);
 3327              		.loc 1 688 0 discriminator 2
 3328 18f8 0D205BE5 		ldrb	r2, [fp, #-13]	@ zero_extendqisi2
 3329 18fc 0E305BE5 		ldrb	r3, [fp, #-14]	@ zero_extendqisi2
 3330 1900 10019FE5 		ldr	r0, .L104+12
 3331 1904 0210A0E1 		mov	r1, r2
 3332 1908 0320A0E1 		mov	r2, r3
 3333 190c FEFFFFEB 		bl	comprobarFicha
 687:../reversi8_2019.c **** 			for (j=0; j < DIM; j++) {
 3334              		.loc 1 687 0 discriminator 2
 3335 1910 0E305BE5 		ldrb	r3, [fp, #-14]
 3336 1914 013083E2 		add	r3, r3, #1
 3337 1918 0E304BE5 		strb	r3, [fp, #-14]
 3338              	.L93:
 687:../reversi8_2019.c **** 			for (j=0; j < DIM; j++) {
 3339              		.loc 1 687 0 is_stmt 0 discriminator 1
 3340 191c 0E305BE5 		ldrb	r3, [fp, #-14]	@ zero_extendqisi2
 3341 1920 070053E3 		cmp	r3, #7
 3342 1924 F3FFFF9A 		bls	.L94
 686:../reversi8_2019.c **** 	for (i=0; i < DIM; i++) {
 3343              		.loc 1 686 0 is_stmt 1
 3344 1928 0D305BE5 		ldrb	r3, [fp, #-13]
 3345 192c 013083E2 		add	r3, r3, #1
 3346 1930 0D304BE5 		strb	r3, [fp, #-13]
 3347              	.L92:
 686:../reversi8_2019.c **** 	for (i=0; i < DIM; i++) {
 3348              		.loc 1 686 0 is_stmt 0 discriminator 1
 3349 1934 0D305BE5 		ldrb	r3, [fp, #-13]	@ zero_extendqisi2
 3350 1938 070053E3 		cmp	r3, #7
 3351 193c EAFFFF9A 		bls	.L95
 689:../reversi8_2019.c **** 			}
 690:../reversi8_2019.c **** 		}
 691:../reversi8_2019.c **** 
 692:../reversi8_2019.c **** 	for (i=0; i < DIM; i++) {
 3352              		.loc 1 692 0 is_stmt 1
 3353 1940 0030A0E3 		mov	r3, #0
 3354 1944 0D304BE5 		strb	r3, [fp, #-13]
 3355 1948 110000EA 		b	.L96
 3356              	.L99:
 693:../reversi8_2019.c **** 			for (j=0; j < DIM; j++) {
 3357              		.loc 1 693 0
 3358 194c 0030A0E3 		mov	r3, #0
 3359 1950 0E304BE5 		strb	r3, [fp, #-14]
 3360 1954 080000EA 		b	.L97
 3361              	.L98:
 694:../reversi8_2019.c **** 				comprobarFicha(tablero3, i, j);
 3362              		.loc 1 694 0 discriminator 2
 3363 1958 0D205BE5 		ldrb	r2, [fp, #-13]	@ zero_extendqisi2
 3364 195c 0E305BE5 		ldrb	r3, [fp, #-14]	@ zero_extendqisi2
 3365 1960 B4009FE5 		ldr	r0, .L104+16
 3366 1964 0210A0E1 		mov	r1, r2
 3367 1968 0320A0E1 		mov	r2, r3
 3368 196c FEFFFFEB 		bl	comprobarFicha
 693:../reversi8_2019.c **** 			for (j=0; j < DIM; j++) {
 3369              		.loc 1 693 0 discriminator 2
 3370 1970 0E305BE5 		ldrb	r3, [fp, #-14]
 3371 1974 013083E2 		add	r3, r3, #1
 3372 1978 0E304BE5 		strb	r3, [fp, #-14]
 3373              	.L97:
 693:../reversi8_2019.c **** 			for (j=0; j < DIM; j++) {
 3374              		.loc 1 693 0 is_stmt 0 discriminator 1
 3375 197c 0E305BE5 		ldrb	r3, [fp, #-14]	@ zero_extendqisi2
 3376 1980 070053E3 		cmp	r3, #7
 3377 1984 F3FFFF9A 		bls	.L98
 692:../reversi8_2019.c **** 	for (i=0; i < DIM; i++) {
 3378              		.loc 1 692 0 is_stmt 1
 3379 1988 0D305BE5 		ldrb	r3, [fp, #-13]
 3380 198c 013083E2 		add	r3, r3, #1
 3381 1990 0D304BE5 		strb	r3, [fp, #-13]
 3382              	.L96:
 692:../reversi8_2019.c **** 	for (i=0; i < DIM; i++) {
 3383              		.loc 1 692 0 is_stmt 0 discriminator 1
 3384 1994 0D305BE5 		ldrb	r3, [fp, #-13]	@ zero_extendqisi2
 3385 1998 070053E3 		cmp	r3, #7
 3386 199c EAFFFF9A 		bls	.L99
 695:../reversi8_2019.c **** 			}
 696:../reversi8_2019.c **** 		}
 697:../reversi8_2019.c **** 
 698:../reversi8_2019.c **** 	for (i=0; i < DIM; i++) {
 3387              		.loc 1 698 0 is_stmt 1
 3388 19a0 0030A0E3 		mov	r3, #0
 3389 19a4 0D304BE5 		strb	r3, [fp, #-13]
 3390 19a8 110000EA 		b	.L100
 3391              	.L103:
 699:../reversi8_2019.c **** 			for (j=0; j < DIM; j++) {
 3392              		.loc 1 699 0
 3393 19ac 0030A0E3 		mov	r3, #0
 3394 19b0 0E304BE5 		strb	r3, [fp, #-14]
 3395 19b4 080000EA 		b	.L101
 3396              	.L102:
 700:../reversi8_2019.c **** 				comprobarFicha(tablero4, i, j);
 3397              		.loc 1 700 0 discriminator 2
 3398 19b8 0D205BE5 		ldrb	r2, [fp, #-13]	@ zero_extendqisi2
 3399 19bc 0E305BE5 		ldrb	r3, [fp, #-14]	@ zero_extendqisi2
 3400 19c0 58009FE5 		ldr	r0, .L104+20
 3401 19c4 0210A0E1 		mov	r1, r2
 3402 19c8 0320A0E1 		mov	r2, r3
 3403 19cc FEFFFFEB 		bl	comprobarFicha
 699:../reversi8_2019.c **** 			for (j=0; j < DIM; j++) {
 3404              		.loc 1 699 0 discriminator 2
 3405 19d0 0E305BE5 		ldrb	r3, [fp, #-14]
 3406 19d4 013083E2 		add	r3, r3, #1
 3407 19d8 0E304BE5 		strb	r3, [fp, #-14]
 3408              	.L101:
 699:../reversi8_2019.c **** 			for (j=0; j < DIM; j++) {
 3409              		.loc 1 699 0 is_stmt 0 discriminator 1
 3410 19dc 0E305BE5 		ldrb	r3, [fp, #-14]	@ zero_extendqisi2
 3411 19e0 070053E3 		cmp	r3, #7
 3412 19e4 F3FFFF9A 		bls	.L102
 698:../reversi8_2019.c **** 	for (i=0; i < DIM; i++) {
 3413              		.loc 1 698 0 is_stmt 1
 3414 19e8 0D305BE5 		ldrb	r3, [fp, #-13]
 3415 19ec 013083E2 		add	r3, r3, #1
 3416 19f0 0D304BE5 		strb	r3, [fp, #-13]
 3417              	.L100:
 698:../reversi8_2019.c **** 	for (i=0; i < DIM; i++) {
 3418              		.loc 1 698 0 is_stmt 0 discriminator 1
 3419 19f4 0D305BE5 		ldrb	r3, [fp, #-13]	@ zero_extendqisi2
 3420 19f8 070053E3 		cmp	r3, #7
 3421 19fc EAFFFF9A 		bls	.L103
 701:../reversi8_2019.c **** 			}
 702:../reversi8_2019.c **** 		}
 703:../reversi8_2019.c **** }
 3422              		.loc 1 703 0 is_stmt 1
 3423 1a00 0CD04BE2 		sub	sp, fp, #12
 3424 1a04 00689DE8 		ldmfd	sp, {fp, sp, lr}
 3425 1a08 1EFF2FE1 		bx	lr
 3426              	.L105:
 3427              		.align	2
 3428              	.L104:
 3429 1a0c 80030000 		.word	tableroVacio.4159
 3430 1a10 90000000 		.word	tableroLleno.4160
 3431 1a14 C0030000 		.word	tablero1.4161
 3432 1a18 00040000 		.word	tablero2.4162
 3433 1a1c 40040000 		.word	tablero3.4163
 3434 1a20 80040000 		.word	tablero4.4164
 3435              		.cfi_endproc
 3436              	.LFE13:
 3438              		.align	2
 3439              		.global	evaluar_patron_volteo
 3441              	evaluar_patron_volteo:
 3442              	.LFB14:
 704:../reversi8_2019.c **** 
 705:../reversi8_2019.c **** 
 706:../reversi8_2019.c **** 
 707:../reversi8_2019.c **** // Pruebas para evaluar que el resultado de evaluar patron_volteo es correcto
 708:../reversi8_2019.c **** 
 709:../reversi8_2019.c **** // Dadas un tablero y una casilla comprueba que los resultados de patron_volteo() al colocar una fi
 710:../reversi8_2019.c **** // introducida son iguales que los introducidos en los vectores <resultados_correctos> y <longitude
 711:../reversi8_2019.c **** void evaluar_patron_volteo(char tablero[][DIM], char f, char c, char color, int resultados_correcto
 3443              		.loc 1 711 0
 3444              		.cfi_startproc
 3445              		@ Function supports interworking.
 3446              		@ args = 8, pretend = 0, frame = 24
 3447              		@ frame_needed = 1, uses_anonymous_args = 0
 3448 1a24 0DC0A0E1 		mov	ip, sp
 3449              	.LCFI28:
 3450              		.cfi_def_cfa_register 12
 3451 1a28 00D82DE9 		stmfd	sp!, {fp, ip, lr, pc}
 3452 1a2c 04B04CE2 		sub	fp, ip, #4
 3453              		.cfi_offset 14, -8
 3454              		.cfi_offset 13, -12
 3455              		.cfi_offset 11, -16
 3456              	.LCFI29:
 3457              		.cfi_def_cfa 11, 4
 3458 1a30 28D04DE2 		sub	sp, sp, #40
 3459 1a34 20000BE5 		str	r0, [fp, #-32]
 3460 1a38 21104BE5 		strb	r1, [fp, #-33]
 3461 1a3c 22204BE5 		strb	r2, [fp, #-34]
 3462 1a40 23304BE5 		strb	r3, [fp, #-35]
 712:../reversi8_2019.c **** 	int i;
 713:../reversi8_2019.c **** 	for (i=0; i < DIM; i++) {
 3463              		.loc 1 713 0
 3464 1a44 0030A0E3 		mov	r3, #0
 3465 1a48 10300BE5 		str	r3, [fp, #-16]
 3466 1a4c 270000EA 		b	.L107
 3467              	.L110:
 3468              	.LBB3:
 714:../reversi8_2019.c **** 		int resultado;
 715:../reversi8_2019.c **** 		int longitud = 0;
 3469              		.loc 1 715 0
 3470 1a50 0030A0E3 		mov	r3, #0
 3471 1a54 18300BE5 		str	r3, [fp, #-24]
 716:../reversi8_2019.c **** 		resultado = patron_volteo_test(tablero, &longitud, f, c, vSF[i], vSC[i], color);
 3472              		.loc 1 716 0
 3473 1a58 A8209FE5 		ldr	r2, .L111
 3474 1a5c 10301BE5 		ldr	r3, [fp, #-16]
 3475 1a60 033082E0 		add	r3, r2, r3
 3476 1a64 00C0D3E5 		ldrb	ip, [r3, #0]	@ zero_extendqisi2
 3477 1a68 9C209FE5 		ldr	r2, .L111+4
 3478 1a6c 10301BE5 		ldr	r3, [fp, #-16]
 3479 1a70 033082E0 		add	r3, r2, r3
 3480 1a74 0000D3E5 		ldrb	r0, [r3, #0]	@ zero_extendqisi2
 3481 1a78 18104BE2 		sub	r1, fp, #24
 3482 1a7c 21205BE5 		ldrb	r2, [fp, #-33]	@ zero_extendqisi2
 3483 1a80 22305BE5 		ldrb	r3, [fp, #-34]	@ zero_extendqisi2
 3484 1a84 00C08DE5 		str	ip, [sp, #0]
 3485 1a88 04008DE5 		str	r0, [sp, #4]
 3486 1a8c 23005BE5 		ldrb	r0, [fp, #-35]	@ zero_extendqisi2
 3487 1a90 08008DE5 		str	r0, [sp, #8]
 3488 1a94 20001BE5 		ldr	r0, [fp, #-32]
 3489 1a98 FEFFFFEB 		bl	patron_volteo_test
 3490 1a9c 14000BE5 		str	r0, [fp, #-20]
 717:../reversi8_2019.c **** 		if (resultado != resultados_correctos[i] || longitud != longitudes_correctas[i]) {
 3491              		.loc 1 717 0
 3492 1aa0 10301BE5 		ldr	r3, [fp, #-16]
 3493 1aa4 0331A0E1 		mov	r3, r3, asl #2
 3494 1aa8 04209BE5 		ldr	r2, [fp, #4]
 3495 1aac 033082E0 		add	r3, r2, r3
 3496 1ab0 002093E5 		ldr	r2, [r3, #0]
 3497 1ab4 14301BE5 		ldr	r3, [fp, #-20]
 3498 1ab8 030052E1 		cmp	r2, r3
 3499 1abc 0700001A 		bne	.L108
 3500              		.loc 1 717 0 is_stmt 0 discriminator 1
 3501 1ac0 10301BE5 		ldr	r3, [fp, #-16]
 3502 1ac4 0331A0E1 		mov	r3, r3, asl #2
 3503 1ac8 08209BE5 		ldr	r2, [fp, #8]
 3504 1acc 033082E0 		add	r3, r2, r3
 3505 1ad0 002093E5 		ldr	r2, [r3, #0]
 3506 1ad4 18301BE5 		ldr	r3, [fp, #-24]
 3507 1ad8 030052E1 		cmp	r2, r3
 3508 1adc 0000000A 		beq	.L109
 3509              	.L108:
 718:../reversi8_2019.c **** 			while(1);
 3510              		.loc 1 718 0 is_stmt 1 discriminator 1
 3511 1ae0 FEFFFFEA 		b	.L108
 3512              	.L109:
 3513              	.LBE3:
 713:../reversi8_2019.c **** 	for (i=0; i < DIM; i++) {
 3514              		.loc 1 713 0
 3515 1ae4 10301BE5 		ldr	r3, [fp, #-16]
 3516 1ae8 013083E2 		add	r3, r3, #1
 3517 1aec 10300BE5 		str	r3, [fp, #-16]
 3518              	.L107:
 713:../reversi8_2019.c **** 	for (i=0; i < DIM; i++) {
 3519              		.loc 1 713 0 is_stmt 0 discriminator 1
 3520 1af0 10301BE5 		ldr	r3, [fp, #-16]
 3521 1af4 070053E3 		cmp	r3, #7
 3522 1af8 D4FFFFDA 		ble	.L110
 719:../reversi8_2019.c **** 		}
 720:../reversi8_2019.c **** 	}
 721:../reversi8_2019.c **** }
 3523              		.loc 1 721 0 is_stmt 1
 3524 1afc 0CD04BE2 		sub	sp, fp, #12
 3525 1b00 00689DE8 		ldmfd	sp, {fp, sp, lr}
 3526 1b04 1EFF2FE1 		bx	lr
 3527              	.L112:
 3528              		.align	2
 3529              	.L111:
 3530 1b08 00000000 		.word	vSF
 3531 1b0c 00000000 		.word	vSC
 3532              		.cfi_endproc
 3533              	.LFE14:
 3535              		.align	2
 3536              		.global	patron_volteo_prueba_resultado_correcto
 3538              	patron_volteo_prueba_resultado_correcto:
 3539              	.LFB15:
 722:../reversi8_2019.c **** 
 723:../reversi8_2019.c **** // Diferentes pruebas para evaluar que patron_volteo() devuelve el resultado esperado
 724:../reversi8_2019.c **** void patron_volteo_prueba_resultado_correcto() {
 3540              		.loc 1 724 0
 3541              		.cfi_startproc
 3542              		@ Function supports interworking.
 3543              		@ args = 0, pretend = 0, frame = 904
 3544              		@ frame_needed = 1, uses_anonymous_args = 0
 3545 1b10 0DC0A0E1 		mov	ip, sp
 3546              	.LCFI30:
 3547              		.cfi_def_cfa_register 12
 3548 1b14 00D82DE9 		stmfd	sp!, {fp, ip, lr, pc}
 3549 1b18 04B04CE2 		sub	fp, ip, #4
 3550              		.cfi_offset 14, -8
 3551              		.cfi_offset 13, -12
 3552              		.cfi_offset 11, -16
 3553              	.LCFI31:
 3554              		.cfi_def_cfa 11, 4
 3555 1b1c E6DF4DE2 		sub	sp, sp, #920
 725:../reversi8_2019.c **** 	static char __attribute__ ((aligned (8))) tableroVacio[DIM][DIM] = {
 726:../reversi8_2019.c **** 			        {CASILLA_VACIA,CASILLA_VACIA,CASILLA_VACIA,CASILLA_VACIA,CASILLA_VACIA,CASILLA_VACIA,CAS
 727:../reversi8_2019.c **** 			        {CASILLA_VACIA,CASILLA_VACIA,CASILLA_VACIA,CASILLA_VACIA,CASILLA_VACIA,CASILLA_VACIA,CAS
 728:../reversi8_2019.c **** 			        {CASILLA_VACIA,CASILLA_VACIA,CASILLA_VACIA,CASILLA_VACIA,CASILLA_VACIA,CASILLA_VACIA,CAS
 729:../reversi8_2019.c **** 			        {CASILLA_VACIA,CASILLA_VACIA,CASILLA_VACIA,CASILLA_VACIA,CASILLA_VACIA,CASILLA_VACIA,CAS
 730:../reversi8_2019.c **** 			        {CASILLA_VACIA,CASILLA_VACIA,CASILLA_VACIA,CASILLA_VACIA,CASILLA_VACIA,CASILLA_VACIA,CAS
 731:../reversi8_2019.c **** 			        {CASILLA_VACIA,CASILLA_VACIA,CASILLA_VACIA,CASILLA_VACIA,CASILLA_VACIA,CASILLA_VACIA,CAS
 732:../reversi8_2019.c **** 			        {CASILLA_VACIA,CASILLA_VACIA,CASILLA_VACIA,CASILLA_VACIA,CASILLA_VACIA,CASILLA_VACIA,CAS
 733:../reversi8_2019.c **** 			        {CASILLA_VACIA,CASILLA_VACIA,CASILLA_VACIA,CASILLA_VACIA,CASILLA_VACIA,CASILLA_VACIA,CAS
 734:../reversi8_2019.c **** 			    };
 735:../reversi8_2019.c **** 
 736:../reversi8_2019.c **** 	int longitud = 0;
 3556              		.loc 1 736 0
 3557 1b20 0030A0E3 		mov	r3, #0
 3558 1b24 14300BE5 		str	r3, [fp, #-20]
 737:../reversi8_2019.c **** 	int resultado;
 738:../reversi8_2019.c **** 
 739:../reversi8_2019.c **** 	// Probar desplazamiento 0
 740:../reversi8_2019.c **** 	resultado = patron_volteo_test(tableroVacio, &longitud, 0, 0, 0, 0, FICHA_NEGRA);
 3559              		.loc 1 740 0
 3560 1b28 14304BE2 		sub	r3, fp, #20
 3561 1b2c 0020A0E3 		mov	r2, #0
 3562 1b30 00208DE5 		str	r2, [sp, #0]
 3563 1b34 0020A0E3 		mov	r2, #0
 3564 1b38 04208DE5 		str	r2, [sp, #4]
 3565 1b3c 0220A0E3 		mov	r2, #2
 3566 1b40 08208DE5 		str	r2, [sp, #8]
 3567 1b44 48089FE5 		ldr	r0, .L128
 3568 1b48 0310A0E1 		mov	r1, r3
 3569 1b4c 0020A0E3 		mov	r2, #0
 3570 1b50 0030A0E3 		mov	r3, #0
 3571 1b54 FEFFFFEB 		bl	patron_volteo_test
 3572 1b58 10000BE5 		str	r0, [fp, #-16]
 741:../reversi8_2019.c **** 	if (!(resultado == NO_HAY_PATRON && longitud == 0)) {
 3573              		.loc 1 741 0
 3574 1b5c 10301BE5 		ldr	r3, [fp, #-16]
 3575 1b60 000053E3 		cmp	r3, #0
 3576 1b64 0200001A 		bne	.L114
 3577              		.loc 1 741 0 is_stmt 0 discriminator 1
 3578 1b68 14301BE5 		ldr	r3, [fp, #-20]
 3579 1b6c 000053E3 		cmp	r3, #0
 3580 1b70 0000000A 		beq	.L115
 3581              	.L114:
 742:../reversi8_2019.c **** 		while (1);
 3582              		.loc 1 742 0 is_stmt 1 discriminator 1
 3583 1b74 FEFFFFEA 		b	.L114
 3584              	.L115:
 743:../reversi8_2019.c **** 	}
 744:../reversi8_2019.c **** 
 745:../reversi8_2019.c **** 	// Probar que devuelve error cuando la casilla está fuera de los límites
 746:../reversi8_2019.c **** 	longitud = 0;
 3585              		.loc 1 746 0
 3586 1b78 0030A0E3 		mov	r3, #0
 3587 1b7c 14300BE5 		str	r3, [fp, #-20]
 747:../reversi8_2019.c **** 	resultado = patron_volteo_test(tableroVacio, &longitud, -1, 0, 1, 1, FICHA_NEGRA);
 3588              		.loc 1 747 0
 3589 1b80 14304BE2 		sub	r3, fp, #20
 3590 1b84 0120A0E3 		mov	r2, #1
 3591 1b88 00208DE5 		str	r2, [sp, #0]
 3592 1b8c 0120A0E3 		mov	r2, #1
 3593 1b90 04208DE5 		str	r2, [sp, #4]
 3594 1b94 0220A0E3 		mov	r2, #2
 3595 1b98 08208DE5 		str	r2, [sp, #8]
 3596 1b9c F0079FE5 		ldr	r0, .L128
 3597 1ba0 0310A0E1 		mov	r1, r3
 3598 1ba4 FF20A0E3 		mov	r2, #255
 3599 1ba8 0030A0E3 		mov	r3, #0
 3600 1bac FEFFFFEB 		bl	patron_volteo_test
 3601 1bb0 10000BE5 		str	r0, [fp, #-16]
 748:../reversi8_2019.c **** 	if (!(resultado == NO_HAY_PATRON && longitud == 0)) {
 3602              		.loc 1 748 0
 3603 1bb4 10301BE5 		ldr	r3, [fp, #-16]
 3604 1bb8 000053E3 		cmp	r3, #0
 3605 1bbc 0200001A 		bne	.L116
 3606              		.loc 1 748 0 is_stmt 0 discriminator 1
 3607 1bc0 14301BE5 		ldr	r3, [fp, #-20]
 3608 1bc4 000053E3 		cmp	r3, #0
 3609 1bc8 0000000A 		beq	.L117
 3610              	.L116:
 749:../reversi8_2019.c **** 		while(1);
 3611              		.loc 1 749 0 is_stmt 1 discriminator 1
 3612 1bcc FEFFFFEA 		b	.L116
 3613              	.L117:
 750:../reversi8_2019.c **** 	}
 751:../reversi8_2019.c **** 	resultado = patron_volteo_test(tableroVacio, &longitud, 0, -1, 1, 1, FICHA_NEGRA);
 3614              		.loc 1 751 0
 3615 1bd0 14304BE2 		sub	r3, fp, #20
 3616 1bd4 0120A0E3 		mov	r2, #1
 3617 1bd8 00208DE5 		str	r2, [sp, #0]
 3618 1bdc 0120A0E3 		mov	r2, #1
 3619 1be0 04208DE5 		str	r2, [sp, #4]
 3620 1be4 0220A0E3 		mov	r2, #2
 3621 1be8 08208DE5 		str	r2, [sp, #8]
 3622 1bec A0079FE5 		ldr	r0, .L128
 3623 1bf0 0310A0E1 		mov	r1, r3
 3624 1bf4 0020A0E3 		mov	r2, #0
 3625 1bf8 FF30A0E3 		mov	r3, #255
 3626 1bfc FEFFFFEB 		bl	patron_volteo_test
 3627 1c00 10000BE5 		str	r0, [fp, #-16]
 752:../reversi8_2019.c **** 	if (!(resultado == NO_HAY_PATRON && longitud == 0)) {
 3628              		.loc 1 752 0
 3629 1c04 10301BE5 		ldr	r3, [fp, #-16]
 3630 1c08 000053E3 		cmp	r3, #0
 3631 1c0c 0200001A 		bne	.L118
 3632              		.loc 1 752 0 is_stmt 0 discriminator 1
 3633 1c10 14301BE5 		ldr	r3, [fp, #-20]
 3634 1c14 000053E3 		cmp	r3, #0
 3635 1c18 0000000A 		beq	.L119
 3636              	.L118:
 753:../reversi8_2019.c **** 		while(1);
 3637              		.loc 1 753 0 is_stmt 1 discriminator 1
 3638 1c1c FEFFFFEA 		b	.L118
 3639              	.L119:
 754:../reversi8_2019.c **** 	}
 755:../reversi8_2019.c **** 	resultado = patron_volteo_test(tableroVacio, &longitud, 8, 0, 1, 1, FICHA_NEGRA);
 3640              		.loc 1 755 0
 3641 1c20 14304BE2 		sub	r3, fp, #20
 3642 1c24 0120A0E3 		mov	r2, #1
 3643 1c28 00208DE5 		str	r2, [sp, #0]
 3644 1c2c 0120A0E3 		mov	r2, #1
 3645 1c30 04208DE5 		str	r2, [sp, #4]
 3646 1c34 0220A0E3 		mov	r2, #2
 3647 1c38 08208DE5 		str	r2, [sp, #8]
 3648 1c3c 50079FE5 		ldr	r0, .L128
 3649 1c40 0310A0E1 		mov	r1, r3
 3650 1c44 0820A0E3 		mov	r2, #8
 3651 1c48 0030A0E3 		mov	r3, #0
 3652 1c4c FEFFFFEB 		bl	patron_volteo_test
 3653 1c50 10000BE5 		str	r0, [fp, #-16]
 756:../reversi8_2019.c **** 	if (!(resultado == NO_HAY_PATRON && longitud == 0)) {
 3654              		.loc 1 756 0
 3655 1c54 10301BE5 		ldr	r3, [fp, #-16]
 3656 1c58 000053E3 		cmp	r3, #0
 3657 1c5c 0200001A 		bne	.L120
 3658              		.loc 1 756 0 is_stmt 0 discriminator 1
 3659 1c60 14301BE5 		ldr	r3, [fp, #-20]
 3660 1c64 000053E3 		cmp	r3, #0
 3661 1c68 0000000A 		beq	.L121
 3662              	.L120:
 757:../reversi8_2019.c **** 		while(1);
 3663              		.loc 1 757 0 is_stmt 1 discriminator 1
 3664 1c6c FEFFFFEA 		b	.L120
 3665              	.L121:
 758:../reversi8_2019.c **** 	}
 759:../reversi8_2019.c **** 	resultado = patron_volteo_test(tableroVacio, &longitud, 0, 8, 1, 1, FICHA_NEGRA);
 3666              		.loc 1 759 0
 3667 1c70 14304BE2 		sub	r3, fp, #20
 3668 1c74 0120A0E3 		mov	r2, #1
 3669 1c78 00208DE5 		str	r2, [sp, #0]
 3670 1c7c 0120A0E3 		mov	r2, #1
 3671 1c80 04208DE5 		str	r2, [sp, #4]
 3672 1c84 0220A0E3 		mov	r2, #2
 3673 1c88 08208DE5 		str	r2, [sp, #8]
 3674 1c8c 00079FE5 		ldr	r0, .L128
 3675 1c90 0310A0E1 		mov	r1, r3
 3676 1c94 0020A0E3 		mov	r2, #0
 3677 1c98 0830A0E3 		mov	r3, #8
 3678 1c9c FEFFFFEB 		bl	patron_volteo_test
 3679 1ca0 10000BE5 		str	r0, [fp, #-16]
 760:../reversi8_2019.c **** 	if (!(resultado == NO_HAY_PATRON && longitud == 0)) {
 3680              		.loc 1 760 0
 3681 1ca4 10301BE5 		ldr	r3, [fp, #-16]
 3682 1ca8 000053E3 		cmp	r3, #0
 3683 1cac 0200001A 		bne	.L122
 3684              		.loc 1 760 0 is_stmt 0 discriminator 1
 3685 1cb0 14301BE5 		ldr	r3, [fp, #-20]
 3686 1cb4 000053E3 		cmp	r3, #0
 3687 1cb8 0000000A 		beq	.L123
 3688              	.L122:
 761:../reversi8_2019.c **** 		while(1);
 3689              		.loc 1 761 0 is_stmt 1 discriminator 1
 3690 1cbc FEFFFFEA 		b	.L122
 3691              	.L123:
 762:../reversi8_2019.c **** 	}
 763:../reversi8_2019.c **** 	resultado = patron_volteo_test(tableroVacio, &longitud, -1, -1, 1, 1, FICHA_NEGRA);
 3692              		.loc 1 763 0
 3693 1cc0 14304BE2 		sub	r3, fp, #20
 3694 1cc4 0120A0E3 		mov	r2, #1
 3695 1cc8 00208DE5 		str	r2, [sp, #0]
 3696 1ccc 0120A0E3 		mov	r2, #1
 3697 1cd0 04208DE5 		str	r2, [sp, #4]
 3698 1cd4 0220A0E3 		mov	r2, #2
 3699 1cd8 08208DE5 		str	r2, [sp, #8]
 3700 1cdc B0069FE5 		ldr	r0, .L128
 3701 1ce0 0310A0E1 		mov	r1, r3
 3702 1ce4 FF20A0E3 		mov	r2, #255
 3703 1ce8 FF30A0E3 		mov	r3, #255
 3704 1cec FEFFFFEB 		bl	patron_volteo_test
 3705 1cf0 10000BE5 		str	r0, [fp, #-16]
 764:../reversi8_2019.c **** 	if (!(resultado == NO_HAY_PATRON && longitud == 0)) {
 3706              		.loc 1 764 0
 3707 1cf4 10301BE5 		ldr	r3, [fp, #-16]
 3708 1cf8 000053E3 		cmp	r3, #0
 3709 1cfc 0200001A 		bne	.L124
 3710              		.loc 1 764 0 is_stmt 0 discriminator 1
 3711 1d00 14301BE5 		ldr	r3, [fp, #-20]
 3712 1d04 000053E3 		cmp	r3, #0
 3713 1d08 0000000A 		beq	.L125
 3714              	.L124:
 765:../reversi8_2019.c **** 		while(1);
 3715              		.loc 1 765 0 is_stmt 1 discriminator 1
 3716 1d0c FEFFFFEA 		b	.L124
 3717              	.L125:
 766:../reversi8_2019.c **** 	}
 767:../reversi8_2019.c **** 	resultado = patron_volteo_test(tableroVacio, &longitud, 8, 8, 1, 1, FICHA_NEGRA);
 3718              		.loc 1 767 0
 3719 1d10 14304BE2 		sub	r3, fp, #20
 3720 1d14 0120A0E3 		mov	r2, #1
 3721 1d18 00208DE5 		str	r2, [sp, #0]
 3722 1d1c 0120A0E3 		mov	r2, #1
 3723 1d20 04208DE5 		str	r2, [sp, #4]
 3724 1d24 0220A0E3 		mov	r2, #2
 3725 1d28 08208DE5 		str	r2, [sp, #8]
 3726 1d2c 60069FE5 		ldr	r0, .L128
 3727 1d30 0310A0E1 		mov	r1, r3
 3728 1d34 0820A0E3 		mov	r2, #8
 3729 1d38 0830A0E3 		mov	r3, #8
 3730 1d3c FEFFFFEB 		bl	patron_volteo_test
 3731 1d40 10000BE5 		str	r0, [fp, #-16]
 768:../reversi8_2019.c **** 	if (!(resultado == NO_HAY_PATRON && longitud == 0)) {
 3732              		.loc 1 768 0
 3733 1d44 10301BE5 		ldr	r3, [fp, #-16]
 3734 1d48 000053E3 		cmp	r3, #0
 3735 1d4c 0200001A 		bne	.L126
 3736              		.loc 1 768 0 is_stmt 0 discriminator 1
 3737 1d50 14301BE5 		ldr	r3, [fp, #-20]
 3738 1d54 000053E3 		cmp	r3, #0
 3739 1d58 0000000A 		beq	.L127
 3740              	.L126:
 769:../reversi8_2019.c **** 		while(1);
 3741              		.loc 1 769 0 is_stmt 1 discriminator 1
 3742 1d5c FEFFFFEA 		b	.L126
 3743              	.L127:
 770:../reversi8_2019.c **** 	}
 771:../reversi8_2019.c **** 
 772:../reversi8_2019.c **** 
 773:../reversi8_2019.c **** 
 774:../reversi8_2019.c **** 	// Evaluar casillas dentro de los límites
 775:../reversi8_2019.c **** 
 776:../reversi8_2019.c **** 	// A partir de aquí, y para que el código sea más legible,
 777:../reversi8_2019.c **** 	// se ha usan los valores numéricos de PATRON_ENCONTRADO Y NO_HAY_PATRON.
 778:../reversi8_2019.c **** 
 779:../reversi8_2019.c **** 	// PRUEBAS COLOCANDO FICHA NEGRA //
 780:../reversi8_2019.c **** 	// Encontrar patrones desde esquina (0,0)
 781:../reversi8_2019.c **** 	// Se ha usado el valor numérico de PATRON_ENCONTRADO Y NO_HAY_PATRON para que el código sea más l
 782:../reversi8_2019.c **** 	static char __attribute__ ((aligned (8))) tablero1[DIM][DIM] = {
 783:../reversi8_2019.c **** 				        {CASILLA_VACIA,FICHA_BLANCA,FICHA_NEGRA,CASILLA_VACIA,CASILLA_VACIA,CASILLA_VACIA,CASIL
 784:../reversi8_2019.c **** 				        {FICHA_BLANCA,FICHA_BLANCA,CASILLA_VACIA,CASILLA_VACIA,CASILLA_VACIA,CASILLA_VACIA,CASI
 785:../reversi8_2019.c **** 				        {FICHA_BLANCA,CASILLA_VACIA,FICHA_BLANCA,CASILLA_VACIA,CASILLA_VACIA,CASILLA_VACIA,CASI
 786:../reversi8_2019.c **** 				        {FICHA_BLANCA,CASILLA_VACIA,CASILLA_VACIA,FICHA_NEGRA,CASILLA_VACIA,CASILLA_VACIA,CASIL
 787:../reversi8_2019.c **** 				        {FICHA_BLANCA,CASILLA_VACIA,CASILLA_VACIA,CASILLA_VACIA,CASILLA_VACIA,CASILLA_VACIA,CAS
 788:../reversi8_2019.c **** 				        {FICHA_BLANCA,CASILLA_VACIA,CASILLA_VACIA,CASILLA_VACIA,CASILLA_VACIA,CASILLA_VACIA,CAS
 789:../reversi8_2019.c **** 				        {FICHA_BLANCA,CASILLA_VACIA,CASILLA_VACIA,CASILLA_VACIA,CASILLA_VACIA,CASILLA_VACIA,CAS
 790:../reversi8_2019.c **** 				        {FICHA_NEGRA,CASILLA_VACIA,CASILLA_VACIA,CASILLA_VACIA,CASILLA_VACIA,CASILLA_VACIA,CASI
 791:../reversi8_2019.c **** 				    };
 792:../reversi8_2019.c **** 	int resultados_correctos1[] = {0, 0, 1, 1, 1, 0, 0, 0};
 3744              		.loc 1 792 0
 3745 1d60 30369FE5 		ldr	r3, .L128+4
 3746 1d64 34C04BE2 		sub	ip, fp, #52
 3747 1d68 03E0A0E1 		mov	lr, r3
 3748 1d6c 0F00BEE8 		ldmia	lr!, {r0, r1, r2, r3}
 3749 1d70 0F00ACE8 		stmia	ip!, {r0, r1, r2, r3}
 3750 1d74 0F009EE8 		ldmia	lr, {r0, r1, r2, r3}
 3751 1d78 0F008CE8 		stmia	ip, {r0, r1, r2, r3}
 793:../reversi8_2019.c **** 	int longitudes_correctas1[] = {0, 0, 1, 2, 6, 0, 0, 0};
 3752              		.loc 1 793 0
 3753 1d7c 18369FE5 		ldr	r3, .L128+8
 3754 1d80 54C04BE2 		sub	ip, fp, #84
 3755 1d84 03E0A0E1 		mov	lr, r3
 3756 1d88 0F00BEE8 		ldmia	lr!, {r0, r1, r2, r3}
 3757 1d8c 0F00ACE8 		stmia	ip!, {r0, r1, r2, r3}
 3758 1d90 0F009EE8 		ldmia	lr, {r0, r1, r2, r3}
 3759 1d94 0F008CE8 		stmia	ip, {r0, r1, r2, r3}
 794:../reversi8_2019.c **** 	evaluar_patron_volteo(tablero1, 0, 0, FICHA_NEGRA, resultados_correctos1, longitudes_correctas1);
 3760              		.loc 1 794 0
 3761 1d98 34304BE2 		sub	r3, fp, #52
 3762 1d9c 00308DE5 		str	r3, [sp, #0]
 3763 1da0 54304BE2 		sub	r3, fp, #84
 3764 1da4 04308DE5 		str	r3, [sp, #4]
 3765 1da8 F0059FE5 		ldr	r0, .L128+12
 3766 1dac 0010A0E3 		mov	r1, #0
 3767 1db0 0020A0E3 		mov	r2, #0
 3768 1db4 0230A0E3 		mov	r3, #2
 3769 1db8 FEFFFFEB 		bl	evaluar_patron_volteo
 795:../reversi8_2019.c **** 
 796:../reversi8_2019.c **** 	// Encontrar patrones desde un lado (3,0)
 797:../reversi8_2019.c **** 	static char __attribute__ ((aligned (8))) tablero2[DIM][DIM] = {
 798:../reversi8_2019.c **** 						{CASILLA_VACIA,CASILLA_VACIA,CASILLA_VACIA,FICHA_NEGRA,CASILLA_VACIA,CASILLA_VACIA,CASILLA_VA
 799:../reversi8_2019.c **** 						{FICHA_NEGRA,CASILLA_VACIA,FICHA_BLANCA,CASILLA_VACIA,CASILLA_VACIA,CASILLA_VACIA,CASILLA_VAC
 800:../reversi8_2019.c **** 						{FICHA_BLANCA,FICHA_BLANCA,CASILLA_VACIA,CASILLA_VACIA,CASILLA_VACIA,CASILLA_VACIA,CASILLA_VA
 801:../reversi8_2019.c **** 						{CASILLA_VACIA,FICHA_BLANCA,FICHA_BLANCA,FICHA_BLANCA,FICHA_BLANCA,FICHA_BLANCA,FICHA_BLANCA,
 802:../reversi8_2019.c **** 						{FICHA_BLANCA,FICHA_BLANCA,CASILLA_VACIA,CASILLA_VACIA,CASILLA_VACIA,CASILLA_VACIA,CASILLA_VA
 803:../reversi8_2019.c **** 						{FICHA_BLANCA,CASILLA_VACIA,FICHA_NEGRA,CASILLA_VACIA,CASILLA_VACIA,CASILLA_VACIA,CASILLA_VAC
 804:../reversi8_2019.c **** 						{FICHA_NEGRA,CASILLA_VACIA,CASILLA_VACIA,CASILLA_VACIA,CASILLA_VACIA,CASILLA_VACIA,CASILLA_VA
 805:../reversi8_2019.c **** 						{CASILLA_VACIA,CASILLA_VACIA,CASILLA_VACIA,CASILLA_VACIA,CASILLA_VACIA,CASILLA_VACIA,CASILLA_
 806:../reversi8_2019.c **** 					};
 807:../reversi8_2019.c **** 	int resultados_correctos2[] = {1, 1, 1, 1, 1, 0, 0, 0};
 3770              		.loc 1 807 0
 3771 1dbc E0359FE5 		ldr	r3, .L128+16
 3772 1dc0 74C04BE2 		sub	ip, fp, #116
 3773 1dc4 03E0A0E1 		mov	lr, r3
 3774 1dc8 0F00BEE8 		ldmia	lr!, {r0, r1, r2, r3}
 3775 1dcc 0F00ACE8 		stmia	ip!, {r0, r1, r2, r3}
 3776 1dd0 0F009EE8 		ldmia	lr, {r0, r1, r2, r3}
 3777 1dd4 0F008CE8 		stmia	ip, {r0, r1, r2, r3}
 808:../reversi8_2019.c **** 	int longitudes_correctas2[] = {1, 2, 6, 1, 2, 0, 0, 0};
 3778              		.loc 1 808 0
 3779 1dd8 C8359FE5 		ldr	r3, .L128+20
 3780 1ddc 94C04BE2 		sub	ip, fp, #148
 3781 1de0 03E0A0E1 		mov	lr, r3
 3782 1de4 0F00BEE8 		ldmia	lr!, {r0, r1, r2, r3}
 3783 1de8 0F00ACE8 		stmia	ip!, {r0, r1, r2, r3}
 3784 1dec 0F009EE8 		ldmia	lr, {r0, r1, r2, r3}
 3785 1df0 0F008CE8 		stmia	ip, {r0, r1, r2, r3}
 809:../reversi8_2019.c **** 	evaluar_patron_volteo(tablero2, 3, 0, FICHA_NEGRA, resultados_correctos2, longitudes_correctas2);
 3786              		.loc 1 809 0
 3787 1df4 74304BE2 		sub	r3, fp, #116
 3788 1df8 00308DE5 		str	r3, [sp, #0]
 3789 1dfc 94304BE2 		sub	r3, fp, #148
 3790 1e00 04308DE5 		str	r3, [sp, #4]
 3791 1e04 A0059FE5 		ldr	r0, .L128+24
 3792 1e08 0310A0E3 		mov	r1, #3
 3793 1e0c 0020A0E3 		mov	r2, #0
 3794 1e10 0230A0E3 		mov	r3, #2
 3795 1e14 FEFFFFEB 		bl	evaluar_patron_volteo
 810:../reversi8_2019.c **** 
 811:../reversi8_2019.c **** 	// Encontrar patrones desde el centro (3,3). Casillas vacías alrededor de los patrones
 812:../reversi8_2019.c **** 	static char __attribute__ ((aligned (8))) tablero3[DIM][DIM] = {
 813:../reversi8_2019.c **** 						{FICHA_NEGRA  ,CASILLA_VACIA,CASILLA_VACIA,CASILLA_VACIA,CASILLA_VACIA,CASILLA_VACIA,FICHA_NE
 814:../reversi8_2019.c **** 						{CASILLA_VACIA,FICHA_BLANCA ,CASILLA_VACIA,FICHA_BLANCA  ,CASILLA_VACIA,FICHA_BLANCA ,CASILLA
 815:../reversi8_2019.c **** 						{CASILLA_VACIA,CASILLA_VACIA,FICHA_BLANCA ,FICHA_NEGRA ,FICHA_BLANCA ,CASILLA_VACIA,CASILLA_V
 816:../reversi8_2019.c **** 						{FICHA_NEGRA  ,FICHA_BLANCA ,FICHA_BLANCA ,CASILLA_VACIA,FICHA_BLANCA ,FICHA_NEGRA,CASILLA_VA
 817:../reversi8_2019.c **** 						{CASILLA_VACIA,CASILLA_VACIA,FICHA_BLANCA ,FICHA_BLANCA ,FICHA_BLANCA ,CASILLA_VACIA,CASILLA_
 818:../reversi8_2019.c **** 						{CASILLA_VACIA,FICHA_NEGRA  ,CASILLA_VACIA,FICHA_BLANCA ,CASILLA_VACIA,FICHA_BLANCA ,CASILLA_
 819:../reversi8_2019.c **** 						{CASILLA_VACIA,CASILLA_VACIA,CASILLA_VACIA,FICHA_NEGRA  ,CASILLA_VACIA,CASILLA_VACIA,FICHA_BL
 820:../reversi8_2019.c **** 						{CASILLA_VACIA,CASILLA_VACIA,CASILLA_VACIA,CASILLA_VACIA,CASILLA_VACIA,CASILLA_VACIA,CASILLA_
 821:../reversi8_2019.c **** 					};
 822:../reversi8_2019.c **** 	int resultados_correctos3[] = {0, 1, 1, 1, 1, 1, 1, 1};
 3796              		.loc 1 822 0
 3797 1e18 90359FE5 		ldr	r3, .L128+28
 3798 1e1c B4C04BE2 		sub	ip, fp, #180
 3799 1e20 03E0A0E1 		mov	lr, r3
 3800 1e24 0F00BEE8 		ldmia	lr!, {r0, r1, r2, r3}
 3801 1e28 0F00ACE8 		stmia	ip!, {r0, r1, r2, r3}
 3802 1e2c 0F009EE8 		ldmia	lr, {r0, r1, r2, r3}
 3803 1e30 0F008CE8 		stmia	ip, {r0, r1, r2, r3}
 823:../reversi8_2019.c **** 	int longitudes_correctas3[] = {0, 2, 1, 3, 2, 1, 2, 2};
 3804              		.loc 1 823 0
 3805 1e34 78359FE5 		ldr	r3, .L128+32
 3806 1e38 D4C04BE2 		sub	ip, fp, #212
 3807 1e3c 03E0A0E1 		mov	lr, r3
 3808 1e40 0F00BEE8 		ldmia	lr!, {r0, r1, r2, r3}
 3809 1e44 0F00ACE8 		stmia	ip!, {r0, r1, r2, r3}
 3810 1e48 0F009EE8 		ldmia	lr, {r0, r1, r2, r3}
 3811 1e4c 0F008CE8 		stmia	ip, {r0, r1, r2, r3}
 824:../reversi8_2019.c **** 	evaluar_patron_volteo(tablero3, 3, 3, FICHA_NEGRA, resultados_correctos3, longitudes_correctas3);
 3812              		.loc 1 824 0
 3813 1e50 B4304BE2 		sub	r3, fp, #180
 3814 1e54 00308DE5 		str	r3, [sp, #0]
 3815 1e58 D4304BE2 		sub	r3, fp, #212
 3816 1e5c 04308DE5 		str	r3, [sp, #4]
 3817 1e60 50059FE5 		ldr	r0, .L128+36
 3818 1e64 0310A0E3 		mov	r1, #3
 3819 1e68 0320A0E3 		mov	r2, #3
 3820 1e6c 0230A0E3 		mov	r3, #2
 3821 1e70 FEFFFFEB 		bl	evaluar_patron_volteo
 825:../reversi8_2019.c **** 
 826:../reversi8_2019.c **** 	// Encontrar patrones desde el centro. Casillas no vacías alrededor de los patrones
 827:../reversi8_2019.c **** 	static char __attribute__ ((aligned (8))) tablero4[DIM][DIM] = {
 828:../reversi8_2019.c **** 						{FICHA_NEGRA ,FICHA_BLANCA,FICHA_NEGRA ,FICHA_BLANCA ,FICHA_NEGRA ,FICHA_NEGRA ,FICHA_NEGRA ,
 829:../reversi8_2019.c **** 						{FICHA_NEGRA ,FICHA_BLANCA,FICHA_BLANCA,FICHA_BLANCA ,FICHA_BLANCA,FICHA_BLANCA,FICHA_BLANCA,
 830:../reversi8_2019.c **** 						{FICHA_NEGRA ,FICHA_BLANCA,FICHA_BLANCA,FICHA_NEGRA  ,FICHA_BLANCA,FICHA_BLANCA,FICHA_BLANCA,
 831:../reversi8_2019.c **** 						{FICHA_NEGRA ,FICHA_BLANCA,FICHA_BLANCA,CASILLA_VACIA,FICHA_BLANCA,FICHA_NEGRA ,FICHA_NEGRA ,
 832:../reversi8_2019.c **** 						{FICHA_BLANCA,FICHA_BLANCA,FICHA_BLANCA,FICHA_BLANCA ,FICHA_BLANCA,FICHA_BLANCA,FICHA_BLANCA,
 833:../reversi8_2019.c **** 						{FICHA_BLANCA,FICHA_NEGRA ,FICHA_BLANCA,FICHA_BLANCA ,FICHA_BLANCA,FICHA_BLANCA,FICHA_BLANCA,
 834:../reversi8_2019.c **** 						{FICHA_NEGRA ,FICHA_BLANCA,FICHA_NEGRA ,FICHA_NEGRA  ,FICHA_BLANCA,FICHA_BLANCA,FICHA_BLANCA,
 835:../reversi8_2019.c **** 						{FICHA_BLANCA,FICHA_NEGRA ,FICHA_NEGRA ,FICHA_NEGRA  ,FICHA_BLANCA,FICHA_NEGRA ,FICHA_NEGRA ,
 836:../reversi8_2019.c **** 					};
 837:../reversi8_2019.c **** 	int resultados_correctos4[] = {0, 1, 1, 1, 1, 1, 1, 1};
 3822              		.loc 1 837 0
 3823 1e74 40359FE5 		ldr	r3, .L128+40
 3824 1e78 F4C04BE2 		sub	ip, fp, #244
 3825 1e7c 03E0A0E1 		mov	lr, r3
 3826 1e80 0F00BEE8 		ldmia	lr!, {r0, r1, r2, r3}
 3827 1e84 0F00ACE8 		stmia	ip!, {r0, r1, r2, r3}
 3828 1e88 0F009EE8 		ldmia	lr, {r0, r1, r2, r3}
 3829 1e8c 0F008CE8 		stmia	ip, {r0, r1, r2, r3}
 838:../reversi8_2019.c **** 	int longitudes_correctas4[] = {0, 2, 1, 3, 2, 1, 2, 2};
 3830              		.loc 1 838 0
 3831 1e90 28359FE5 		ldr	r3, .L128+44
 3832 1e94 45CF4BE2 		sub	ip, fp, #276
 3833 1e98 03E0A0E1 		mov	lr, r3
 3834 1e9c 0F00BEE8 		ldmia	lr!, {r0, r1, r2, r3}
 3835 1ea0 0F00ACE8 		stmia	ip!, {r0, r1, r2, r3}
 3836 1ea4 0F009EE8 		ldmia	lr, {r0, r1, r2, r3}
 3837 1ea8 0F008CE8 		stmia	ip, {r0, r1, r2, r3}
 839:../reversi8_2019.c **** 	evaluar_patron_volteo(tablero4, 3, 3, FICHA_NEGRA, resultados_correctos4, longitudes_correctas4);
 3838              		.loc 1 839 0
 3839 1eac F4304BE2 		sub	r3, fp, #244
 3840 1eb0 00308DE5 		str	r3, [sp, #0]
 3841 1eb4 453F4BE2 		sub	r3, fp, #276
 3842 1eb8 04308DE5 		str	r3, [sp, #4]
 3843 1ebc 00059FE5 		ldr	r0, .L128+48
 3844 1ec0 0310A0E3 		mov	r1, #3
 3845 1ec4 0320A0E3 		mov	r2, #3
 3846 1ec8 0230A0E3 		mov	r3, #2
 3847 1ecc FEFFFFEB 		bl	evaluar_patron_volteo
 840:../reversi8_2019.c **** 
 841:../reversi8_2019.c **** 	// Falsos patrones desde esquina (0,0)
 842:../reversi8_2019.c **** 	// Se ha usado el valor numérico de PATRON_ENCONTRADO Y NO_HAY_PATRON para que el código sea más l
 843:../reversi8_2019.c **** 	static char __attribute__ ((aligned (8))) tablero5[DIM][DIM] = {
 844:../reversi8_2019.c **** 						{CASILLA_VACIA,FICHA_NEGRA,FICHA_BLANCA,FICHA_BLANCA,FICHA_BLANCA,CASILLA_VACIA,CASILLA_VACIA
 845:../reversi8_2019.c **** 						{FICHA_BLANCA,CASILLA_VACIA,CASILLA_VACIA,CASILLA_VACIA,CASILLA_VACIA,CASILLA_VACIA,CASILLA_V
 846:../reversi8_2019.c **** 						{FICHA_BLANCA,CASILLA_VACIA,CASILLA_VACIA,CASILLA_VACIA,CASILLA_VACIA,CASILLA_VACIA,CASILLA_V
 847:../reversi8_2019.c **** 						{FICHA_BLANCA,CASILLA_VACIA,CASILLA_VACIA,CASILLA_VACIA,CASILLA_VACIA,CASILLA_VACIA,CASILLA_V
 848:../reversi8_2019.c **** 						{FICHA_BLANCA,CASILLA_VACIA,CASILLA_VACIA,CASILLA_VACIA,CASILLA_VACIA,CASILLA_VACIA,CASILLA_V
 849:../reversi8_2019.c **** 						{FICHA_BLANCA,CASILLA_VACIA,CASILLA_VACIA,CASILLA_VACIA,CASILLA_VACIA,CASILLA_VACIA,CASILLA_V
 850:../reversi8_2019.c **** 						{FICHA_BLANCA,CASILLA_VACIA,CASILLA_VACIA,CASILLA_VACIA,CASILLA_VACIA,CASILLA_VACIA,CASILLA_V
 851:../reversi8_2019.c **** 						{FICHA_BLANCA,CASILLA_VACIA,CASILLA_VACIA,CASILLA_VACIA,CASILLA_VACIA,CASILLA_VACIA,CASILLA_V
 852:../reversi8_2019.c **** 					};
 853:../reversi8_2019.c **** 	int resultados_correctos5[] = {0, 0, 0, 0, 0, 0, 0, 0};
 3848              		.loc 1 853 0
 3849 1ed0 0030A0E3 		mov	r3, #0
 3850 1ed4 34310BE5 		str	r3, [fp, #-308]
 3851 1ed8 0030A0E3 		mov	r3, #0
 3852 1edc 30310BE5 		str	r3, [fp, #-304]
 3853 1ee0 0030A0E3 		mov	r3, #0
 3854 1ee4 2C310BE5 		str	r3, [fp, #-300]
 3855 1ee8 0030A0E3 		mov	r3, #0
 3856 1eec 28310BE5 		str	r3, [fp, #-296]
 3857 1ef0 0030A0E3 		mov	r3, #0
 3858 1ef4 24310BE5 		str	r3, [fp, #-292]
 3859 1ef8 0030A0E3 		mov	r3, #0
 3860 1efc 20310BE5 		str	r3, [fp, #-288]
 3861 1f00 0030A0E3 		mov	r3, #0
 3862 1f04 1C310BE5 		str	r3, [fp, #-284]
 3863 1f08 0030A0E3 		mov	r3, #0
 3864 1f0c 18310BE5 		str	r3, [fp, #-280]
 854:../reversi8_2019.c **** 	int longitudes_correctas5[] = {0, 0, 0, 0, 7, 0, 0, 0};
 3865              		.loc 1 854 0
 3866 1f10 0030A0E3 		mov	r3, #0
 3867 1f14 54310BE5 		str	r3, [fp, #-340]
 3868 1f18 0030A0E3 		mov	r3, #0
 3869 1f1c 50310BE5 		str	r3, [fp, #-336]
 3870 1f20 0030A0E3 		mov	r3, #0
 3871 1f24 4C310BE5 		str	r3, [fp, #-332]
 3872 1f28 0030A0E3 		mov	r3, #0
 3873 1f2c 48310BE5 		str	r3, [fp, #-328]
 3874 1f30 0730A0E3 		mov	r3, #7
 3875 1f34 44310BE5 		str	r3, [fp, #-324]
 3876 1f38 0030A0E3 		mov	r3, #0
 3877 1f3c 40310BE5 		str	r3, [fp, #-320]
 3878 1f40 0030A0E3 		mov	r3, #0
 3879 1f44 3C310BE5 		str	r3, [fp, #-316]
 3880 1f48 0030A0E3 		mov	r3, #0
 3881 1f4c 38310BE5 		str	r3, [fp, #-312]
 855:../reversi8_2019.c **** 	evaluar_patron_volteo(tablero5, 0, 0, FICHA_NEGRA, resultados_correctos5, longitudes_correctas5);
 3882              		.loc 1 855 0
 3883 1f50 4D3F4BE2 		sub	r3, fp, #308
 3884 1f54 00308DE5 		str	r3, [sp, #0]
 3885 1f58 553F4BE2 		sub	r3, fp, #340
 3886 1f5c 04308DE5 		str	r3, [sp, #4]
 3887 1f60 60049FE5 		ldr	r0, .L128+52
 3888 1f64 0010A0E3 		mov	r1, #0
 3889 1f68 0020A0E3 		mov	r2, #0
 3890 1f6c 0230A0E3 		mov	r3, #2
 3891 1f70 FEFFFFEB 		bl	evaluar_patron_volteo
 856:../reversi8_2019.c **** 
 857:../reversi8_2019.c **** 	// Falsos patrones desde un lado (3,0)
 858:../reversi8_2019.c **** 	static char __attribute__ ((aligned (8))) tablero6[DIM][DIM] = {
 859:../reversi8_2019.c **** 						{CASILLA_VACIA,CASILLA_VACIA,CASILLA_VACIA,CASILLA_VACIA,CASILLA_VACIA,CASILLA_VACIA,CASILLA_
 860:../reversi8_2019.c **** 						{CASILLA_VACIA,CASILLA_VACIA,CASILLA_VACIA,CASILLA_VACIA,CASILLA_VACIA,CASILLA_VACIA,CASILLA_
 861:../reversi8_2019.c **** 						{FICHA_BLANCA,FICHA_NEGRA,CASILLA_VACIA,CASILLA_VACIA,CASILLA_VACIA,CASILLA_VACIA,CASILLA_VAC
 862:../reversi8_2019.c **** 						{CASILLA_VACIA,FICHA_BLANCA,CASILLA_VACIA,CASILLA_VACIA,CASILLA_VACIA,CASILLA_VACIA,CASILLA_V
 863:../reversi8_2019.c **** 						{FICHA_BLANCA,CASILLA_VACIA,CASILLA_VACIA,CASILLA_VACIA,CASILLA_VACIA,CASILLA_VACIA,CASILLA_V
 864:../reversi8_2019.c **** 						{FICHA_BLANCA,CASILLA_VACIA,CASILLA_VACIA,CASILLA_VACIA,CASILLA_VACIA,CASILLA_VACIA,CASILLA_V
 865:../reversi8_2019.c **** 						{CASILLA_VACIA,CASILLA_VACIA,CASILLA_VACIA,CASILLA_VACIA,CASILLA_VACIA,CASILLA_VACIA,CASILLA_
 866:../reversi8_2019.c **** 						{CASILLA_VACIA,CASILLA_VACIA,CASILLA_VACIA,CASILLA_VACIA,CASILLA_VACIA,CASILLA_VACIA,CASILLA_
 867:../reversi8_2019.c **** 					};
 868:../reversi8_2019.c **** 	int resultados_correctos6[] = {0, 0, 0, 0, 0, 0, 0, 0};
 3892              		.loc 1 868 0
 3893 1f74 0030A0E3 		mov	r3, #0
 3894 1f78 74310BE5 		str	r3, [fp, #-372]
 3895 1f7c 0030A0E3 		mov	r3, #0
 3896 1f80 70310BE5 		str	r3, [fp, #-368]
 3897 1f84 0030A0E3 		mov	r3, #0
 3898 1f88 6C310BE5 		str	r3, [fp, #-364]
 3899 1f8c 0030A0E3 		mov	r3, #0
 3900 1f90 68310BE5 		str	r3, [fp, #-360]
 3901 1f94 0030A0E3 		mov	r3, #0
 3902 1f98 64310BE5 		str	r3, [fp, #-356]
 3903 1f9c 0030A0E3 		mov	r3, #0
 3904 1fa0 60310BE5 		str	r3, [fp, #-352]
 3905 1fa4 0030A0E3 		mov	r3, #0
 3906 1fa8 5C310BE5 		str	r3, [fp, #-348]
 3907 1fac 0030A0E3 		mov	r3, #0
 3908 1fb0 58310BE5 		str	r3, [fp, #-344]
 869:../reversi8_2019.c **** 	int longitudes_correctas6[] = {1, 0, 1, 0, 2, 0, 0, 0};
 3909              		.loc 1 869 0
 3910 1fb4 10349FE5 		ldr	r3, .L128+56
 3911 1fb8 65CF4BE2 		sub	ip, fp, #404
 3912 1fbc 03E0A0E1 		mov	lr, r3
 3913 1fc0 0F00BEE8 		ldmia	lr!, {r0, r1, r2, r3}
 3914 1fc4 0F00ACE8 		stmia	ip!, {r0, r1, r2, r3}
 3915 1fc8 0F009EE8 		ldmia	lr, {r0, r1, r2, r3}
 3916 1fcc 0F008CE8 		stmia	ip, {r0, r1, r2, r3}
 870:../reversi8_2019.c **** 	evaluar_patron_volteo(tablero6, 3, 0, FICHA_NEGRA, resultados_correctos6, longitudes_correctas6);
 3917              		.loc 1 870 0
 3918 1fd0 5D3F4BE2 		sub	r3, fp, #372
 3919 1fd4 00308DE5 		str	r3, [sp, #0]
 3920 1fd8 653F4BE2 		sub	r3, fp, #404
 3921 1fdc 04308DE5 		str	r3, [sp, #4]
 3922 1fe0 E8039FE5 		ldr	r0, .L128+60
 3923 1fe4 0310A0E3 		mov	r1, #3
 3924 1fe8 0020A0E3 		mov	r2, #0
 3925 1fec 0230A0E3 		mov	r3, #2
 3926 1ff0 FEFFFFEB 		bl	evaluar_patron_volteo
 871:../reversi8_2019.c **** 
 872:../reversi8_2019.c **** 	// Falsos patrones desde el centro (3,3). Casillas vacías alrededor de los patrones
 873:../reversi8_2019.c **** 	static char __attribute__ ((aligned (8))) tablero7[DIM][DIM] = {
 874:../reversi8_2019.c **** 						{CASILLA_VACIA,CASILLA_VACIA,CASILLA_VACIA,FICHA_BLANCA ,CASILLA_VACIA,CASILLA_VACIA,CASILLA_
 875:../reversi8_2019.c **** 						{CASILLA_VACIA,CASILLA_VACIA,CASILLA_VACIA,FICHA_BLANCA ,CASILLA_VACIA,CASILLA_VACIA,CASILLA_
 876:../reversi8_2019.c **** 						{CASILLA_VACIA,FICHA_BLANCA ,FICHA_BLANCA ,FICHA_BLANCA ,CASILLA_VACIA,CASILLA_VACIA,CASILLA_
 877:../reversi8_2019.c **** 						{CASILLA_VACIA,CASILLA_VACIA,CASILLA_VACIA,CASILLA_VACIA,FICHA_NEGRA  ,FICHA_NEGRA  ,FICHA_NE
 878:../reversi8_2019.c **** 						{CASILLA_VACIA,CASILLA_VACIA,FICHA_NEGRA  ,FICHA_BLANCA ,CASILLA_VACIA,CASILLA_VACIA,CASILLA_
 879:../reversi8_2019.c **** 						{CASILLA_VACIA,CASILLA_VACIA,FICHA_NEGRA  ,CASILLA_VACIA,CASILLA_VACIA,CASILLA_VACIA,CASILLA_
 880:../reversi8_2019.c **** 						{CASILLA_VACIA,CASILLA_VACIA,CASILLA_VACIA,CASILLA_VACIA,CASILLA_VACIA,CASILLA_VACIA,CASILLA_
 881:../reversi8_2019.c **** 						{CASILLA_VACIA,FICHA_NEGRA  ,CASILLA_VACIA,CASILLA_VACIA,CASILLA_VACIA,CASILLA_VACIA,CASILLA_
 882:../reversi8_2019.c **** 					};
 883:../reversi8_2019.c **** 	int resultados_correctos7[] = {0, 0, 0, 0, 0, 0, 0, 0};
 3927              		.loc 1 883 0
 3928 1ff4 0030A0E3 		mov	r3, #0
 3929 1ff8 B4310BE5 		str	r3, [fp, #-436]
 3930 1ffc 0030A0E3 		mov	r3, #0
 3931 2000 B0310BE5 		str	r3, [fp, #-432]
 3932 2004 0030A0E3 		mov	r3, #0
 3933 2008 AC310BE5 		str	r3, [fp, #-428]
 3934 200c 0030A0E3 		mov	r3, #0
 3935 2010 A8310BE5 		str	r3, [fp, #-424]
 3936 2014 0030A0E3 		mov	r3, #0
 3937 2018 A4310BE5 		str	r3, [fp, #-420]
 3938 201c 0030A0E3 		mov	r3, #0
 3939 2020 A0310BE5 		str	r3, [fp, #-416]
 3940 2024 0030A0E3 		mov	r3, #0
 3941 2028 9C310BE5 		str	r3, [fp, #-412]
 3942 202c 0030A0E3 		mov	r3, #0
 3943 2030 98310BE5 		str	r3, [fp, #-408]
 884:../reversi8_2019.c **** 	int longitudes_correctas7[] = {3, 0, 0, 0, 1, 0, 0, 1};
 3944              		.loc 1 884 0
 3945 2034 98339FE5 		ldr	r3, .L128+64
 3946 2038 75CF4BE2 		sub	ip, fp, #468
 3947 203c 03E0A0E1 		mov	lr, r3
 3948 2040 0F00BEE8 		ldmia	lr!, {r0, r1, r2, r3}
 3949 2044 0F00ACE8 		stmia	ip!, {r0, r1, r2, r3}
 3950 2048 0F009EE8 		ldmia	lr, {r0, r1, r2, r3}
 3951 204c 0F008CE8 		stmia	ip, {r0, r1, r2, r3}
 885:../reversi8_2019.c **** 	evaluar_patron_volteo(tablero7, 3, 3, FICHA_NEGRA, resultados_correctos7, longitudes_correctas7);
 3952              		.loc 1 885 0
 3953 2050 6D3F4BE2 		sub	r3, fp, #436
 3954 2054 00308DE5 		str	r3, [sp, #0]
 3955 2058 753F4BE2 		sub	r3, fp, #468
 3956 205c 04308DE5 		str	r3, [sp, #4]
 3957 2060 70039FE5 		ldr	r0, .L128+68
 3958 2064 0310A0E3 		mov	r1, #3
 3959 2068 0320A0E3 		mov	r2, #3
 3960 206c 0230A0E3 		mov	r3, #2
 3961 2070 FEFFFFEB 		bl	evaluar_patron_volteo
 886:../reversi8_2019.c **** 
 887:../reversi8_2019.c **** 
 888:../reversi8_2019.c **** 
 889:../reversi8_2019.c **** 
 890:../reversi8_2019.c **** 
 891:../reversi8_2019.c **** 
 892:../reversi8_2019.c **** 	// PRUEBAS COLOCANDO FICHA BLANCA //
 893:../reversi8_2019.c **** 	// Encontrar patrones desde esquina (0,0)
 894:../reversi8_2019.c **** 	// Se ha usado el valor numérico de PATRON_ENCONTRADO Y NO_HAY_PATRON para que el código sea más l
 895:../reversi8_2019.c **** 	static char __attribute__ ((aligned (8))) tablero8[DIM][DIM] = {
 896:../reversi8_2019.c **** 						{CASILLA_VACIA,FICHA_NEGRA,FICHA_BLANCA,CASILLA_VACIA,CASILLA_VACIA,CASILLA_VACIA,CASILLA_VAC
 897:../reversi8_2019.c **** 						{FICHA_NEGRA,FICHA_NEGRA,CASILLA_VACIA,CASILLA_VACIA,CASILLA_VACIA,CASILLA_VACIA,CASILLA_VACI
 898:../reversi8_2019.c **** 						{FICHA_NEGRA,CASILLA_VACIA,FICHA_NEGRA,CASILLA_VACIA,CASILLA_VACIA,CASILLA_VACIA,CASILLA_VACI
 899:../reversi8_2019.c **** 						{FICHA_NEGRA,CASILLA_VACIA,CASILLA_VACIA,FICHA_BLANCA,CASILLA_VACIA,CASILLA_VACIA,CASILLA_VAC
 900:../reversi8_2019.c **** 						{FICHA_NEGRA,CASILLA_VACIA,CASILLA_VACIA,CASILLA_VACIA,CASILLA_VACIA,CASILLA_VACIA,CASILLA_VA
 901:../reversi8_2019.c **** 						{FICHA_NEGRA,CASILLA_VACIA,CASILLA_VACIA,CASILLA_VACIA,CASILLA_VACIA,CASILLA_VACIA,CASILLA_VA
 902:../reversi8_2019.c **** 						{FICHA_NEGRA,CASILLA_VACIA,CASILLA_VACIA,CASILLA_VACIA,CASILLA_VACIA,CASILLA_VACIA,CASILLA_VA
 903:../reversi8_2019.c **** 						{FICHA_BLANCA,CASILLA_VACIA,CASILLA_VACIA,CASILLA_VACIA,CASILLA_VACIA,CASILLA_VACIA,CASILLA_V
 904:../reversi8_2019.c **** 					};
 905:../reversi8_2019.c **** 	int resultados_correctos8[] = {0, 0, 1, 1, 1, 0, 0, 0};
 3962              		.loc 1 905 0
 3963 2074 60339FE5 		ldr	r3, .L128+72
 3964 2078 7DCF4BE2 		sub	ip, fp, #500
 3965 207c 03E0A0E1 		mov	lr, r3
 3966 2080 0F00BEE8 		ldmia	lr!, {r0, r1, r2, r3}
 3967 2084 0F00ACE8 		stmia	ip!, {r0, r1, r2, r3}
 3968 2088 0F009EE8 		ldmia	lr, {r0, r1, r2, r3}
 3969 208c 0F008CE8 		stmia	ip, {r0, r1, r2, r3}
 906:../reversi8_2019.c **** 	int longitudes_correctas8[] = {0, 0, 1, 2, 6, 0, 0, 0};
 3970              		.loc 1 906 0
 3971 2090 48339FE5 		ldr	r3, .L128+76
 3972 2094 85CF4BE2 		sub	ip, fp, #532
 3973 2098 03E0A0E1 		mov	lr, r3
 3974 209c 0F00BEE8 		ldmia	lr!, {r0, r1, r2, r3}
 3975 20a0 0F00ACE8 		stmia	ip!, {r0, r1, r2, r3}
 3976 20a4 0F009EE8 		ldmia	lr, {r0, r1, r2, r3}
 3977 20a8 0F008CE8 		stmia	ip, {r0, r1, r2, r3}
 907:../reversi8_2019.c **** 	evaluar_patron_volteo(tablero8, 0, 0, FICHA_BLANCA, resultados_correctos8, longitudes_correctas8);
 3978              		.loc 1 907 0
 3979 20ac 7D3F4BE2 		sub	r3, fp, #500
 3980 20b0 00308DE5 		str	r3, [sp, #0]
 3981 20b4 853F4BE2 		sub	r3, fp, #532
 3982 20b8 04308DE5 		str	r3, [sp, #4]
 3983 20bc 20039FE5 		ldr	r0, .L128+80
 3984 20c0 0010A0E3 		mov	r1, #0
 3985 20c4 0020A0E3 		mov	r2, #0
 3986 20c8 0130A0E3 		mov	r3, #1
 3987 20cc FEFFFFEB 		bl	evaluar_patron_volteo
 908:../reversi8_2019.c **** 
 909:../reversi8_2019.c **** 	// Encontrar patrones desde un lado (3,0)
 910:../reversi8_2019.c **** 	static char __attribute__ ((aligned (8))) tablero9[DIM][DIM] = {
 911:../reversi8_2019.c **** 						{CASILLA_VACIA,CASILLA_VACIA,CASILLA_VACIA,FICHA_BLANCA,CASILLA_VACIA,CASILLA_VACIA,CASILLA_V
 912:../reversi8_2019.c **** 						{FICHA_BLANCA,CASILLA_VACIA,FICHA_NEGRA,CASILLA_VACIA,CASILLA_VACIA,CASILLA_VACIA,CASILLA_VAC
 913:../reversi8_2019.c **** 						{FICHA_NEGRA,FICHA_NEGRA,CASILLA_VACIA,CASILLA_VACIA,CASILLA_VACIA,CASILLA_VACIA,CASILLA_VACI
 914:../reversi8_2019.c **** 						{CASILLA_VACIA,FICHA_NEGRA,FICHA_NEGRA,FICHA_NEGRA,FICHA_NEGRA,FICHA_NEGRA,FICHA_NEGRA,FICHA_
 915:../reversi8_2019.c **** 						{FICHA_NEGRA,FICHA_NEGRA,CASILLA_VACIA,CASILLA_VACIA,CASILLA_VACIA,CASILLA_VACIA,CASILLA_VACI
 916:../reversi8_2019.c **** 						{FICHA_NEGRA,CASILLA_VACIA,FICHA_BLANCA,CASILLA_VACIA,CASILLA_VACIA,CASILLA_VACIA,CASILLA_VAC
 917:../reversi8_2019.c **** 						{FICHA_BLANCA,CASILLA_VACIA,CASILLA_VACIA,CASILLA_VACIA,CASILLA_VACIA,CASILLA_VACIA,CASILLA_V
 918:../reversi8_2019.c **** 						{CASILLA_VACIA,CASILLA_VACIA,CASILLA_VACIA,CASILLA_VACIA,CASILLA_VACIA,CASILLA_VACIA,CASILLA_
 919:../reversi8_2019.c **** 					};
 920:../reversi8_2019.c **** 	int resultados_correctos9[] = {1, 1, 1, 1, 1, 0, 0, 0};
 3988              		.loc 1 920 0
 3989 20d0 10339FE5 		ldr	r3, .L128+84
 3990 20d4 8DCF4BE2 		sub	ip, fp, #564
 3991 20d8 03E0A0E1 		mov	lr, r3
 3992 20dc 0F00BEE8 		ldmia	lr!, {r0, r1, r2, r3}
 3993 20e0 0F00ACE8 		stmia	ip!, {r0, r1, r2, r3}
 3994 20e4 0F009EE8 		ldmia	lr, {r0, r1, r2, r3}
 3995 20e8 0F008CE8 		stmia	ip, {r0, r1, r2, r3}
 921:../reversi8_2019.c **** 	int longitudes_correctas9[] = {1, 2, 6, 1, 2, 0, 0, 0};
 3996              		.loc 1 921 0
 3997 20ec F8329FE5 		ldr	r3, .L128+88
 3998 20f0 95CF4BE2 		sub	ip, fp, #596
 3999 20f4 03E0A0E1 		mov	lr, r3
 4000 20f8 0F00BEE8 		ldmia	lr!, {r0, r1, r2, r3}
 4001 20fc 0F00ACE8 		stmia	ip!, {r0, r1, r2, r3}
 4002 2100 0F009EE8 		ldmia	lr, {r0, r1, r2, r3}
 4003 2104 0F008CE8 		stmia	ip, {r0, r1, r2, r3}
 922:../reversi8_2019.c **** 	evaluar_patron_volteo(tablero9, 3, 0, FICHA_BLANCA, resultados_correctos9, longitudes_correctas9);
 4004              		.loc 1 922 0
 4005 2108 8D3F4BE2 		sub	r3, fp, #564
 4006 210c 00308DE5 		str	r3, [sp, #0]
 4007 2110 953F4BE2 		sub	r3, fp, #596
 4008 2114 04308DE5 		str	r3, [sp, #4]
 4009 2118 D0029FE5 		ldr	r0, .L128+92
 4010 211c 0310A0E3 		mov	r1, #3
 4011 2120 0020A0E3 		mov	r2, #0
 4012 2124 0130A0E3 		mov	r3, #1
 4013 2128 FEFFFFEB 		bl	evaluar_patron_volteo
 923:../reversi8_2019.c **** 
 924:../reversi8_2019.c **** 	// Encontrar patrones desde el centro (3,3). Casillas vacías alrededor de los patrones
 925:../reversi8_2019.c **** 	static char __attribute__ ((aligned (8))) tablero10[DIM][DIM] = {
 926:../reversi8_2019.c **** 						{FICHA_BLANCA  ,CASILLA_VACIA,CASILLA_VACIA,CASILLA_VACIA,CASILLA_VACIA,CASILLA_VACIA,FICHA_B
 927:../reversi8_2019.c **** 						{CASILLA_VACIA,FICHA_NEGRA ,CASILLA_VACIA,FICHA_NEGRA  ,CASILLA_VACIA,FICHA_NEGRA ,CASILLA_VA
 928:../reversi8_2019.c **** 						{CASILLA_VACIA,CASILLA_VACIA,FICHA_NEGRA ,FICHA_BLANCA ,FICHA_NEGRA ,CASILLA_VACIA,CASILLA_VA
 929:../reversi8_2019.c **** 						{FICHA_BLANCA  ,FICHA_NEGRA ,FICHA_NEGRA ,CASILLA_VACIA,FICHA_NEGRA ,FICHA_BLANCA,CASILLA_VAC
 930:../reversi8_2019.c **** 						{CASILLA_VACIA,CASILLA_VACIA,FICHA_NEGRA ,FICHA_NEGRA ,FICHA_NEGRA ,CASILLA_VACIA,CASILLA_VAC
 931:../reversi8_2019.c **** 						{CASILLA_VACIA,FICHA_BLANCA  ,CASILLA_VACIA,FICHA_NEGRA ,CASILLA_VACIA,FICHA_NEGRA ,CASILLA_V
 932:../reversi8_2019.c **** 						{CASILLA_VACIA,CASILLA_VACIA,CASILLA_VACIA,FICHA_BLANCA  ,CASILLA_VACIA,CASILLA_VACIA,FICHA_N
 933:../reversi8_2019.c **** 						{CASILLA_VACIA,CASILLA_VACIA,CASILLA_VACIA,CASILLA_VACIA,CASILLA_VACIA,CASILLA_VACIA,CASILLA_
 934:../reversi8_2019.c **** 					};
 935:../reversi8_2019.c **** 	int resultados_correctos10[] = {0, 1, 1, 1, 1, 1, 1, 1};
 4014              		.loc 1 935 0
 4015 212c C0329FE5 		ldr	r3, .L128+96
 4016 2130 9DCF4BE2 		sub	ip, fp, #628
 4017 2134 03E0A0E1 		mov	lr, r3
 4018 2138 0F00BEE8 		ldmia	lr!, {r0, r1, r2, r3}
 4019 213c 0F00ACE8 		stmia	ip!, {r0, r1, r2, r3}
 4020 2140 0F009EE8 		ldmia	lr, {r0, r1, r2, r3}
 4021 2144 0F008CE8 		stmia	ip, {r0, r1, r2, r3}
 936:../reversi8_2019.c **** 	int longitudes_correctas10[] = {0, 2, 1, 3, 2, 1, 2, 2};
 4022              		.loc 1 936 0
 4023 2148 A8329FE5 		ldr	r3, .L128+100
 4024 214c A5CF4BE2 		sub	ip, fp, #660
 4025 2150 03E0A0E1 		mov	lr, r3
 4026 2154 0F00BEE8 		ldmia	lr!, {r0, r1, r2, r3}
 4027 2158 0F00ACE8 		stmia	ip!, {r0, r1, r2, r3}
 4028 215c 0F009EE8 		ldmia	lr, {r0, r1, r2, r3}
 4029 2160 0F008CE8 		stmia	ip, {r0, r1, r2, r3}
 937:../reversi8_2019.c **** 	evaluar_patron_volteo(tablero10, 3, 3, FICHA_BLANCA, resultados_correctos10, longitudes_correctas1
 4030              		.loc 1 937 0
 4031 2164 9D3F4BE2 		sub	r3, fp, #628
 4032 2168 00308DE5 		str	r3, [sp, #0]
 4033 216c A53F4BE2 		sub	r3, fp, #660
 4034 2170 04308DE5 		str	r3, [sp, #4]
 4035 2174 80029FE5 		ldr	r0, .L128+104
 4036 2178 0310A0E3 		mov	r1, #3
 4037 217c 0320A0E3 		mov	r2, #3
 4038 2180 0130A0E3 		mov	r3, #1
 4039 2184 FEFFFFEB 		bl	evaluar_patron_volteo
 938:../reversi8_2019.c **** 
 939:../reversi8_2019.c **** 	// Encontrar patrones desde el centro. Casillas no vacías alrededor de los patrones
 940:../reversi8_2019.c **** 	static char __attribute__ ((aligned (8))) tablero11[DIM][DIM] = {
 941:../reversi8_2019.c **** 						{FICHA_BLANCA ,FICHA_NEGRA,FICHA_BLANCA ,FICHA_NEGRA ,FICHA_BLANCA ,FICHA_BLANCA ,FICHA_BLANC
 942:../reversi8_2019.c **** 						{FICHA_BLANCA ,FICHA_NEGRA,FICHA_NEGRA,FICHA_NEGRA ,FICHA_NEGRA,FICHA_NEGRA,FICHA_NEGRA,FICHA
 943:../reversi8_2019.c **** 						{FICHA_BLANCA ,FICHA_NEGRA,FICHA_NEGRA,FICHA_BLANCA  ,FICHA_NEGRA,FICHA_NEGRA,FICHA_NEGRA,FIC
 944:../reversi8_2019.c **** 						{FICHA_BLANCA ,FICHA_NEGRA,FICHA_NEGRA,CASILLA_VACIA,FICHA_NEGRA,FICHA_BLANCA ,FICHA_BLANCA ,
 945:../reversi8_2019.c **** 						{FICHA_NEGRA,FICHA_NEGRA,FICHA_NEGRA,FICHA_NEGRA ,FICHA_NEGRA,FICHA_NEGRA,FICHA_NEGRA,FICHA_N
 946:../reversi8_2019.c **** 						{FICHA_NEGRA,FICHA_BLANCA ,FICHA_NEGRA,FICHA_NEGRA ,FICHA_NEGRA,FICHA_NEGRA,FICHA_NEGRA,FICHA
 947:../reversi8_2019.c **** 						{FICHA_BLANCA ,FICHA_NEGRA,FICHA_BLANCA ,FICHA_BLANCA  ,FICHA_NEGRA,FICHA_NEGRA,FICHA_NEGRA,F
 948:../reversi8_2019.c **** 						{FICHA_NEGRA,FICHA_BLANCA ,FICHA_BLANCA ,FICHA_BLANCA  ,FICHA_NEGRA,FICHA_BLANCA ,FICHA_BLANC
 949:../reversi8_2019.c **** 					};
 950:../reversi8_2019.c **** 	int resultados_correctos11[] = {0, 1, 1, 1, 1, 1, 1, 1};
 4040              		.loc 1 950 0
 4041 2188 70329FE5 		ldr	r3, .L128+108
 4042 218c ADCF4BE2 		sub	ip, fp, #692
 4043 2190 03E0A0E1 		mov	lr, r3
 4044 2194 0F00BEE8 		ldmia	lr!, {r0, r1, r2, r3}
 4045 2198 0F00ACE8 		stmia	ip!, {r0, r1, r2, r3}
 4046 219c 0F009EE8 		ldmia	lr, {r0, r1, r2, r3}
 4047 21a0 0F008CE8 		stmia	ip, {r0, r1, r2, r3}
 951:../reversi8_2019.c **** 	int longitudes_correctas11[] = {0, 2, 1, 3, 2, 1, 2, 2};
 4048              		.loc 1 951 0
 4049 21a4 58329FE5 		ldr	r3, .L128+112
 4050 21a8 B5CF4BE2 		sub	ip, fp, #724
 4051 21ac 03E0A0E1 		mov	lr, r3
 4052 21b0 0F00BEE8 		ldmia	lr!, {r0, r1, r2, r3}
 4053 21b4 0F00ACE8 		stmia	ip!, {r0, r1, r2, r3}
 4054 21b8 0F009EE8 		ldmia	lr, {r0, r1, r2, r3}
 4055 21bc 0F008CE8 		stmia	ip, {r0, r1, r2, r3}
 952:../reversi8_2019.c **** 	evaluar_patron_volteo(tablero11, 3, 3, FICHA_BLANCA, resultados_correctos11, longitudes_correctas1
 4056              		.loc 1 952 0
 4057 21c0 AD3F4BE2 		sub	r3, fp, #692
 4058 21c4 00308DE5 		str	r3, [sp, #0]
 4059 21c8 B53F4BE2 		sub	r3, fp, #724
 4060 21cc 04308DE5 		str	r3, [sp, #4]
 4061 21d0 30029FE5 		ldr	r0, .L128+116
 4062 21d4 0310A0E3 		mov	r1, #3
 4063 21d8 0320A0E3 		mov	r2, #3
 4064 21dc 0130A0E3 		mov	r3, #1
 4065 21e0 FEFFFFEB 		bl	evaluar_patron_volteo
 953:../reversi8_2019.c **** 
 954:../reversi8_2019.c **** 	// Falsos patrones desde esquina (0,0)
 955:../reversi8_2019.c **** 	// Se ha usado el valor numérico de PATRON_ENCONTRADO Y NO_HAY_PATRON para que el código sea más l
 956:../reversi8_2019.c **** 	static char __attribute__ ((aligned (8))) tablero12[DIM][DIM] = {
 957:../reversi8_2019.c **** 						{CASILLA_VACIA,FICHA_BLANCA,FICHA_NEGRA,FICHA_NEGRA,FICHA_NEGRA,CASILLA_VACIA,CASILLA_VACIA,C
 958:../reversi8_2019.c **** 						{FICHA_NEGRA,CASILLA_VACIA,CASILLA_VACIA,CASILLA_VACIA,CASILLA_VACIA,CASILLA_VACIA,CASILLA_VA
 959:../reversi8_2019.c **** 						{FICHA_NEGRA,CASILLA_VACIA,CASILLA_VACIA,CASILLA_VACIA,CASILLA_VACIA,CASILLA_VACIA,CASILLA_VA
 960:../reversi8_2019.c **** 						{FICHA_NEGRA,CASILLA_VACIA,CASILLA_VACIA,CASILLA_VACIA,CASILLA_VACIA,CASILLA_VACIA,CASILLA_VA
 961:../reversi8_2019.c **** 						{FICHA_NEGRA,CASILLA_VACIA,CASILLA_VACIA,CASILLA_VACIA,CASILLA_VACIA,CASILLA_VACIA,CASILLA_VA
 962:../reversi8_2019.c **** 						{FICHA_NEGRA,CASILLA_VACIA,CASILLA_VACIA,CASILLA_VACIA,CASILLA_VACIA,CASILLA_VACIA,CASILLA_VA
 963:../reversi8_2019.c **** 						{FICHA_NEGRA,CASILLA_VACIA,CASILLA_VACIA,CASILLA_VACIA,CASILLA_VACIA,CASILLA_VACIA,CASILLA_VA
 964:../reversi8_2019.c **** 						{FICHA_NEGRA,CASILLA_VACIA,CASILLA_VACIA,CASILLA_VACIA,CASILLA_VACIA,CASILLA_VACIA,CASILLA_VA
 965:../reversi8_2019.c **** 					};
 966:../reversi8_2019.c **** 	int resultados_correctos12[] = {0, 0, 0, 0, 0, 0, 0, 0};
 4066              		.loc 1 966 0
 4067 21e4 0030A0E3 		mov	r3, #0
 4068 21e8 F4320BE5 		str	r3, [fp, #-756]
 4069 21ec 0030A0E3 		mov	r3, #0
 4070 21f0 F0320BE5 		str	r3, [fp, #-752]
 4071 21f4 0030A0E3 		mov	r3, #0
 4072 21f8 EC320BE5 		str	r3, [fp, #-748]
 4073 21fc 0030A0E3 		mov	r3, #0
 4074 2200 E8320BE5 		str	r3, [fp, #-744]
 4075 2204 0030A0E3 		mov	r3, #0
 4076 2208 E4320BE5 		str	r3, [fp, #-740]
 4077 220c 0030A0E3 		mov	r3, #0
 4078 2210 E0320BE5 		str	r3, [fp, #-736]
 4079 2214 0030A0E3 		mov	r3, #0
 4080 2218 DC320BE5 		str	r3, [fp, #-732]
 4081 221c 0030A0E3 		mov	r3, #0
 4082 2220 D8320BE5 		str	r3, [fp, #-728]
 967:../reversi8_2019.c **** 	int longitudes_correctas12[] = {0, 0, 0, 0, 7, 0, 0, 0};
 4083              		.loc 1 967 0
 4084 2224 0030A0E3 		mov	r3, #0
 4085 2228 14330BE5 		str	r3, [fp, #-788]
 4086 222c 0030A0E3 		mov	r3, #0
 4087 2230 10330BE5 		str	r3, [fp, #-784]
 4088 2234 0030A0E3 		mov	r3, #0
 4089 2238 0C330BE5 		str	r3, [fp, #-780]
 4090 223c 0030A0E3 		mov	r3, #0
 4091 2240 08330BE5 		str	r3, [fp, #-776]
 4092 2244 0730A0E3 		mov	r3, #7
 4093 2248 04330BE5 		str	r3, [fp, #-772]
 4094 224c 0030A0E3 		mov	r3, #0
 4095 2250 00330BE5 		str	r3, [fp, #-768]
 4096 2254 0030A0E3 		mov	r3, #0
 4097 2258 FC320BE5 		str	r3, [fp, #-764]
 4098 225c 0030A0E3 		mov	r3, #0
 4099 2260 F8320BE5 		str	r3, [fp, #-760]
 968:../reversi8_2019.c **** 	evaluar_patron_volteo(tablero12, 0, 0, FICHA_BLANCA, resultados_correctos12, longitudes_correctas1
 4100              		.loc 1 968 0
 4101 2264 BD3F4BE2 		sub	r3, fp, #756
 4102 2268 00308DE5 		str	r3, [sp, #0]
 4103 226c C53F4BE2 		sub	r3, fp, #788
 4104 2270 04308DE5 		str	r3, [sp, #4]
 4105 2274 90019FE5 		ldr	r0, .L128+120
 4106 2278 0010A0E3 		mov	r1, #0
 4107 227c 0020A0E3 		mov	r2, #0
 4108 2280 0130A0E3 		mov	r3, #1
 4109 2284 FEFFFFEB 		bl	evaluar_patron_volteo
 969:../reversi8_2019.c **** 
 970:../reversi8_2019.c **** 	// Falsos patrones desde un lado (3,0)
 971:../reversi8_2019.c **** 	static char __attribute__ ((aligned (8))) tablero13[DIM][DIM] = {
 972:../reversi8_2019.c **** 						{CASILLA_VACIA,CASILLA_VACIA,CASILLA_VACIA,CASILLA_VACIA,CASILLA_VACIA,CASILLA_VACIA,CASILLA_
 973:../reversi8_2019.c **** 						{CASILLA_VACIA,CASILLA_VACIA,CASILLA_VACIA,CASILLA_VACIA,CASILLA_VACIA,CASILLA_VACIA,CASILLA_
 974:../reversi8_2019.c **** 						{FICHA_NEGRA,FICHA_BLANCA,CASILLA_VACIA,CASILLA_VACIA,CASILLA_VACIA,CASILLA_VACIA,CASILLA_VAC
 975:../reversi8_2019.c **** 						{CASILLA_VACIA,FICHA_NEGRA,CASILLA_VACIA,CASILLA_VACIA,CASILLA_VACIA,CASILLA_VACIA,CASILLA_VA
 976:../reversi8_2019.c **** 						{FICHA_NEGRA,CASILLA_VACIA,CASILLA_VACIA,CASILLA_VACIA,CASILLA_VACIA,CASILLA_VACIA,CASILLA_VA
 977:../reversi8_2019.c **** 						{FICHA_NEGRA,CASILLA_VACIA,CASILLA_VACIA,CASILLA_VACIA,CASILLA_VACIA,CASILLA_VACIA,CASILLA_VA
 978:../reversi8_2019.c **** 						{CASILLA_VACIA,CASILLA_VACIA,CASILLA_VACIA,CASILLA_VACIA,CASILLA_VACIA,CASILLA_VACIA,CASILLA_
 979:../reversi8_2019.c **** 						{CASILLA_VACIA,CASILLA_VACIA,CASILLA_VACIA,CASILLA_VACIA,CASILLA_VACIA,CASILLA_VACIA,CASILLA_
 980:../reversi8_2019.c **** 					};
 981:../reversi8_2019.c **** 	int resultados_correctos13[] = {0, 0, 0, 0, 0, 0, 0, 0};
 4110              		.loc 1 981 0
 4111 2288 0030A0E3 		mov	r3, #0
 4112 228c 34330BE5 		str	r3, [fp, #-820]
 4113 2290 0030A0E3 		mov	r3, #0
 4114 2294 30330BE5 		str	r3, [fp, #-816]
 4115 2298 0030A0E3 		mov	r3, #0
 4116 229c 2C330BE5 		str	r3, [fp, #-812]
 4117 22a0 0030A0E3 		mov	r3, #0
 4118 22a4 28330BE5 		str	r3, [fp, #-808]
 4119 22a8 0030A0E3 		mov	r3, #0
 4120 22ac 24330BE5 		str	r3, [fp, #-804]
 4121 22b0 0030A0E3 		mov	r3, #0
 4122 22b4 20330BE5 		str	r3, [fp, #-800]
 4123 22b8 0030A0E3 		mov	r3, #0
 4124 22bc 1C330BE5 		str	r3, [fp, #-796]
 4125 22c0 0030A0E3 		mov	r3, #0
 4126 22c4 18330BE5 		str	r3, [fp, #-792]
 982:../reversi8_2019.c **** 	int longitudes_correctas13[] = {1, 0, 1, 0, 2, 0, 0, 0};
 4127              		.loc 1 982 0
 4128 22c8 40319FE5 		ldr	r3, .L128+124
 4129 22cc D5CF4BE2 		sub	ip, fp, #852
 4130 22d0 03E0A0E1 		mov	lr, r3
 4131 22d4 0F00BEE8 		ldmia	lr!, {r0, r1, r2, r3}
 4132 22d8 0F00ACE8 		stmia	ip!, {r0, r1, r2, r3}
 4133 22dc 0F009EE8 		ldmia	lr, {r0, r1, r2, r3}
 4134 22e0 0F008CE8 		stmia	ip, {r0, r1, r2, r3}
 983:../reversi8_2019.c **** 	evaluar_patron_volteo(tablero13, 3, 0, FICHA_BLANCA, resultados_correctos13, longitudes_correctas1
 4135              		.loc 1 983 0
 4136 22e4 CD3F4BE2 		sub	r3, fp, #820
 4137 22e8 00308DE5 		str	r3, [sp, #0]
 4138 22ec D53F4BE2 		sub	r3, fp, #852
 4139 22f0 04308DE5 		str	r3, [sp, #4]
 4140 22f4 18019FE5 		ldr	r0, .L128+128
 4141 22f8 0310A0E3 		mov	r1, #3
 4142 22fc 0020A0E3 		mov	r2, #0
 4143 2300 0130A0E3 		mov	r3, #1
 4144 2304 FEFFFFEB 		bl	evaluar_patron_volteo
 984:../reversi8_2019.c **** 
 985:../reversi8_2019.c **** 	// Falsos patrones desde el centro (3,3). Casillas vacías alrededor de los patrones
 986:../reversi8_2019.c **** 	static char __attribute__ ((aligned (8))) tablero14[DIM][DIM] = {
 987:../reversi8_2019.c **** 						{CASILLA_VACIA,CASILLA_VACIA,CASILLA_VACIA,FICHA_NEGRA,CASILLA_VACIA,CASILLA_VACIA,CASILLA_VA
 988:../reversi8_2019.c **** 						{CASILLA_VACIA,CASILLA_VACIA,CASILLA_VACIA,FICHA_NEGRA,CASILLA_VACIA,CASILLA_VACIA,CASILLA_VA
 989:../reversi8_2019.c **** 						{CASILLA_VACIA,FICHA_NEGRA,FICHA_NEGRA,FICHA_NEGRA,CASILLA_VACIA,CASILLA_VACIA,CASILLA_VACIA,
 990:../reversi8_2019.c **** 						{CASILLA_VACIA,CASILLA_VACIA,CASILLA_VACIA,CASILLA_VACIA,FICHA_BLANCA,FICHA_BLANCA,FICHA_BLAN
 991:../reversi8_2019.c **** 						{CASILLA_VACIA,CASILLA_VACIA,FICHA_BLANCA,FICHA_NEGRA,CASILLA_VACIA,CASILLA_VACIA,CASILLA_VAC
 992:../reversi8_2019.c **** 						{CASILLA_VACIA,CASILLA_VACIA,FICHA_BLANCA,CASILLA_VACIA,CASILLA_VACIA,CASILLA_VACIA,CASILLA_V
 993:../reversi8_2019.c **** 						{CASILLA_VACIA,CASILLA_VACIA,CASILLA_VACIA,CASILLA_VACIA,CASILLA_VACIA,CASILLA_VACIA,CASILLA_
 994:../reversi8_2019.c **** 						{CASILLA_VACIA,FICHA_BLANCA,CASILLA_VACIA,CASILLA_VACIA,CASILLA_VACIA,CASILLA_VACIA,CASILLA_V
 995:../reversi8_2019.c **** 					};
 996:../reversi8_2019.c **** 	int resultados_correctos14[] = {0, 0, 0, 0, 0, 0, 0, 0};
 4145              		.loc 1 996 0
 4146 2308 0030A0E3 		mov	r3, #0
 4147 230c 74330BE5 		str	r3, [fp, #-884]
 4148 2310 0030A0E3 		mov	r3, #0
 4149 2314 70330BE5 		str	r3, [fp, #-880]
 4150 2318 0030A0E3 		mov	r3, #0
 4151 231c 6C330BE5 		str	r3, [fp, #-876]
 4152 2320 0030A0E3 		mov	r3, #0
 4153 2324 68330BE5 		str	r3, [fp, #-872]
 4154 2328 0030A0E3 		mov	r3, #0
 4155 232c 64330BE5 		str	r3, [fp, #-868]
 4156 2330 0030A0E3 		mov	r3, #0
 4157 2334 60330BE5 		str	r3, [fp, #-864]
 4158 2338 0030A0E3 		mov	r3, #0
 4159 233c 5C330BE5 		str	r3, [fp, #-860]
 4160 2340 0030A0E3 		mov	r3, #0
 4161 2344 58330BE5 		str	r3, [fp, #-856]
 997:../reversi8_2019.c **** 	int longitudes_correctas14[] = {3, 0, 0, 0, 1, 0, 0, 1};
 4162              		.loc 1 997 0
 4163 2348 C8309FE5 		ldr	r3, .L128+132
 4164 234c E5CF4BE2 		sub	ip, fp, #916
 4165 2350 03E0A0E1 		mov	lr, r3
 4166 2354 0F00BEE8 		ldmia	lr!, {r0, r1, r2, r3}
 4167 2358 0F00ACE8 		stmia	ip!, {r0, r1, r2, r3}
 4168 235c 0F009EE8 		ldmia	lr, {r0, r1, r2, r3}
 4169 2360 0F008CE8 		stmia	ip, {r0, r1, r2, r3}
 998:../reversi8_2019.c **** 	evaluar_patron_volteo(tablero14, 3, 3, FICHA_BLANCA, resultados_correctos14, longitudes_correctas1
 4170              		.loc 1 998 0
 4171 2364 DD3F4BE2 		sub	r3, fp, #884
 4172 2368 00308DE5 		str	r3, [sp, #0]
 4173 236c E53F4BE2 		sub	r3, fp, #916
 4174 2370 04308DE5 		str	r3, [sp, #4]
 4175 2374 A0009FE5 		ldr	r0, .L128+136
 4176 2378 0310A0E3 		mov	r1, #3
 4177 237c 0320A0E3 		mov	r2, #3
 4178 2380 0130A0E3 		mov	r3, #1
 4179 2384 FEFFFFEB 		bl	evaluar_patron_volteo
 999:../reversi8_2019.c **** 
1000:../reversi8_2019.c **** }
 4180              		.loc 1 1000 0
 4181 2388 0CD04BE2 		sub	sp, fp, #12
 4182 238c 00689DE8 		ldmfd	sp, {fp, sp, lr}
 4183 2390 1EFF2FE1 		bx	lr
 4184              	.L129:
 4185              		.align	2
 4186              	.L128:
 4187 2394 50000000 		.word	tableroVacio.4220
 4188 2398 58000000 		.word	C.7.5069
 4189 239c 78000000 		.word	C.8.5070
 4190 23a0 00000000 		.word	tablero1.4230
 4191 23a4 98000000 		.word	C.9.5071
 4192 23a8 B8000000 		.word	C.10.5072
 4193 23ac 40000000 		.word	tablero2.4233
 4194 23b0 D8000000 		.word	C.11.5073
 4195 23b4 F8000000 		.word	C.12.5074
 4196 23b8 80000000 		.word	tablero3.4236
 4197 23bc 18010000 		.word	C.13.5075
 4198 23c0 38010000 		.word	C.14.5076
 4199 23c4 C0000000 		.word	tablero4.4239
 4200 23c8 00010000 		.word	tablero5.4242
 4201 23cc 58010000 		.word	C.15.5077
 4202 23d0 40010000 		.word	tablero6.4245
 4203 23d4 78010000 		.word	C.16.5078
 4204 23d8 80010000 		.word	tablero7.4248
 4205 23dc 98010000 		.word	C.17.5079
 4206 23e0 B8010000 		.word	C.18.5080
 4207 23e4 C0010000 		.word	tablero8.4251
 4208 23e8 D8010000 		.word	C.19.5081
 4209 23ec F8010000 		.word	C.20.5082
 4210 23f0 00020000 		.word	tablero9.4254
 4211 23f4 18020000 		.word	C.21.5083
 4212 23f8 38020000 		.word	C.22.5084
 4213 23fc 40020000 		.word	tablero10.4257
 4214 2400 58020000 		.word	C.23.5085
 4215 2404 78020000 		.word	C.24.5086
 4216 2408 80020000 		.word	tablero11.4260
 4217 240c C0020000 		.word	tablero12.4263
 4218 2410 98020000 		.word	C.25.5087
 4219 2414 00030000 		.word	tablero13.4266
 4220 2418 B8020000 		.word	C.26.5088
 4221 241c 40030000 		.word	tablero14.4269
 4222              		.cfi_endproc
 4223              	.LFE15:
 4225              		.bss
 4226 004b 00000000 		.align	3
 4226      00
 4227              	tableroVacio.4220:
 4228 0050 00000000 		.space	64
 4228      00000000 
 4228      00000000 
 4228      00000000 
 4228      00000000 
 4229              		.section	.rodata
 4230              		.align	2
 4233              	C.7.5069:
 4234 0058 00000000 		.word	0
 4235 005c 00000000 		.word	0
 4236 0060 01000000 		.word	1
 4237 0064 01000000 		.word	1
 4238 0068 01000000 		.word	1
 4239 006c 00000000 		.word	0
 4240 0070 00000000 		.word	0
 4241 0074 00000000 		.word	0
 4242              		.align	2
 4245              	C.8.5070:
 4246 0078 00000000 		.word	0
 4247 007c 00000000 		.word	0
 4248 0080 01000000 		.word	1
 4249 0084 02000000 		.word	2
 4250 0088 06000000 		.word	6
 4251 008c 00000000 		.word	0
 4252 0090 00000000 		.word	0
 4253 0094 00000000 		.word	0
 4254              		.data
 4255              		.align	3
 4258              	tablero1.4230:
 4259 0000 00       		.byte	0
 4260 0001 01       		.byte	1
 4261 0002 02       		.byte	2
 4262 0003 00       		.byte	0
 4263 0004 00       		.byte	0
 4264 0005 00       		.byte	0
 4265 0006 00       		.byte	0
 4266 0007 00       		.byte	0
 4267 0008 01       		.byte	1
 4268 0009 01       		.byte	1
 4269 000a 00       		.byte	0
 4270 000b 00       		.byte	0
 4271 000c 00       		.byte	0
 4272 000d 00       		.byte	0
 4273 000e 00       		.byte	0
 4274 000f 00       		.byte	0
 4275 0010 01       		.byte	1
 4276 0011 00       		.byte	0
 4277 0012 01       		.byte	1
 4278 0013 00       		.byte	0
 4279 0014 00       		.byte	0
 4280 0015 00       		.byte	0
 4281 0016 00       		.byte	0
 4282 0017 00       		.byte	0
 4283 0018 01       		.byte	1
 4284 0019 00       		.byte	0
 4285 001a 00       		.byte	0
 4286 001b 02       		.byte	2
 4287 001c 00       		.byte	0
 4288 001d 00       		.byte	0
 4289 001e 00       		.byte	0
 4290 001f 00       		.byte	0
 4291 0020 01       		.byte	1
 4292 0021 00       		.byte	0
 4293 0022 00       		.byte	0
 4294 0023 00       		.byte	0
 4295 0024 00       		.byte	0
 4296 0025 00       		.byte	0
 4297 0026 00       		.byte	0
 4298 0027 00       		.byte	0
 4299 0028 01       		.byte	1
 4300 0029 00       		.byte	0
 4301 002a 00       		.byte	0
 4302 002b 00       		.byte	0
 4303 002c 00       		.byte	0
 4304 002d 00       		.byte	0
 4305 002e 00       		.byte	0
 4306 002f 00       		.byte	0
 4307 0030 01       		.byte	1
 4308 0031 00       		.byte	0
 4309 0032 00       		.byte	0
 4310 0033 00       		.byte	0
 4311 0034 00       		.byte	0
 4312 0035 00       		.byte	0
 4313 0036 00       		.byte	0
 4314 0037 00       		.byte	0
 4315 0038 02       		.byte	2
 4316 0039 00       		.byte	0
 4317 003a 00       		.byte	0
 4318 003b 00       		.byte	0
 4319 003c 00       		.byte	0
 4320 003d 00       		.byte	0
 4321 003e 00       		.byte	0
 4322 003f 00       		.byte	0
 4323              		.section	.rodata
 4324              		.align	2
 4327              	C.9.5071:
 4328 0098 01000000 		.word	1
 4329 009c 01000000 		.word	1
 4330 00a0 01000000 		.word	1
 4331 00a4 01000000 		.word	1
 4332 00a8 01000000 		.word	1
 4333 00ac 00000000 		.word	0
 4334 00b0 00000000 		.word	0
 4335 00b4 00000000 		.word	0
 4336              		.align	2
 4339              	C.10.5072:
 4340 00b8 01000000 		.word	1
 4341 00bc 02000000 		.word	2
 4342 00c0 06000000 		.word	6
 4343 00c4 01000000 		.word	1
 4344 00c8 02000000 		.word	2
 4345 00cc 00000000 		.word	0
 4346 00d0 00000000 		.word	0
 4347 00d4 00000000 		.word	0
 4348              		.data
 4349              		.align	3
 4352              	tablero2.4233:
 4353 0040 00       		.byte	0
 4354 0041 00       		.byte	0
 4355 0042 00       		.byte	0
 4356 0043 02       		.byte	2
 4357 0044 00       		.byte	0
 4358 0045 00       		.byte	0
 4359 0046 00       		.byte	0
 4360 0047 00       		.byte	0
 4361 0048 02       		.byte	2
 4362 0049 00       		.byte	0
 4363 004a 01       		.byte	1
 4364 004b 00       		.byte	0
 4365 004c 00       		.byte	0
 4366 004d 00       		.byte	0
 4367 004e 00       		.byte	0
 4368 004f 00       		.byte	0
 4369 0050 01       		.byte	1
 4370 0051 01       		.byte	1
 4371 0052 00       		.byte	0
 4372 0053 00       		.byte	0
 4373 0054 00       		.byte	0
 4374 0055 00       		.byte	0
 4375 0056 00       		.byte	0
 4376 0057 00       		.byte	0
 4377 0058 00       		.byte	0
 4378 0059 01       		.byte	1
 4379 005a 01       		.byte	1
 4380 005b 01       		.byte	1
 4381 005c 01       		.byte	1
 4382 005d 01       		.byte	1
 4383 005e 01       		.byte	1
 4384 005f 02       		.byte	2
 4385 0060 01       		.byte	1
 4386 0061 01       		.byte	1
 4387 0062 00       		.byte	0
 4388 0063 00       		.byte	0
 4389 0064 00       		.byte	0
 4390 0065 00       		.byte	0
 4391 0066 00       		.byte	0
 4392 0067 00       		.byte	0
 4393 0068 01       		.byte	1
 4394 0069 00       		.byte	0
 4395 006a 02       		.byte	2
 4396 006b 00       		.byte	0
 4397 006c 00       		.byte	0
 4398 006d 00       		.byte	0
 4399 006e 00       		.byte	0
 4400 006f 00       		.byte	0
 4401 0070 02       		.byte	2
 4402 0071 00       		.byte	0
 4403 0072 00       		.byte	0
 4404 0073 00       		.byte	0
 4405 0074 00       		.byte	0
 4406 0075 00       		.byte	0
 4407 0076 00       		.byte	0
 4408 0077 00       		.byte	0
 4409 0078 00       		.byte	0
 4410 0079 00       		.byte	0
 4411 007a 00       		.byte	0
 4412 007b 00       		.byte	0
 4413 007c 00       		.byte	0
 4414 007d 00       		.byte	0
 4415 007e 00       		.byte	0
 4416 007f 00       		.byte	0
 4417              		.section	.rodata
 4418              		.align	2
 4421              	C.11.5073:
 4422 00d8 00000000 		.word	0
 4423 00dc 01000000 		.word	1
 4424 00e0 01000000 		.word	1
 4425 00e4 01000000 		.word	1
 4426 00e8 01000000 		.word	1
 4427 00ec 01000000 		.word	1
 4428 00f0 01000000 		.word	1
 4429 00f4 01000000 		.word	1
 4430              		.align	2
 4433              	C.12.5074:
 4434 00f8 00000000 		.word	0
 4435 00fc 02000000 		.word	2
 4436 0100 01000000 		.word	1
 4437 0104 03000000 		.word	3
 4438 0108 02000000 		.word	2
 4439 010c 01000000 		.word	1
 4440 0110 02000000 		.word	2
 4441 0114 02000000 		.word	2
 4442              		.data
 4443              		.align	3
 4446              	tablero3.4236:
 4447 0080 02       		.byte	2
 4448 0081 00       		.byte	0
 4449 0082 00       		.byte	0
 4450 0083 00       		.byte	0
 4451 0084 00       		.byte	0
 4452 0085 00       		.byte	0
 4453 0086 02       		.byte	2
 4454 0087 00       		.byte	0
 4455 0088 00       		.byte	0
 4456 0089 01       		.byte	1
 4457 008a 00       		.byte	0
 4458 008b 01       		.byte	1
 4459 008c 00       		.byte	0
 4460 008d 01       		.byte	1
 4461 008e 00       		.byte	0
 4462 008f 00       		.byte	0
 4463 0090 00       		.byte	0
 4464 0091 00       		.byte	0
 4465 0092 01       		.byte	1
 4466 0093 02       		.byte	2
 4467 0094 01       		.byte	1
 4468 0095 00       		.byte	0
 4469 0096 00       		.byte	0
 4470 0097 00       		.byte	0
 4471 0098 02       		.byte	2
 4472 0099 01       		.byte	1
 4473 009a 01       		.byte	1
 4474 009b 00       		.byte	0
 4475 009c 01       		.byte	1
 4476 009d 02       		.byte	2
 4477 009e 00       		.byte	0
 4478 009f 00       		.byte	0
 4479 00a0 00       		.byte	0
 4480 00a1 00       		.byte	0
 4481 00a2 01       		.byte	1
 4482 00a3 01       		.byte	1
 4483 00a4 01       		.byte	1
 4484 00a5 00       		.byte	0
 4485 00a6 00       		.byte	0
 4486 00a7 00       		.byte	0
 4487 00a8 00       		.byte	0
 4488 00a9 02       		.byte	2
 4489 00aa 00       		.byte	0
 4490 00ab 01       		.byte	1
 4491 00ac 00       		.byte	0
 4492 00ad 01       		.byte	1
 4493 00ae 00       		.byte	0
 4494 00af 00       		.byte	0
 4495 00b0 00       		.byte	0
 4496 00b1 00       		.byte	0
 4497 00b2 00       		.byte	0
 4498 00b3 02       		.byte	2
 4499 00b4 00       		.byte	0
 4500 00b5 00       		.byte	0
 4501 00b6 01       		.byte	1
 4502 00b7 00       		.byte	0
 4503 00b8 00       		.byte	0
 4504 00b9 00       		.byte	0
 4505 00ba 00       		.byte	0
 4506 00bb 00       		.byte	0
 4507 00bc 00       		.byte	0
 4508 00bd 00       		.byte	0
 4509 00be 00       		.byte	0
 4510 00bf 02       		.byte	2
 4511              		.section	.rodata
 4512              		.align	2
 4515              	C.13.5075:
 4516 0118 00000000 		.word	0
 4517 011c 01000000 		.word	1
 4518 0120 01000000 		.word	1
 4519 0124 01000000 		.word	1
 4520 0128 01000000 		.word	1
 4521 012c 01000000 		.word	1
 4522 0130 01000000 		.word	1
 4523 0134 01000000 		.word	1
 4524              		.align	2
 4527              	C.14.5076:
 4528 0138 00000000 		.word	0
 4529 013c 02000000 		.word	2
 4530 0140 01000000 		.word	1
 4531 0144 03000000 		.word	3
 4532 0148 02000000 		.word	2
 4533 014c 01000000 		.word	1
 4534 0150 02000000 		.word	2
 4535 0154 02000000 		.word	2
 4536              		.data
 4537              		.align	3
 4540              	tablero4.4239:
 4541 00c0 02       		.byte	2
 4542 00c1 01       		.byte	1
 4543 00c2 02       		.byte	2
 4544 00c3 01       		.byte	1
 4545 00c4 02       		.byte	2
 4546 00c5 02       		.byte	2
 4547 00c6 02       		.byte	2
 4548 00c7 01       		.byte	1
 4549 00c8 02       		.byte	2
 4550 00c9 01       		.byte	1
 4551 00ca 01       		.byte	1
 4552 00cb 01       		.byte	1
 4553 00cc 01       		.byte	1
 4554 00cd 01       		.byte	1
 4555 00ce 01       		.byte	1
 4556 00cf 01       		.byte	1
 4557 00d0 02       		.byte	2
 4558 00d1 01       		.byte	1
 4559 00d2 01       		.byte	1
 4560 00d3 02       		.byte	2
 4561 00d4 01       		.byte	1
 4562 00d5 01       		.byte	1
 4563 00d6 01       		.byte	1
 4564 00d7 01       		.byte	1
 4565 00d8 02       		.byte	2
 4566 00d9 01       		.byte	1
 4567 00da 01       		.byte	1
 4568 00db 00       		.byte	0
 4569 00dc 01       		.byte	1
 4570 00dd 02       		.byte	2
 4571 00de 02       		.byte	2
 4572 00df 01       		.byte	1
 4573 00e0 01       		.byte	1
 4574 00e1 01       		.byte	1
 4575 00e2 01       		.byte	1
 4576 00e3 01       		.byte	1
 4577 00e4 01       		.byte	1
 4578 00e5 01       		.byte	1
 4579 00e6 01       		.byte	1
 4580 00e7 01       		.byte	1
 4581 00e8 01       		.byte	1
 4582 00e9 02       		.byte	2
 4583 00ea 01       		.byte	1
 4584 00eb 01       		.byte	1
 4585 00ec 01       		.byte	1
 4586 00ed 01       		.byte	1
 4587 00ee 01       		.byte	1
 4588 00ef 01       		.byte	1
 4589 00f0 02       		.byte	2
 4590 00f1 01       		.byte	1
 4591 00f2 02       		.byte	2
 4592 00f3 02       		.byte	2
 4593 00f4 01       		.byte	1
 4594 00f5 01       		.byte	1
 4595 00f6 01       		.byte	1
 4596 00f7 01       		.byte	1
 4597 00f8 01       		.byte	1
 4598 00f9 02       		.byte	2
 4599 00fa 02       		.byte	2
 4600 00fb 02       		.byte	2
 4601 00fc 01       		.byte	1
 4602 00fd 02       		.byte	2
 4603 00fe 02       		.byte	2
 4604 00ff 02       		.byte	2
 4605              		.align	3
 4608              	tablero5.4242:
 4609 0100 00       		.byte	0
 4610 0101 02       		.byte	2
 4611 0102 01       		.byte	1
 4612 0103 01       		.byte	1
 4613 0104 01       		.byte	1
 4614 0105 00       		.byte	0
 4615 0106 00       		.byte	0
 4616 0107 00       		.byte	0
 4617 0108 01       		.byte	1
 4618 0109 00       		.byte	0
 4619 010a 00       		.byte	0
 4620 010b 00       		.byte	0
 4621 010c 00       		.byte	0
 4622 010d 00       		.byte	0
 4623 010e 00       		.byte	0
 4624 010f 00       		.byte	0
 4625 0110 01       		.byte	1
 4626 0111 00       		.byte	0
 4627 0112 00       		.byte	0
 4628 0113 00       		.byte	0
 4629 0114 00       		.byte	0
 4630 0115 00       		.byte	0
 4631 0116 00       		.byte	0
 4632 0117 00       		.byte	0
 4633 0118 01       		.byte	1
 4634 0119 00       		.byte	0
 4635 011a 00       		.byte	0
 4636 011b 00       		.byte	0
 4637 011c 00       		.byte	0
 4638 011d 00       		.byte	0
 4639 011e 00       		.byte	0
 4640 011f 00       		.byte	0
 4641 0120 01       		.byte	1
 4642 0121 00       		.byte	0
 4643 0122 00       		.byte	0
 4644 0123 00       		.byte	0
 4645 0124 00       		.byte	0
 4646 0125 00       		.byte	0
 4647 0126 00       		.byte	0
 4648 0127 00       		.byte	0
 4649 0128 01       		.byte	1
 4650 0129 00       		.byte	0
 4651 012a 00       		.byte	0
 4652 012b 00       		.byte	0
 4653 012c 00       		.byte	0
 4654 012d 00       		.byte	0
 4655 012e 00       		.byte	0
 4656 012f 00       		.byte	0
 4657 0130 01       		.byte	1
 4658 0131 00       		.byte	0
 4659 0132 00       		.byte	0
 4660 0133 00       		.byte	0
 4661 0134 00       		.byte	0
 4662 0135 00       		.byte	0
 4663 0136 00       		.byte	0
 4664 0137 00       		.byte	0
 4665 0138 01       		.byte	1
 4666 0139 00       		.byte	0
 4667 013a 00       		.byte	0
 4668 013b 00       		.byte	0
 4669 013c 00       		.byte	0
 4670 013d 00       		.byte	0
 4671 013e 00       		.byte	0
 4672 013f 00       		.byte	0
 4673              		.section	.rodata
 4674              		.align	2
 4677              	C.15.5077:
 4678 0158 01000000 		.word	1
 4679 015c 00000000 		.word	0
 4680 0160 01000000 		.word	1
 4681 0164 00000000 		.word	0
 4682 0168 02000000 		.word	2
 4683 016c 00000000 		.word	0
 4684 0170 00000000 		.word	0
 4685 0174 00000000 		.word	0
 4686              		.data
 4687              		.align	3
 4690              	tablero6.4245:
 4691 0140 00       		.byte	0
 4692 0141 00       		.byte	0
 4693 0142 00       		.byte	0
 4694 0143 00       		.byte	0
 4695 0144 00       		.byte	0
 4696 0145 00       		.byte	0
 4697 0146 00       		.byte	0
 4698 0147 00       		.byte	0
 4699 0148 00       		.byte	0
 4700 0149 00       		.byte	0
 4701 014a 00       		.byte	0
 4702 014b 00       		.byte	0
 4703 014c 00       		.byte	0
 4704 014d 00       		.byte	0
 4705 014e 00       		.byte	0
 4706 014f 00       		.byte	0
 4707 0150 01       		.byte	1
 4708 0151 02       		.byte	2
 4709 0152 00       		.byte	0
 4710 0153 00       		.byte	0
 4711 0154 00       		.byte	0
 4712 0155 00       		.byte	0
 4713 0156 00       		.byte	0
 4714 0157 00       		.byte	0
 4715 0158 00       		.byte	0
 4716 0159 01       		.byte	1
 4717 015a 00       		.byte	0
 4718 015b 00       		.byte	0
 4719 015c 00       		.byte	0
 4720 015d 00       		.byte	0
 4721 015e 00       		.byte	0
 4722 015f 00       		.byte	0
 4723 0160 01       		.byte	1
 4724 0161 00       		.byte	0
 4725 0162 00       		.byte	0
 4726 0163 00       		.byte	0
 4727 0164 00       		.byte	0
 4728 0165 00       		.byte	0
 4729 0166 00       		.byte	0
 4730 0167 00       		.byte	0
 4731 0168 01       		.byte	1
 4732 0169 00       		.byte	0
 4733 016a 00       		.byte	0
 4734 016b 00       		.byte	0
 4735 016c 00       		.byte	0
 4736 016d 00       		.byte	0
 4737 016e 00       		.byte	0
 4738 016f 00       		.byte	0
 4739 0170 00       		.byte	0
 4740 0171 00       		.byte	0
 4741 0172 00       		.byte	0
 4742 0173 00       		.byte	0
 4743 0174 00       		.byte	0
 4744 0175 00       		.byte	0
 4745 0176 00       		.byte	0
 4746 0177 00       		.byte	0
 4747 0178 00       		.byte	0
 4748 0179 00       		.byte	0
 4749 017a 00       		.byte	0
 4750 017b 00       		.byte	0
 4751 017c 00       		.byte	0
 4752 017d 00       		.byte	0
 4753 017e 00       		.byte	0
 4754 017f 00       		.byte	0
 4755              		.section	.rodata
 4756              		.align	2
 4759              	C.16.5078:
 4760 0178 03000000 		.word	3
 4761 017c 00000000 		.word	0
 4762 0180 00000000 		.word	0
 4763 0184 00000000 		.word	0
 4764 0188 01000000 		.word	1
 4765 018c 00000000 		.word	0
 4766 0190 00000000 		.word	0
 4767 0194 01000000 		.word	1
 4768              		.data
 4769              		.align	3
 4772              	tablero7.4248:
 4773 0180 00       		.byte	0
 4774 0181 00       		.byte	0
 4775 0182 00       		.byte	0
 4776 0183 01       		.byte	1
 4777 0184 00       		.byte	0
 4778 0185 00       		.byte	0
 4779 0186 00       		.byte	0
 4780 0187 00       		.byte	0
 4781 0188 00       		.byte	0
 4782 0189 00       		.byte	0
 4783 018a 00       		.byte	0
 4784 018b 01       		.byte	1
 4785 018c 00       		.byte	0
 4786 018d 00       		.byte	0
 4787 018e 00       		.byte	0
 4788 018f 00       		.byte	0
 4789 0190 00       		.byte	0
 4790 0191 01       		.byte	1
 4791 0192 01       		.byte	1
 4792 0193 01       		.byte	1
 4793 0194 00       		.byte	0
 4794 0195 00       		.byte	0
 4795 0196 00       		.byte	0
 4796 0197 00       		.byte	0
 4797 0198 00       		.byte	0
 4798 0199 00       		.byte	0
 4799 019a 00       		.byte	0
 4800 019b 00       		.byte	0
 4801 019c 02       		.byte	2
 4802 019d 02       		.byte	2
 4803 019e 02       		.byte	2
 4804 019f 02       		.byte	2
 4805 01a0 00       		.byte	0
 4806 01a1 00       		.byte	0
 4807 01a2 02       		.byte	2
 4808 01a3 01       		.byte	1
 4809 01a4 00       		.byte	0
 4810 01a5 00       		.byte	0
 4811 01a6 00       		.byte	0
 4812 01a7 00       		.byte	0
 4813 01a8 00       		.byte	0
 4814 01a9 00       		.byte	0
 4815 01aa 02       		.byte	2
 4816 01ab 00       		.byte	0
 4817 01ac 00       		.byte	0
 4818 01ad 00       		.byte	0
 4819 01ae 00       		.byte	0
 4820 01af 00       		.byte	0
 4821 01b0 00       		.byte	0
 4822 01b1 00       		.byte	0
 4823 01b2 00       		.byte	0
 4824 01b3 00       		.byte	0
 4825 01b4 00       		.byte	0
 4826 01b5 00       		.byte	0
 4827 01b6 00       		.byte	0
 4828 01b7 00       		.byte	0
 4829 01b8 00       		.byte	0
 4830 01b9 02       		.byte	2
 4831 01ba 00       		.byte	0
 4832 01bb 00       		.byte	0
 4833 01bc 00       		.byte	0
 4834 01bd 00       		.byte	0
 4835 01be 00       		.byte	0
 4836 01bf 00       		.byte	0
 4837              		.section	.rodata
 4838              		.align	2
 4841              	C.17.5079:
 4842 0198 00000000 		.word	0
 4843 019c 00000000 		.word	0
 4844 01a0 01000000 		.word	1
 4845 01a4 01000000 		.word	1
 4846 01a8 01000000 		.word	1
 4847 01ac 00000000 		.word	0
 4848 01b0 00000000 		.word	0
 4849 01b4 00000000 		.word	0
 4850              		.align	2
 4853              	C.18.5080:
 4854 01b8 00000000 		.word	0
 4855 01bc 00000000 		.word	0
 4856 01c0 01000000 		.word	1
 4857 01c4 02000000 		.word	2
 4858 01c8 06000000 		.word	6
 4859 01cc 00000000 		.word	0
 4860 01d0 00000000 		.word	0
 4861 01d4 00000000 		.word	0
 4862              		.data
 4863              		.align	3
 4866              	tablero8.4251:
 4867 01c0 00       		.byte	0
 4868 01c1 02       		.byte	2
 4869 01c2 01       		.byte	1
 4870 01c3 00       		.byte	0
 4871 01c4 00       		.byte	0
 4872 01c5 00       		.byte	0
 4873 01c6 00       		.byte	0
 4874 01c7 00       		.byte	0
 4875 01c8 02       		.byte	2
 4876 01c9 02       		.byte	2
 4877 01ca 00       		.byte	0
 4878 01cb 00       		.byte	0
 4879 01cc 00       		.byte	0
 4880 01cd 00       		.byte	0
 4881 01ce 00       		.byte	0
 4882 01cf 00       		.byte	0
 4883 01d0 02       		.byte	2
 4884 01d1 00       		.byte	0
 4885 01d2 02       		.byte	2
 4886 01d3 00       		.byte	0
 4887 01d4 00       		.byte	0
 4888 01d5 00       		.byte	0
 4889 01d6 00       		.byte	0
 4890 01d7 00       		.byte	0
 4891 01d8 02       		.byte	2
 4892 01d9 00       		.byte	0
 4893 01da 00       		.byte	0
 4894 01db 01       		.byte	1
 4895 01dc 00       		.byte	0
 4896 01dd 00       		.byte	0
 4897 01de 00       		.byte	0
 4898 01df 00       		.byte	0
 4899 01e0 02       		.byte	2
 4900 01e1 00       		.byte	0
 4901 01e2 00       		.byte	0
 4902 01e3 00       		.byte	0
 4903 01e4 00       		.byte	0
 4904 01e5 00       		.byte	0
 4905 01e6 00       		.byte	0
 4906 01e7 00       		.byte	0
 4907 01e8 02       		.byte	2
 4908 01e9 00       		.byte	0
 4909 01ea 00       		.byte	0
 4910 01eb 00       		.byte	0
 4911 01ec 00       		.byte	0
 4912 01ed 00       		.byte	0
 4913 01ee 00       		.byte	0
 4914 01ef 00       		.byte	0
 4915 01f0 02       		.byte	2
 4916 01f1 00       		.byte	0
 4917 01f2 00       		.byte	0
 4918 01f3 00       		.byte	0
 4919 01f4 00       		.byte	0
 4920 01f5 00       		.byte	0
 4921 01f6 00       		.byte	0
 4922 01f7 00       		.byte	0
 4923 01f8 01       		.byte	1
 4924 01f9 00       		.byte	0
 4925 01fa 00       		.byte	0
 4926 01fb 00       		.byte	0
 4927 01fc 00       		.byte	0
 4928 01fd 00       		.byte	0
 4929 01fe 00       		.byte	0
 4930 01ff 00       		.byte	0
 4931              		.section	.rodata
 4932              		.align	2
 4935              	C.19.5081:
 4936 01d8 01000000 		.word	1
 4937 01dc 01000000 		.word	1
 4938 01e0 01000000 		.word	1
 4939 01e4 01000000 		.word	1
 4940 01e8 01000000 		.word	1
 4941 01ec 00000000 		.word	0
 4942 01f0 00000000 		.word	0
 4943 01f4 00000000 		.word	0
 4944              		.align	2
 4947              	C.20.5082:
 4948 01f8 01000000 		.word	1
 4949 01fc 02000000 		.word	2
 4950 0200 06000000 		.word	6
 4951 0204 01000000 		.word	1
 4952 0208 02000000 		.word	2
 4953 020c 00000000 		.word	0
 4954 0210 00000000 		.word	0
 4955 0214 00000000 		.word	0
 4956              		.data
 4957              		.align	3
 4960              	tablero9.4254:
 4961 0200 00       		.byte	0
 4962 0201 00       		.byte	0
 4963 0202 00       		.byte	0
 4964 0203 01       		.byte	1
 4965 0204 00       		.byte	0
 4966 0205 00       		.byte	0
 4967 0206 00       		.byte	0
 4968 0207 00       		.byte	0
 4969 0208 01       		.byte	1
 4970 0209 00       		.byte	0
 4971 020a 02       		.byte	2
 4972 020b 00       		.byte	0
 4973 020c 00       		.byte	0
 4974 020d 00       		.byte	0
 4975 020e 00       		.byte	0
 4976 020f 00       		.byte	0
 4977 0210 02       		.byte	2
 4978 0211 02       		.byte	2
 4979 0212 00       		.byte	0
 4980 0213 00       		.byte	0
 4981 0214 00       		.byte	0
 4982 0215 00       		.byte	0
 4983 0216 00       		.byte	0
 4984 0217 00       		.byte	0
 4985 0218 00       		.byte	0
 4986 0219 02       		.byte	2
 4987 021a 02       		.byte	2
 4988 021b 02       		.byte	2
 4989 021c 02       		.byte	2
 4990 021d 02       		.byte	2
 4991 021e 02       		.byte	2
 4992 021f 01       		.byte	1
 4993 0220 02       		.byte	2
 4994 0221 02       		.byte	2
 4995 0222 00       		.byte	0
 4996 0223 00       		.byte	0
 4997 0224 00       		.byte	0
 4998 0225 00       		.byte	0
 4999 0226 00       		.byte	0
 5000 0227 00       		.byte	0
 5001 0228 02       		.byte	2
 5002 0229 00       		.byte	0
 5003 022a 01       		.byte	1
 5004 022b 00       		.byte	0
 5005 022c 00       		.byte	0
 5006 022d 00       		.byte	0
 5007 022e 00       		.byte	0
 5008 022f 00       		.byte	0
 5009 0230 01       		.byte	1
 5010 0231 00       		.byte	0
 5011 0232 00       		.byte	0
 5012 0233 00       		.byte	0
 5013 0234 00       		.byte	0
 5014 0235 00       		.byte	0
 5015 0236 00       		.byte	0
 5016 0237 00       		.byte	0
 5017 0238 00       		.byte	0
 5018 0239 00       		.byte	0
 5019 023a 00       		.byte	0
 5020 023b 00       		.byte	0
 5021 023c 00       		.byte	0
 5022 023d 00       		.byte	0
 5023 023e 00       		.byte	0
 5024 023f 00       		.byte	0
 5025              		.section	.rodata
 5026              		.align	2
 5029              	C.21.5083:
 5030 0218 00000000 		.word	0
 5031 021c 01000000 		.word	1
 5032 0220 01000000 		.word	1
 5033 0224 01000000 		.word	1
 5034 0228 01000000 		.word	1
 5035 022c 01000000 		.word	1
 5036 0230 01000000 		.word	1
 5037 0234 01000000 		.word	1
 5038              		.align	2
 5041              	C.22.5084:
 5042 0238 00000000 		.word	0
 5043 023c 02000000 		.word	2
 5044 0240 01000000 		.word	1
 5045 0244 03000000 		.word	3
 5046 0248 02000000 		.word	2
 5047 024c 01000000 		.word	1
 5048 0250 02000000 		.word	2
 5049 0254 02000000 		.word	2
 5050              		.data
 5051              		.align	3
 5054              	tablero10.4257:
 5055 0240 01       		.byte	1
 5056 0241 00       		.byte	0
 5057 0242 00       		.byte	0
 5058 0243 00       		.byte	0
 5059 0244 00       		.byte	0
 5060 0245 00       		.byte	0
 5061 0246 01       		.byte	1
 5062 0247 00       		.byte	0
 5063 0248 00       		.byte	0
 5064 0249 02       		.byte	2
 5065 024a 00       		.byte	0
 5066 024b 02       		.byte	2
 5067 024c 00       		.byte	0
 5068 024d 02       		.byte	2
 5069 024e 00       		.byte	0
 5070 024f 00       		.byte	0
 5071 0250 00       		.byte	0
 5072 0251 00       		.byte	0
 5073 0252 02       		.byte	2
 5074 0253 01       		.byte	1
 5075 0254 02       		.byte	2
 5076 0255 00       		.byte	0
 5077 0256 00       		.byte	0
 5078 0257 00       		.byte	0
 5079 0258 01       		.byte	1
 5080 0259 02       		.byte	2
 5081 025a 02       		.byte	2
 5082 025b 00       		.byte	0
 5083 025c 02       		.byte	2
 5084 025d 01       		.byte	1
 5085 025e 00       		.byte	0
 5086 025f 00       		.byte	0
 5087 0260 00       		.byte	0
 5088 0261 00       		.byte	0
 5089 0262 02       		.byte	2
 5090 0263 02       		.byte	2
 5091 0264 02       		.byte	2
 5092 0265 00       		.byte	0
 5093 0266 00       		.byte	0
 5094 0267 00       		.byte	0
 5095 0268 00       		.byte	0
 5096 0269 01       		.byte	1
 5097 026a 00       		.byte	0
 5098 026b 02       		.byte	2
 5099 026c 00       		.byte	0
 5100 026d 02       		.byte	2
 5101 026e 00       		.byte	0
 5102 026f 00       		.byte	0
 5103 0270 00       		.byte	0
 5104 0271 00       		.byte	0
 5105 0272 00       		.byte	0
 5106 0273 01       		.byte	1
 5107 0274 00       		.byte	0
 5108 0275 00       		.byte	0
 5109 0276 02       		.byte	2
 5110 0277 00       		.byte	0
 5111 0278 00       		.byte	0
 5112 0279 00       		.byte	0
 5113 027a 00       		.byte	0
 5114 027b 00       		.byte	0
 5115 027c 00       		.byte	0
 5116 027d 00       		.byte	0
 5117 027e 00       		.byte	0
 5118 027f 01       		.byte	1
 5119              		.section	.rodata
 5120              		.align	2
 5123              	C.23.5085:
 5124 0258 00000000 		.word	0
 5125 025c 01000000 		.word	1
 5126 0260 01000000 		.word	1
 5127 0264 01000000 		.word	1
 5128 0268 01000000 		.word	1
 5129 026c 01000000 		.word	1
 5130 0270 01000000 		.word	1
 5131 0274 01000000 		.word	1
 5132              		.align	2
 5135              	C.24.5086:
 5136 0278 00000000 		.word	0
 5137 027c 02000000 		.word	2
 5138 0280 01000000 		.word	1
 5139 0284 03000000 		.word	3
 5140 0288 02000000 		.word	2
 5141 028c 01000000 		.word	1
 5142 0290 02000000 		.word	2
 5143 0294 02000000 		.word	2
 5144              		.data
 5145              		.align	3
 5148              	tablero11.4260:
 5149 0280 01       		.byte	1
 5150 0281 02       		.byte	2
 5151 0282 01       		.byte	1
 5152 0283 02       		.byte	2
 5153 0284 01       		.byte	1
 5154 0285 01       		.byte	1
 5155 0286 01       		.byte	1
 5156 0287 02       		.byte	2
 5157 0288 01       		.byte	1
 5158 0289 02       		.byte	2
 5159 028a 02       		.byte	2
 5160 028b 02       		.byte	2
 5161 028c 02       		.byte	2
 5162 028d 02       		.byte	2
 5163 028e 02       		.byte	2
 5164 028f 02       		.byte	2
 5165 0290 01       		.byte	1
 5166 0291 02       		.byte	2
 5167 0292 02       		.byte	2
 5168 0293 01       		.byte	1
 5169 0294 02       		.byte	2
 5170 0295 02       		.byte	2
 5171 0296 02       		.byte	2
 5172 0297 02       		.byte	2
 5173 0298 01       		.byte	1
 5174 0299 02       		.byte	2
 5175 029a 02       		.byte	2
 5176 029b 00       		.byte	0
 5177 029c 02       		.byte	2
 5178 029d 01       		.byte	1
 5179 029e 01       		.byte	1
 5180 029f 02       		.byte	2
 5181 02a0 02       		.byte	2
 5182 02a1 02       		.byte	2
 5183 02a2 02       		.byte	2
 5184 02a3 02       		.byte	2
 5185 02a4 02       		.byte	2
 5186 02a5 02       		.byte	2
 5187 02a6 02       		.byte	2
 5188 02a7 02       		.byte	2
 5189 02a8 02       		.byte	2
 5190 02a9 01       		.byte	1
 5191 02aa 02       		.byte	2
 5192 02ab 02       		.byte	2
 5193 02ac 02       		.byte	2
 5194 02ad 02       		.byte	2
 5195 02ae 02       		.byte	2
 5196 02af 02       		.byte	2
 5197 02b0 01       		.byte	1
 5198 02b1 02       		.byte	2
 5199 02b2 01       		.byte	1
 5200 02b3 01       		.byte	1
 5201 02b4 02       		.byte	2
 5202 02b5 02       		.byte	2
 5203 02b6 02       		.byte	2
 5204 02b7 02       		.byte	2
 5205 02b8 02       		.byte	2
 5206 02b9 01       		.byte	1
 5207 02ba 01       		.byte	1
 5208 02bb 01       		.byte	1
 5209 02bc 02       		.byte	2
 5210 02bd 01       		.byte	1
 5211 02be 01       		.byte	1
 5212 02bf 01       		.byte	1
 5213              		.align	3
 5216              	tablero12.4263:
 5217 02c0 00       		.byte	0
 5218 02c1 01       		.byte	1
 5219 02c2 02       		.byte	2
 5220 02c3 02       		.byte	2
 5221 02c4 02       		.byte	2
 5222 02c5 00       		.byte	0
 5223 02c6 00       		.byte	0
 5224 02c7 00       		.byte	0
 5225 02c8 02       		.byte	2
 5226 02c9 00       		.byte	0
 5227 02ca 00       		.byte	0
 5228 02cb 00       		.byte	0
 5229 02cc 00       		.byte	0
 5230 02cd 00       		.byte	0
 5231 02ce 00       		.byte	0
 5232 02cf 00       		.byte	0
 5233 02d0 02       		.byte	2
 5234 02d1 00       		.byte	0
 5235 02d2 00       		.byte	0
 5236 02d3 00       		.byte	0
 5237 02d4 00       		.byte	0
 5238 02d5 00       		.byte	0
 5239 02d6 00       		.byte	0
 5240 02d7 00       		.byte	0
 5241 02d8 02       		.byte	2
 5242 02d9 00       		.byte	0
 5243 02da 00       		.byte	0
 5244 02db 00       		.byte	0
 5245 02dc 00       		.byte	0
 5246 02dd 00       		.byte	0
 5247 02de 00       		.byte	0
 5248 02df 00       		.byte	0
 5249 02e0 02       		.byte	2
 5250 02e1 00       		.byte	0
 5251 02e2 00       		.byte	0
 5252 02e3 00       		.byte	0
 5253 02e4 00       		.byte	0
 5254 02e5 00       		.byte	0
 5255 02e6 00       		.byte	0
 5256 02e7 00       		.byte	0
 5257 02e8 02       		.byte	2
 5258 02e9 00       		.byte	0
 5259 02ea 00       		.byte	0
 5260 02eb 00       		.byte	0
 5261 02ec 00       		.byte	0
 5262 02ed 00       		.byte	0
 5263 02ee 00       		.byte	0
 5264 02ef 00       		.byte	0
 5265 02f0 02       		.byte	2
 5266 02f1 00       		.byte	0
 5267 02f2 00       		.byte	0
 5268 02f3 00       		.byte	0
 5269 02f4 00       		.byte	0
 5270 02f5 00       		.byte	0
 5271 02f6 00       		.byte	0
 5272 02f7 00       		.byte	0
 5273 02f8 02       		.byte	2
 5274 02f9 00       		.byte	0
 5275 02fa 00       		.byte	0
 5276 02fb 00       		.byte	0
 5277 02fc 00       		.byte	0
 5278 02fd 00       		.byte	0
 5279 02fe 00       		.byte	0
 5280 02ff 00       		.byte	0
 5281              		.section	.rodata
 5282              		.align	2
 5285              	C.25.5087:
 5286 0298 01000000 		.word	1
 5287 029c 00000000 		.word	0
 5288 02a0 01000000 		.word	1
 5289 02a4 00000000 		.word	0
 5290 02a8 02000000 		.word	2
 5291 02ac 00000000 		.word	0
 5292 02b0 00000000 		.word	0
 5293 02b4 00000000 		.word	0
 5294              		.data
 5295              		.align	3
 5298              	tablero13.4266:
 5299 0300 00       		.byte	0
 5300 0301 00       		.byte	0
 5301 0302 00       		.byte	0
 5302 0303 00       		.byte	0
 5303 0304 00       		.byte	0
 5304 0305 00       		.byte	0
 5305 0306 00       		.byte	0
 5306 0307 00       		.byte	0
 5307 0308 00       		.byte	0
 5308 0309 00       		.byte	0
 5309 030a 00       		.byte	0
 5310 030b 00       		.byte	0
 5311 030c 00       		.byte	0
 5312 030d 00       		.byte	0
 5313 030e 00       		.byte	0
 5314 030f 00       		.byte	0
 5315 0310 02       		.byte	2
 5316 0311 01       		.byte	1
 5317 0312 00       		.byte	0
 5318 0313 00       		.byte	0
 5319 0314 00       		.byte	0
 5320 0315 00       		.byte	0
 5321 0316 00       		.byte	0
 5322 0317 00       		.byte	0
 5323 0318 00       		.byte	0
 5324 0319 02       		.byte	2
 5325 031a 00       		.byte	0
 5326 031b 00       		.byte	0
 5327 031c 00       		.byte	0
 5328 031d 00       		.byte	0
 5329 031e 00       		.byte	0
 5330 031f 00       		.byte	0
 5331 0320 02       		.byte	2
 5332 0321 00       		.byte	0
 5333 0322 00       		.byte	0
 5334 0323 00       		.byte	0
 5335 0324 00       		.byte	0
 5336 0325 00       		.byte	0
 5337 0326 00       		.byte	0
 5338 0327 00       		.byte	0
 5339 0328 02       		.byte	2
 5340 0329 00       		.byte	0
 5341 032a 00       		.byte	0
 5342 032b 00       		.byte	0
 5343 032c 00       		.byte	0
 5344 032d 00       		.byte	0
 5345 032e 00       		.byte	0
 5346 032f 00       		.byte	0
 5347 0330 00       		.byte	0
 5348 0331 00       		.byte	0
 5349 0332 00       		.byte	0
 5350 0333 00       		.byte	0
 5351 0334 00       		.byte	0
 5352 0335 00       		.byte	0
 5353 0336 00       		.byte	0
 5354 0337 00       		.byte	0
 5355 0338 00       		.byte	0
 5356 0339 00       		.byte	0
 5357 033a 00       		.byte	0
 5358 033b 00       		.byte	0
 5359 033c 00       		.byte	0
 5360 033d 00       		.byte	0
 5361 033e 00       		.byte	0
 5362 033f 00       		.byte	0
 5363              		.section	.rodata
 5364              		.align	2
 5367              	C.26.5088:
 5368 02b8 03000000 		.word	3
 5369 02bc 00000000 		.word	0
 5370 02c0 00000000 		.word	0
 5371 02c4 00000000 		.word	0
 5372 02c8 01000000 		.word	1
 5373 02cc 00000000 		.word	0
 5374 02d0 00000000 		.word	0
 5375 02d4 01000000 		.word	1
 5376              		.data
 5377              		.align	3
 5380              	tablero14.4269:
 5381 0340 00       		.byte	0
 5382 0341 00       		.byte	0
 5383 0342 00       		.byte	0
 5384 0343 02       		.byte	2
 5385 0344 00       		.byte	0
 5386 0345 00       		.byte	0
 5387 0346 00       		.byte	0
 5388 0347 00       		.byte	0
 5389 0348 00       		.byte	0
 5390 0349 00       		.byte	0
 5391 034a 00       		.byte	0
 5392 034b 02       		.byte	2
 5393 034c 00       		.byte	0
 5394 034d 00       		.byte	0
 5395 034e 00       		.byte	0
 5396 034f 00       		.byte	0
 5397 0350 00       		.byte	0
 5398 0351 02       		.byte	2
 5399 0352 02       		.byte	2
 5400 0353 02       		.byte	2
 5401 0354 00       		.byte	0
 5402 0355 00       		.byte	0
 5403 0356 00       		.byte	0
 5404 0357 00       		.byte	0
 5405 0358 00       		.byte	0
 5406 0359 00       		.byte	0
 5407 035a 00       		.byte	0
 5408 035b 00       		.byte	0
 5409 035c 01       		.byte	1
 5410 035d 01       		.byte	1
 5411 035e 01       		.byte	1
 5412 035f 01       		.byte	1
 5413 0360 00       		.byte	0
 5414 0361 00       		.byte	0
 5415 0362 01       		.byte	1
 5416 0363 02       		.byte	2
 5417 0364 00       		.byte	0
 5418 0365 00       		.byte	0
 5419 0366 00       		.byte	0
 5420 0367 00       		.byte	0
 5421 0368 00       		.byte	0
 5422 0369 00       		.byte	0
 5423 036a 01       		.byte	1
 5424 036b 00       		.byte	0
 5425 036c 00       		.byte	0
 5426 036d 00       		.byte	0
 5427 036e 00       		.byte	0
 5428 036f 00       		.byte	0
 5429 0370 00       		.byte	0
 5430 0371 00       		.byte	0
 5431 0372 00       		.byte	0
 5432 0373 00       		.byte	0
 5433 0374 00       		.byte	0
 5434 0375 00       		.byte	0
 5435 0376 00       		.byte	0
 5436 0377 00       		.byte	0
 5437 0378 00       		.byte	0
 5438 0379 01       		.byte	1
 5439 037a 00       		.byte	0
 5440 037b 00       		.byte	0
 5441 037c 00       		.byte	0
 5442 037d 00       		.byte	0
 5443 037e 00       		.byte	0
 5444 037f 00       		.byte	0
 5445              		.align	3
 5448              	tableroVacio.4159:
 5449 0380 01       		.byte	1
 5450 0381 01       		.byte	1
 5451 0382 01       		.byte	1
 5452 0383 01       		.byte	1
 5453 0384 01       		.byte	1
 5454 0385 01       		.byte	1
 5455 0386 01       		.byte	1
 5456 0387 01       		.byte	1
 5457 0388 01       		.byte	1
 5458 0389 01       		.byte	1
 5459 038a 01       		.byte	1
 5460 038b 01       		.byte	1
 5461 038c 01       		.byte	1
 5462 038d 01       		.byte	1
 5463 038e 01       		.byte	1
 5464 038f 01       		.byte	1
 5465 0390 01       		.byte	1
 5466 0391 01       		.byte	1
 5467 0392 01       		.byte	1
 5468 0393 01       		.byte	1
 5469 0394 01       		.byte	1
 5470 0395 01       		.byte	1
 5471 0396 01       		.byte	1
 5472 0397 01       		.byte	1
 5473 0398 01       		.byte	1
 5474 0399 01       		.byte	1
 5475 039a 01       		.byte	1
 5476 039b 01       		.byte	1
 5477 039c 01       		.byte	1
 5478 039d 01       		.byte	1
 5479 039e 01       		.byte	1
 5480 039f 01       		.byte	1
 5481 03a0 01       		.byte	1
 5482 03a1 01       		.byte	1
 5483 03a2 01       		.byte	1
 5484 03a3 01       		.byte	1
 5485 03a4 01       		.byte	1
 5486 03a5 01       		.byte	1
 5487 03a6 01       		.byte	1
 5488 03a7 01       		.byte	1
 5489 03a8 01       		.byte	1
 5490 03a9 01       		.byte	1
 5491 03aa 01       		.byte	1
 5492 03ab 01       		.byte	1
 5493 03ac 01       		.byte	1
 5494 03ad 01       		.byte	1
 5495 03ae 01       		.byte	1
 5496 03af 01       		.byte	1
 5497 03b0 01       		.byte	1
 5498 03b1 01       		.byte	1
 5499 03b2 01       		.byte	1
 5500 03b3 01       		.byte	1
 5501 03b4 01       		.byte	1
 5502 03b5 01       		.byte	1
 5503 03b6 01       		.byte	1
 5504 03b7 01       		.byte	1
 5505 03b8 01       		.byte	1
 5506 03b9 01       		.byte	1
 5507 03ba 01       		.byte	1
 5508 03bb 01       		.byte	1
 5509 03bc 01       		.byte	1
 5510 03bd 01       		.byte	1
 5511 03be 01       		.byte	1
 5512 03bf 01       		.byte	1
 5513              		.bss
 5514              		.align	3
 5515              	tableroLleno.4160:
 5516 0090 00000000 		.space	64
 5516      00000000 
 5516      00000000 
 5516      00000000 
 5516      00000000 
 5517              		.data
 5518              		.align	3
 5521              	tablero1.4161:
 5522 03c0 02       		.byte	2
 5523 03c1 02       		.byte	2
 5524 03c2 02       		.byte	2
 5525 03c3 02       		.byte	2
 5526 03c4 02       		.byte	2
 5527 03c5 02       		.byte	2
 5528 03c6 02       		.byte	2
 5529 03c7 02       		.byte	2
 5530 03c8 02       		.byte	2
 5531 03c9 01       		.byte	1
 5532 03ca 01       		.byte	1
 5533 03cb 01       		.byte	1
 5534 03cc 01       		.byte	1
 5535 03cd 01       		.byte	1
 5536 03ce 01       		.byte	1
 5537 03cf 01       		.byte	1
 5538 03d0 02       		.byte	2
 5539 03d1 01       		.byte	1
 5540 03d2 01       		.byte	1
 5541 03d3 01       		.byte	1
 5542 03d4 01       		.byte	1
 5543 03d5 01       		.byte	1
 5544 03d6 01       		.byte	1
 5545 03d7 01       		.byte	1
 5546 03d8 02       		.byte	2
 5547 03d9 01       		.byte	1
 5548 03da 01       		.byte	1
 5549 03db 01       		.byte	1
 5550 03dc 01       		.byte	1
 5551 03dd 01       		.byte	1
 5552 03de 01       		.byte	1
 5553 03df 01       		.byte	1
 5554 03e0 02       		.byte	2
 5555 03e1 01       		.byte	1
 5556 03e2 01       		.byte	1
 5557 03e3 01       		.byte	1
 5558 03e4 01       		.byte	1
 5559 03e5 01       		.byte	1
 5560 03e6 01       		.byte	1
 5561 03e7 01       		.byte	1
 5562 03e8 02       		.byte	2
 5563 03e9 01       		.byte	1
 5564 03ea 01       		.byte	1
 5565 03eb 01       		.byte	1
 5566 03ec 01       		.byte	1
 5567 03ed 01       		.byte	1
 5568 03ee 01       		.byte	1
 5569 03ef 01       		.byte	1
 5570 03f0 02       		.byte	2
 5571 03f1 01       		.byte	1
 5572 03f2 01       		.byte	1
 5573 03f3 01       		.byte	1
 5574 03f4 01       		.byte	1
 5575 03f5 01       		.byte	1
 5576 03f6 01       		.byte	1
 5577 03f7 01       		.byte	1
 5578 03f8 02       		.byte	2
 5579 03f9 01       		.byte	1
 5580 03fa 01       		.byte	1
 5581 03fb 01       		.byte	1
 5582 03fc 01       		.byte	1
 5583 03fd 01       		.byte	1
 5584 03fe 01       		.byte	1
 5585 03ff 01       		.byte	1
 5586              		.align	3
 5589              	tablero2.4162:
 5590 0400 02       		.byte	2
 5591 0401 02       		.byte	2
 5592 0402 02       		.byte	2
 5593 0403 02       		.byte	2
 5594 0404 02       		.byte	2
 5595 0405 02       		.byte	2
 5596 0406 02       		.byte	2
 5597 0407 02       		.byte	2
 5598 0408 02       		.byte	2
 5599 0409 01       		.byte	1
 5600 040a 01       		.byte	1
 5601 040b 01       		.byte	1
 5602 040c 01       		.byte	1
 5603 040d 01       		.byte	1
 5604 040e 01       		.byte	1
 5605 040f 01       		.byte	1
 5606 0410 02       		.byte	2
 5607 0411 01       		.byte	1
 5608 0412 01       		.byte	1
 5609 0413 01       		.byte	1
 5610 0414 01       		.byte	1
 5611 0415 01       		.byte	1
 5612 0416 01       		.byte	1
 5613 0417 01       		.byte	1
 5614 0418 02       		.byte	2
 5615 0419 01       		.byte	1
 5616 041a 01       		.byte	1
 5617 041b 01       		.byte	1
 5618 041c 01       		.byte	1
 5619 041d 01       		.byte	1
 5620 041e 01       		.byte	1
 5621 041f 01       		.byte	1
 5622 0420 02       		.byte	2
 5623 0421 01       		.byte	1
 5624 0422 01       		.byte	1
 5625 0423 01       		.byte	1
 5626 0424 01       		.byte	1
 5627 0425 01       		.byte	1
 5628 0426 01       		.byte	1
 5629 0427 01       		.byte	1
 5630 0428 02       		.byte	2
 5631 0429 01       		.byte	1
 5632 042a 01       		.byte	1
 5633 042b 01       		.byte	1
 5634 042c 01       		.byte	1
 5635 042d 01       		.byte	1
 5636 042e 01       		.byte	1
 5637 042f 01       		.byte	1
 5638 0430 02       		.byte	2
 5639 0431 01       		.byte	1
 5640 0432 01       		.byte	1
 5641 0433 01       		.byte	1
 5642 0434 01       		.byte	1
 5643 0435 01       		.byte	1
 5644 0436 01       		.byte	1
 5645 0437 01       		.byte	1
 5646 0438 02       		.byte	2
 5647 0439 01       		.byte	1
 5648 043a 01       		.byte	1
 5649 043b 01       		.byte	1
 5650 043c 01       		.byte	1
 5651 043d 01       		.byte	1
 5652 043e 01       		.byte	1
 5653 043f 01       		.byte	1
 5654              		.align	3
 5657              	tablero3.4163:
 5658 0440 02       		.byte	2
 5659 0441 02       		.byte	2
 5660 0442 02       		.byte	2
 5661 0443 02       		.byte	2
 5662 0444 02       		.byte	2
 5663 0445 02       		.byte	2
 5664 0446 02       		.byte	2
 5665 0447 02       		.byte	2
 5666 0448 02       		.byte	2
 5667 0449 01       		.byte	1
 5668 044a 01       		.byte	1
 5669 044b 02       		.byte	2
 5670 044c 01       		.byte	1
 5671 044d 01       		.byte	1
 5672 044e 01       		.byte	1
 5673 044f 01       		.byte	1
 5674 0450 02       		.byte	2
 5675 0451 01       		.byte	1
 5676 0452 01       		.byte	1
 5677 0453 02       		.byte	2
 5678 0454 01       		.byte	1
 5679 0455 01       		.byte	1
 5680 0456 01       		.byte	1
 5681 0457 01       		.byte	1
 5682 0458 02       		.byte	2
 5683 0459 01       		.byte	1
 5684 045a 01       		.byte	1
 5685 045b 02       		.byte	2
 5686 045c 01       		.byte	1
 5687 045d 01       		.byte	1
 5688 045e 01       		.byte	1
 5689 045f 01       		.byte	1
 5690 0460 02       		.byte	2
 5691 0461 01       		.byte	1
 5692 0462 01       		.byte	1
 5693 0463 02       		.byte	2
 5694 0464 01       		.byte	1
 5695 0465 01       		.byte	1
 5696 0466 01       		.byte	1
 5697 0467 01       		.byte	1
 5698 0468 02       		.byte	2
 5699 0469 01       		.byte	1
 5700 046a 01       		.byte	1
 5701 046b 02       		.byte	2
 5702 046c 01       		.byte	1
 5703 046d 01       		.byte	1
 5704 046e 01       		.byte	1
 5705 046f 01       		.byte	1
 5706 0470 02       		.byte	2
 5707 0471 01       		.byte	1
 5708 0472 01       		.byte	1
 5709 0473 02       		.byte	2
 5710 0474 01       		.byte	1
 5711 0475 01       		.byte	1
 5712 0476 01       		.byte	1
 5713 0477 01       		.byte	1
 5714 0478 02       		.byte	2
 5715 0479 01       		.byte	1
 5716 047a 01       		.byte	1
 5717 047b 02       		.byte	2
 5718 047c 01       		.byte	1
 5719 047d 01       		.byte	1
 5720 047e 01       		.byte	1
 5721 047f 01       		.byte	1
 5722              		.align	3
 5725              	tablero4.4164:
 5726 0480 02       		.byte	2
 5727 0481 02       		.byte	2
 5728 0482 02       		.byte	2
 5729 0483 02       		.byte	2
 5730 0484 02       		.byte	2
 5731 0485 02       		.byte	2
 5732 0486 02       		.byte	2
 5733 0487 02       		.byte	2
 5734 0488 02       		.byte	2
 5735 0489 01       		.byte	1
 5736 048a 01       		.byte	1
 5737 048b 01       		.byte	1
 5738 048c 01       		.byte	1
 5739 048d 01       		.byte	1
 5740 048e 01       		.byte	1
 5741 048f 01       		.byte	1
 5742 0490 02       		.byte	2
 5743 0491 01       		.byte	1
 5744 0492 00       		.byte	0
 5745 0493 01       		.byte	1
 5746 0494 01       		.byte	1
 5747 0495 01       		.byte	1
 5748 0496 01       		.byte	1
 5749 0497 01       		.byte	1
 5750 0498 02       		.byte	2
 5751 0499 01       		.byte	1
 5752 049a 01       		.byte	1
 5753 049b 01       		.byte	1
 5754 049c 01       		.byte	1
 5755 049d 01       		.byte	1
 5756 049e 00       		.byte	0
 5757 049f 01       		.byte	1
 5758 04a0 02       		.byte	2
 5759 04a1 01       		.byte	1
 5760 04a2 01       		.byte	1
 5761 04a3 01       		.byte	1
 5762 04a4 01       		.byte	1
 5763 04a5 01       		.byte	1
 5764 04a6 01       		.byte	1
 5765 04a7 01       		.byte	1
 5766 04a8 02       		.byte	2
 5767 04a9 01       		.byte	1
 5768 04aa 01       		.byte	1
 5769 04ab 01       		.byte	1
 5770 04ac 01       		.byte	1
 5771 04ad 01       		.byte	1
 5772 04ae 00       		.byte	0
 5773 04af 01       		.byte	1
 5774 04b0 02       		.byte	2
 5775 04b1 00       		.byte	0
 5776 04b2 01       		.byte	1
 5777 04b3 01       		.byte	1
 5778 04b4 00       		.byte	0
 5779 04b5 01       		.byte	1
 5780 04b6 01       		.byte	1
 5781 04b7 01       		.byte	1
 5782 04b8 02       		.byte	2
 5783 04b9 01       		.byte	1
 5784 04ba 01       		.byte	1
 5785 04bb 01       		.byte	1
 5786 04bc 01       		.byte	1
 5787 04bd 01       		.byte	1
 5788 04be 01       		.byte	1
 5789 04bf 00       		.byte	0
 5790              		.text
 5791              	.Letext0:
DEFINED SYMBOLS
                            *ABS*:00000000 reversi8_2019.c
C:\Users\guest\AppData\Local\Temp\cc1b9y7d.s:981    .bss:00000000 $d
C:\Users\guest\AppData\Local\Temp\cc1b9y7d.s:982    .bss:00000000 timer2_num_int
C:\Users\guest\AppData\Local\Temp\cc1b9y7d.s:988    .rodata:00000000 NO
C:\Users\guest\AppData\Local\Temp\cc1b9y7d.s:989    .rodata:00000000 $d
C:\Users\guest\AppData\Local\Temp\cc1b9y7d.s:993    .rodata:00000001 SI
C:\Users\guest\AppData\Local\Temp\cc1b9y7d.s:998    .rodata:00000002 CASILLA_OCUPADA
C:\Users\guest\AppData\Local\Temp\cc1b9y7d.s:1003   .rodata:00000008 tabla_valor
C:\Users\guest\AppData\Local\Temp\cc1b9y7d.s:1072   .rodata:00000048 vSF
C:\Users\guest\AppData\Local\Temp\cc1b9y7d.s:1085   .rodata:00000050 vSC
C:\Users\guest\AppData\Local\Temp\cc1b9y7d.s:1096   .bss:00000008 tablero
C:\Users\guest\AppData\Local\Temp\cc1b9y7d.s:1101   .bss:00000048 fila
C:\Users\guest\AppData\Local\Temp\cc1b9y7d.s:1106   .bss:00000049 columna
C:\Users\guest\AppData\Local\Temp\cc1b9y7d.s:1111   .bss:0000004a ready
C:\Users\guest\AppData\Local\Temp\cc1b9y7d.s:1114   .text:00000000 $a
C:\Users\guest\AppData\Local\Temp\cc1b9y7d.s:1117   .text:00000000 init_table
C:\Users\guest\AppData\Local\Temp\cc1b9y7d.s:1297   .text:0000020c $d
C:\Users\guest\AppData\Local\Temp\cc1b9y7d.s:1302   .text:00000214 $a
C:\Users\guest\AppData\Local\Temp\cc1b9y7d.s:1305   .text:00000214 esperar_mov
C:\Users\guest\AppData\Local\Temp\cc1b9y7d.s:1347   .text:00000258 ficha_valida
C:\Users\guest\AppData\Local\Temp\cc1b9y7d.s:1422   .text:0000030c patron_volteo
C:\Users\guest\AppData\Local\Temp\cc1b9y7d.s:1531   .text:00000420 patron_volteo_test_tiempos
C:\Users\guest\AppData\Local\Temp\cc1b9y7d.s:1703   .text:000005fc patron_volteo_test
C:\Users\guest\AppData\Local\Temp\cc1b9y7d.s:1825   .text:00000744 voltear
C:\Users\guest\AppData\Local\Temp\cc1b9y7d.s:1890   .text:000007d4 actualizar_tablero
C:\Users\guest\AppData\Local\Temp\cc1b9y7d.s:1981   .text:000008c4 $d
C:\Users\guest\AppData\Local\Temp\cc1b9y7d.s:1986   .text:000008cc $a
C:\Users\guest\AppData\Local\Temp\cc1b9y7d.s:1989   .text:000008cc elegir_mov
C:\Users\guest\AppData\Local\Temp\cc1b9y7d.s:2174   .text:00000ad4 $d
C:\Users\guest\AppData\Local\Temp\cc1b9y7d.s:2181   .text:00000ae4 $a
C:\Users\guest\AppData\Local\Temp\cc1b9y7d.s:2184   .text:00000ae4 contar
C:\Users\guest\AppData\Local\Temp\cc1b9y7d.s:2286   .text:00000be0 actualizar_candidatas
C:\Users\guest\AppData\Local\Temp\cc1b9y7d.s:2549   .text:00000f30 $d
C:\Users\guest\AppData\Local\Temp\cc1b9y7d.s:2554   .text:00000f38 $a
C:\Users\guest\AppData\Local\Temp\cc1b9y7d.s:2557   .text:00000f38 reversi8
C:\Users\guest\AppData\Local\Temp\cc1b9y7d.s:3085   .text:000016a8 $d
C:\Users\guest\AppData\Local\Temp\cc1b9y7d.s:3093   .text:000016bc $a
C:\Users\guest\AppData\Local\Temp\cc1b9y7d.s:3096   .text:000016bc comprobarFicha
C:\Users\guest\AppData\Local\Temp\cc1b9y7d.s:3186   .text:000017a8 $d
C:\Users\guest\AppData\Local\Temp\cc1b9y7d.s:3191   .text:000017b0 $a
C:\Users\guest\AppData\Local\Temp\cc1b9y7d.s:3194   .text:000017b0 patron_volteo_prueba_resultado_igual
C:\Users\guest\AppData\Local\Temp\cc1b9y7d.s:3429   .text:00001a0c $d
C:\Users\guest\AppData\Local\Temp\cc1b9y7d.s:5448   .data:00000380 tableroVacio.4159
C:\Users\guest\AppData\Local\Temp\cc1b9y7d.s:5515   .bss:00000090 tableroLleno.4160
C:\Users\guest\AppData\Local\Temp\cc1b9y7d.s:5521   .data:000003c0 tablero1.4161
C:\Users\guest\AppData\Local\Temp\cc1b9y7d.s:5589   .data:00000400 tablero2.4162
C:\Users\guest\AppData\Local\Temp\cc1b9y7d.s:5657   .data:00000440 tablero3.4163
C:\Users\guest\AppData\Local\Temp\cc1b9y7d.s:5725   .data:00000480 tablero4.4164
C:\Users\guest\AppData\Local\Temp\cc1b9y7d.s:3438   .text:00001a24 $a
C:\Users\guest\AppData\Local\Temp\cc1b9y7d.s:3441   .text:00001a24 evaluar_patron_volteo
C:\Users\guest\AppData\Local\Temp\cc1b9y7d.s:3530   .text:00001b08 $d
C:\Users\guest\AppData\Local\Temp\cc1b9y7d.s:3535   .text:00001b10 $a
C:\Users\guest\AppData\Local\Temp\cc1b9y7d.s:3538   .text:00001b10 patron_volteo_prueba_resultado_correcto
C:\Users\guest\AppData\Local\Temp\cc1b9y7d.s:4187   .text:00002394 $d
C:\Users\guest\AppData\Local\Temp\cc1b9y7d.s:4227   .bss:00000050 tableroVacio.4220
C:\Users\guest\AppData\Local\Temp\cc1b9y7d.s:4233   .rodata:00000058 C.7.5069
C:\Users\guest\AppData\Local\Temp\cc1b9y7d.s:4245   .rodata:00000078 C.8.5070
C:\Users\guest\AppData\Local\Temp\cc1b9y7d.s:4258   .data:00000000 tablero1.4230
C:\Users\guest\AppData\Local\Temp\cc1b9y7d.s:4327   .rodata:00000098 C.9.5071
C:\Users\guest\AppData\Local\Temp\cc1b9y7d.s:4339   .rodata:000000b8 C.10.5072
C:\Users\guest\AppData\Local\Temp\cc1b9y7d.s:4352   .data:00000040 tablero2.4233
C:\Users\guest\AppData\Local\Temp\cc1b9y7d.s:4421   .rodata:000000d8 C.11.5073
C:\Users\guest\AppData\Local\Temp\cc1b9y7d.s:4433   .rodata:000000f8 C.12.5074
C:\Users\guest\AppData\Local\Temp\cc1b9y7d.s:4446   .data:00000080 tablero3.4236
C:\Users\guest\AppData\Local\Temp\cc1b9y7d.s:4515   .rodata:00000118 C.13.5075
C:\Users\guest\AppData\Local\Temp\cc1b9y7d.s:4527   .rodata:00000138 C.14.5076
C:\Users\guest\AppData\Local\Temp\cc1b9y7d.s:4540   .data:000000c0 tablero4.4239
C:\Users\guest\AppData\Local\Temp\cc1b9y7d.s:4608   .data:00000100 tablero5.4242
C:\Users\guest\AppData\Local\Temp\cc1b9y7d.s:4677   .rodata:00000158 C.15.5077
C:\Users\guest\AppData\Local\Temp\cc1b9y7d.s:4690   .data:00000140 tablero6.4245
C:\Users\guest\AppData\Local\Temp\cc1b9y7d.s:4759   .rodata:00000178 C.16.5078
C:\Users\guest\AppData\Local\Temp\cc1b9y7d.s:4772   .data:00000180 tablero7.4248
C:\Users\guest\AppData\Local\Temp\cc1b9y7d.s:4841   .rodata:00000198 C.17.5079
C:\Users\guest\AppData\Local\Temp\cc1b9y7d.s:4853   .rodata:000001b8 C.18.5080
C:\Users\guest\AppData\Local\Temp\cc1b9y7d.s:4866   .data:000001c0 tablero8.4251
C:\Users\guest\AppData\Local\Temp\cc1b9y7d.s:4935   .rodata:000001d8 C.19.5081
C:\Users\guest\AppData\Local\Temp\cc1b9y7d.s:4947   .rodata:000001f8 C.20.5082
C:\Users\guest\AppData\Local\Temp\cc1b9y7d.s:4960   .data:00000200 tablero9.4254
C:\Users\guest\AppData\Local\Temp\cc1b9y7d.s:5029   .rodata:00000218 C.21.5083
C:\Users\guest\AppData\Local\Temp\cc1b9y7d.s:5041   .rodata:00000238 C.22.5084
C:\Users\guest\AppData\Local\Temp\cc1b9y7d.s:5054   .data:00000240 tablero10.4257
C:\Users\guest\AppData\Local\Temp\cc1b9y7d.s:5123   .rodata:00000258 C.23.5085
C:\Users\guest\AppData\Local\Temp\cc1b9y7d.s:5135   .rodata:00000278 C.24.5086
C:\Users\guest\AppData\Local\Temp\cc1b9y7d.s:5148   .data:00000280 tablero11.4260
C:\Users\guest\AppData\Local\Temp\cc1b9y7d.s:5216   .data:000002c0 tablero12.4263
C:\Users\guest\AppData\Local\Temp\cc1b9y7d.s:5285   .rodata:00000298 C.25.5087
C:\Users\guest\AppData\Local\Temp\cc1b9y7d.s:5298   .data:00000300 tablero13.4266
C:\Users\guest\AppData\Local\Temp\cc1b9y7d.s:5367   .rodata:000002b8 C.26.5088
C:\Users\guest\AppData\Local\Temp\cc1b9y7d.s:5380   .data:00000340 tablero14.4269
C:\Users\guest\AppData\Local\Temp\cc1b9y7d.s:4255   .data:00000000 $d
                     .debug_frame:00000010 $d

UNDEFINED SYMBOLS
timer2_inicializar
timer2_empezar
timer2_leer
timer2_parar
patron_volteo_arm_c
patron_volteo_arm_arm_opt
patron_volteo_arm_arm
